
out_2022-02-01/asm_test/riscv_u_mode_rand_test_0.o:     file format elf32-littleriscv


Disassembly of section .text:

80000000 <_start>:
80000000:	f14022f3          	csrr	t0,mhartid
80000004:	00000313          	li	t1,0
80000008:	00628263          	beq	t0,t1,8000000c <_start+0xc>
8000000c:	00000697          	auipc	a3,0x0
80000010:	00c68693          	addi	a3,a3,12 # 80000018 <h0_start>
80000014:	00068067          	jr	a3

80000018 <h0_start>:
80000018:	40000e37          	lui	t3,0x40000
8000001c:	100e0e13          	addi	t3,t3,256 # 40000100 <_start-0x3fffff00>
80000020:	301e1073          	csrw	misa,t3

80000024 <kernel_sp>:
80000024:	0002fb17          	auipc	s6,0x2f
80000028:	e58b0b13          	addi	s6,s6,-424 # 8002ee7c <kernel_stack_end>

8000002c <trap_vec_init>:
8000002c:	0000ce17          	auipc	t3,0xc
80000030:	fd4e0e13          	addi	t3,t3,-44 # 8000c000 <mtvec_handler>
80000034:	000e6e13          	ori	t3,t3,0
80000038:	305e1073          	csrw	mtvec,t3

8000003c <process_pt>:
8000003c:	0000f297          	auipc	t0,0xf
80000040:	7c428293          	addi	t0,t0,1988 # 8000f800 <page_table_0+0x800>
80000044:	8002ac03          	lw	s8,-2048(t0)
80000048:	00010e17          	auipc	t3,0x10
8000004c:	fb8e0e13          	addi	t3,t3,-72 # 80010000 <page_table_1>
80000050:	002e5e13          	srli	t3,t3,0x2
80000054:	018e6c33          	or	s8,t3,s8
80000058:	8182a023          	sw	s8,-2048(t0)
8000005c:	8042ac03          	lw	s8,-2044(t0)
80000060:	00011e17          	auipc	t3,0x11
80000064:	fa0e0e13          	addi	t3,t3,-96 # 80011000 <page_table_2>
80000068:	002e5e13          	srli	t3,t3,0x2
8000006c:	018e6c33          	or	s8,t3,s8
80000070:	8182a223          	sw	s8,-2044(t0)
80000074:	12000073          	sfence.vma

80000078 <mepc_setup>:
80000078:	00000e17          	auipc	t3,0x0
8000007c:	050e0e13          	addi	t3,t3,80 # 800000c8 <init>
80000080:	014e1e13          	slli	t3,t3,0x14
80000084:	014e5e13          	srli	t3,t3,0x14
80000088:	341e1073          	csrw	mepc,t3

8000008c <custom_csr_setup>:
8000008c:	00000013          	nop

80000090 <init_user_mode>:
80000090:	80000e37          	lui	t3,0x80000
80000094:	180e1073          	csrw	satp,t3
80000098:	0000fe17          	auipc	t3,0xf
8000009c:	f68e0e13          	addi	t3,t3,-152 # 8000f000 <page_table_0>
800000a0:	00ce5e13          	srli	t3,t3,0xc
800000a4:	004002b7          	lui	t0,0x400
800000a8:	fff28293          	addi	t0,t0,-1 # 3fffff <_start-0x7fc00001>
800000ac:	005e7e33          	and	t3,t3,t0
800000b0:	180e2073          	csrs	satp,t3
800000b4:	00040e37          	lui	t3,0x40
800000b8:	300e1073          	csrw	mstatus,t3
800000bc:	00000e13          	li	t3,0
800000c0:	304e1073          	csrw	mie,t3
800000c4:	30200073          	mret

800000c8 <init>:
800000c8:	11082037          	lui	zero,0x11082
800000cc:	aff00013          	li	zero,-1281
800000d0:	800000b7          	lui	ra,0x80000
800000d4:	f76de137          	lui	sp,0xf76de
800000d8:	20110113          	addi	sp,sp,513 # f76de201 <_end+0x776af381>
800000dc:	00700193          	li	gp,7
800000e0:	00000213          	li	tp,0
800000e4:	00000293          	li	t0,0
800000e8:	800003b7          	lui	t2,0x80000
800000ec:	00900413          	li	s0,9
800000f0:	f144d4b7          	lui	s1,0xf144d
800000f4:	45148493          	addi	s1,s1,1105 # f144d451 <_end+0x7141e5d1>
800000f8:	00500513          	li	a0,5
800000fc:	00000593          	li	a1,0
80000100:	fabb8637          	lui	a2,0xfabb8
80000104:	2fc60613          	addi	a2,a2,764 # fabb82fc <_end+0x7ab8947c>
80000108:	d3bac6b7          	lui	a3,0xd3bac
8000010c:	9f268693          	addi	a3,a3,-1550 # d3bab9f2 <_end+0x53b7cb72>
80000110:	80000737          	lui	a4,0x80000
80000114:	00c00793          	li	a5,12
80000118:	c3336837          	lui	a6,0xc3336
8000011c:	2ce80813          	addi	a6,a6,718 # c33362ce <_end+0x4330744e>
80000120:	f3c888b7          	lui	a7,0xf3c88
80000124:	fbd88893          	addi	a7,a7,-67 # f3c87fbd <_end+0x73c5913d>
80000128:	00000913          	li	s2,0
8000012c:	800009b7          	lui	s3,0x80000
80000130:	f9554a37          	lui	s4,0xf9554
80000134:	0c0a0a13          	addi	s4,s4,192 # f95540c0 <_end+0x79525240>
80000138:	c624fab7          	lui	s5,0xc624f
8000013c:	5b1a8a93          	addi	s5,s5,1457 # c624f5b1 <_end+0x46220731>
80000140:	00800b93          	li	s7,8
80000144:	00c00c13          	li	s8,12
80000148:	80000cb7          	lui	s9,0x80000
8000014c:	00300d13          	li	s10,3
80000150:	00100d93          	li	s11,1
80000154:	ff8c2e37          	lui	t3,0xff8c2
80000158:	c22e0e13          	addi	t3,t3,-990 # ff8c1c22 <_end+0x7f892da2>
8000015c:	00700e93          	li	t4,7
80000160:	ea945f37          	lui	t5,0xea945
80000164:	9b8f0f13          	addi	t5,t5,-1608 # ea9449b8 <_end+0x6a915b38>
80000168:	00800f93          	li	t6,8
8000016c:	0002b317          	auipc	t1,0x2b
80000170:	cb030313          	addi	t1,t1,-848 # 8002ae1c <user_stack_end>

80000174 <main>:
80000174:	dd88a013          	slti	zero,a7,-552
80000178:	01808433          	add	s0,ra,s8
8000017c:	01537533          	and	a0,t1,s5
80000180:	0000ad97          	auipc	s11,0xa
80000184:	a50d8d93          	addi	s11,s11,-1456 # 80009bd0 <sub_5>
80000188:	0141ae33          	slt	t3,gp,s4
8000018c:	dd2d8d93          	addi	s11,s11,-558
80000190:	4022de33          	sra	t3,t0,sp
80000194:	01d09463          	bne	ra,t4,8000019c <main_j4>
80000198:	0140b7b3          	sltu	a5,ra,s4

8000019c <main_j4>:
8000019c:	22fd80e7          	jalr	559(s11)
800001a0:	41ae0833          	sub	a6,t3,s10
800001a4:	01950863          	beq	a0,s9,800001b4 <main_j4+0x18>
800001a8:	016fda63          	bge	t6,s6,800001bc <main_j4+0x20>
800001ac:	e4ccbc97          	auipc	s9,0xe4ccb
800001b0:	0140b7b3          	sltu	a5,ra,s4
800001b4:	e5e3fb93          	andi	s7,t2,-418
800001b8:	e4ccbc97          	auipc	s9,0xe4ccb
800001bc:	01537533          	and	a0,t1,s5
800001c0:	0507c263          	blt	a5,a6,80000204 <main_j4+0x68>
800001c4:	01c45713          	srli	a4,s0,0x1c
800001c8:	00d09993          	slli	s3,ra,0xd
800001cc:	4158d193          	srai	gp,a7,0x15
800001d0:	e5a8cb93          	xori	s7,a7,-422
800001d4:	036fd063          	bge	t6,s6,800001f4 <main_j4+0x58>
800001d8:	01537533          	and	a0,t1,s5
800001dc:	03950263          	beq	a0,s9,80000200 <main_j4+0x64>
800001e0:	01465bb3          	srl	s7,a2,s4
800001e4:	41ae0833          	sub	a6,t3,s10
800001e8:	c66de993          	ori	s3,s11,-922
800001ec:	04d1e063          	bltu	gp,a3,8000022c <main_j4+0x90>
800001f0:	00d09993          	slli	s3,ra,0xd
800001f4:	0307ca63          	blt	a5,a6,80000228 <main_j4+0x8c>
800001f8:	dd88a013          	slti	zero,a7,-552
800001fc:	a08c68b7          	lui	a7,0xa08c6
80000200:	02d1ea63          	bltu	gp,a3,80000234 <main_j4+0x98>
80000204:	41ae0833          	sub	a6,t3,s10
80000208:	00d09993          	slli	s3,ra,0xd
8000020c:	e5e3fb93          	andi	s7,t2,-418
80000210:	0107c463          	blt	a5,a6,80000218 <main_j4+0x7c>
80000214:	0140b7b3          	sltu	a5,ra,s4
80000218:	02d1e663          	bltu	gp,a3,80000244 <main_j4+0xa8>
8000021c:	03950263          	beq	a0,s9,80000240 <main_j4+0xa4>
80000220:	01465bb3          	srl	s7,a2,s4
80000224:	e5a8cb93          	xori	s7,a7,-422
80000228:	01950863          	beq	a0,s9,80000238 <main_j4+0x9c>
8000022c:	02d1e863          	bltu	gp,a3,8000025c <main_j4+0xc0>
80000230:	004b7e63          	bgeu	s6,tp,8000024c <main_j4+0xb0>
80000234:	0072c133          	xor	sp,t0,t2
80000238:	e5e3fb93          	andi	s7,t2,-418
8000023c:	4158d193          	srai	gp,a7,0x15
80000240:	00d09993          	slli	s3,ra,0xd
80000244:	c66de993          	ori	s3,s11,-922
80000248:	024b7a63          	bgeu	s6,tp,8000027c <main_j4+0xe0>
8000024c:	03950463          	beq	a0,s9,80000274 <main_j4+0xd8>
80000250:	41ae0833          	sub	a6,t3,s10
80000254:	02d1e663          	bltu	gp,a3,80000280 <main_j4+0xe4>
80000258:	024b7a63          	bgeu	s6,tp,8000028c <main_j4+0xf0>
8000025c:	a08c68b7          	lui	a7,0xa08c6
80000260:	e5e3fb93          	andi	s7,t2,-418
80000264:	e5a8cb93          	xori	s7,a7,-422
80000268:	4022ddb3          	sra	s11,t0,sp
8000026c:	01431733          	sll	a4,t1,s4
80000270:	0140b7b3          	sltu	a5,ra,s4
80000274:	0000100f          	fence.i
80000278:	a08c68b7          	lui	a7,0xa08c6
8000027c:	01465bb3          	srl	s7,a2,s4
80000280:	bde33713          	sltiu	a4,t1,-1058
80000284:	e4ccbc97          	auipc	s9,0xe4ccb
80000288:	a08c68b7          	lui	a7,0xa08c6
8000028c:	0141adb3          	slt	s11,gp,s4
80000290:	024b7463          	bgeu	s6,tp,800002b8 <main_j4+0x11c>
80000294:	574a0113          	addi	sp,s4,1396
80000298:	bde33713          	sltiu	a4,t1,-1058
8000029c:	01808433          	add	s0,ra,s8
800002a0:	0140b7b3          	sltu	a5,ra,s4
800002a4:	4158d193          	srai	gp,a7,0x15
800002a8:	03950863          	beq	a0,s9,800002d8 <main_j4+0x13c>
800002ac:	019fe0b3          	or	ra,t6,s9
800002b0:	4022ddb3          	sra	s11,t0,sp
800002b4:	01808433          	add	s0,ra,s8
800002b8:	a08c68b7          	lui	a7,0xa08c6
800002bc:	4022ddb3          	sra	s11,t0,sp
800002c0:	41ae0833          	sub	a6,t3,s10
800002c4:	c66de993          	ori	s3,s11,-922
800002c8:	c66de993          	ori	s3,s11,-922
800002cc:	e4ccbc97          	auipc	s9,0xe4ccb
800002d0:	4158d193          	srai	gp,a7,0x15
800002d4:	00d09993          	slli	s3,ra,0xd
800002d8:	03d09c63          	bne	ra,t4,80000310 <main_j4+0x174>
800002dc:	0141adb3          	slt	s11,gp,s4
800002e0:	4022ddb3          	sra	s11,t0,sp
800002e4:	00d09993          	slli	s3,ra,0xd
800002e8:	00d09993          	slli	s3,ra,0xd
800002ec:	056fd063          	bge	t6,s6,8000032c <main_j4+0x190>
800002f0:	044b7663          	bgeu	s6,tp,8000033c <main_j4+0x1a0>
800002f4:	0072c133          	xor	sp,t0,t2
800002f8:	c66de993          	ori	s3,s11,-922
800002fc:	0141adb3          	slt	s11,gp,s4
80000300:	00000013          	nop
80000304:	00d1e863          	bltu	gp,a3,80000314 <main_j4+0x178>
80000308:	574a0113          	addi	sp,s4,1396
8000030c:	044b7863          	bgeu	s6,tp,8000035c <main_j4+0x1c0>
80000310:	00d09993          	slli	s3,ra,0xd
80000314:	41ae0833          	sub	a6,t3,s10
80000318:	dd88a013          	slti	zero,a7,-552
8000031c:	056fd063          	bge	t6,s6,8000035c <main_j4+0x1c0>
80000320:	c66de993          	ori	s3,s11,-922
80000324:	01537533          	and	a0,t1,s5
80000328:	4022ddb3          	sra	s11,t0,sp
8000032c:	0ff0000f          	fence
80000330:	00d09993          	slli	s3,ra,0xd
80000334:	0072c133          	xor	sp,t0,t2
80000338:	0140b7b3          	sltu	a5,ra,s4
8000033c:	0140b7b3          	sltu	a5,ra,s4
80000340:	01c45713          	srli	a4,s0,0x1c
80000344:	c66de993          	ori	s3,s11,-922
80000348:	024b7863          	bgeu	s6,tp,80000378 <main_j4+0x1dc>
8000034c:	e4ccbc97          	auipc	s9,0xe4ccb
80000350:	01808433          	add	s0,ra,s8
80000354:	4158d193          	srai	gp,a7,0x15
80000358:	01431733          	sll	a4,t1,s4
8000035c:	05950863          	beq	a0,s9,800003ac <main_j4+0x210>
80000360:	02d1e663          	bltu	gp,a3,8000038c <main_j4+0x1f0>
80000364:	bde33713          	sltiu	a4,t1,-1058
80000368:	dd88a013          	slti	zero,a7,-552
8000036c:	e5e3fb93          	andi	s7,t2,-418
80000370:	0000100f          	fence.i
80000374:	01431733          	sll	a4,t1,s4
80000378:	00000013          	nop
8000037c:	dd88a013          	slti	zero,a7,-552
80000380:	01808433          	add	s0,ra,s8
80000384:	03950863          	beq	a0,s9,800003b4 <main_j4+0x218>
80000388:	01c45713          	srli	a4,s0,0x1c
8000038c:	0000100f          	fence.i
80000390:	01808433          	add	s0,ra,s8
80000394:	01431733          	sll	a4,t1,s4
80000398:	0140b7b3          	sltu	a5,ra,s4
8000039c:	c66de993          	ori	s3,s11,-922
800003a0:	01c45713          	srli	a4,s0,0x1c
800003a4:	01465bb3          	srl	s7,a2,s4
800003a8:	01465bb3          	srl	s7,a2,s4
800003ac:	41ae0833          	sub	a6,t3,s10
800003b0:	41ae0833          	sub	a6,t3,s10
800003b4:	0140b7b3          	sltu	a5,ra,s4
800003b8:	0140b7b3          	sltu	a5,ra,s4
800003bc:	00d1e863          	bltu	gp,a3,800003cc <main_j4+0x230>
800003c0:	024b7a63          	bgeu	s6,tp,800003f4 <main_j4+0x258>
800003c4:	0140b7b3          	sltu	a5,ra,s4
800003c8:	574a0113          	addi	sp,s4,1396
800003cc:	024b7663          	bgeu	s6,tp,800003f8 <main_j4+0x25c>
800003d0:	4022ddb3          	sra	s11,t0,sp
800003d4:	0ff0000f          	fence
800003d8:	01537533          	and	a0,t1,s5
800003dc:	e4ccbc97          	auipc	s9,0xe4ccb
800003e0:	01c45713          	srli	a4,s0,0x1c
800003e4:	03950463          	beq	a0,s9,8000040c <main_j4+0x270>
800003e8:	dd88a013          	slti	zero,a7,-552
800003ec:	0000100f          	fence.i
800003f0:	41ae0833          	sub	a6,t3,s10
800003f4:	00d09993          	slli	s3,ra,0xd
800003f8:	01c45713          	srli	a4,s0,0x1c
800003fc:	0140b7b3          	sltu	a5,ra,s4
80000400:	01537533          	and	a0,t1,s5
80000404:	574a0113          	addi	sp,s4,1396
80000408:	0141adb3          	slt	s11,gp,s4
8000040c:	bde33713          	sltiu	a4,t1,-1058
80000410:	01d09a63          	bne	ra,t4,80000424 <main_j4+0x288>
80000414:	01c45713          	srli	a4,s0,0x1c
80000418:	0140b7b3          	sltu	a5,ra,s4
8000041c:	08d1e463          	bltu	gp,a3,800004a4 <main_j2+0x10>
80000420:	41ae0833          	sub	a6,t3,s10
80000424:	a08c68b7          	lui	a7,0xa08c6
80000428:	574a0113          	addi	sp,s4,1396
8000042c:	e4ccbc97          	auipc	s9,0xe4ccb
80000430:	41ae0833          	sub	a6,t3,s10
80000434:	00d09993          	slli	s3,ra,0xd
80000438:	07d09463          	bne	ra,t4,800004a0 <main_j2+0xc>
8000043c:	e5a8cb93          	xori	s7,a7,-422
80000440:	0072c133          	xor	sp,t0,t2
80000444:	574a0113          	addi	sp,s4,1396
80000448:	07d09663          	bne	ra,t4,800004b4 <main_j2+0x20>
8000044c:	4022ddb3          	sra	s11,t0,sp
80000450:	c66de993          	ori	s3,s11,-922
80000454:	01808433          	add	s0,ra,s8
80000458:	01c45713          	srli	a4,s0,0x1c
8000045c:	01808433          	add	s0,ra,s8
80000460:	574a0193          	addi	gp,s4,1396
80000464:	0ff0000f          	fence
80000468:	00007117          	auipc	sp,0x7
8000046c:	6dc10113          	addi	sp,sp,1756 # 80007b44 <sub_4>
80000470:	574a0193          	addi	gp,s4,1396
80000474:	27210113          	addi	sp,sp,626
80000478:	e4ccbd17          	auipc	s10,0xe4ccb
8000047c:	0ff0000f          	fence
80000480:	c66dea13          	ori	s4,s11,-922
80000484:	0072c1b3          	xor	gp,t0,t2
80000488:	01c45793          	srli	a5,s0,0x1c
8000048c:	0141ae33          	slt	t3,gp,s4
80000490:	018084b3          	add	s1,ra,s8

80000494 <main_j2>:
80000494:	d8f100e7          	jalr	-625(sp)
80000498:	02d1e263          	bltu	gp,a3,800004bc <main_j2+0x28>
8000049c:	574a0113          	addi	sp,s4,1396
800004a0:	574a0113          	addi	sp,s4,1396
800004a4:	e4ccbc97          	auipc	s9,0xe4ccb
800004a8:	574a0113          	addi	sp,s4,1396
800004ac:	01950863          	beq	a0,s9,800004bc <main_j2+0x28>
800004b0:	0307c863          	blt	a5,a6,800004e0 <main_j2+0x4c>
800004b4:	0140b7b3          	sltu	a5,ra,s4
800004b8:	0141adb3          	slt	s11,gp,s4
800004bc:	574a0113          	addi	sp,s4,1396
800004c0:	0140b7b3          	sltu	a5,ra,s4
800004c4:	0072c133          	xor	sp,t0,t2
800004c8:	0307c063          	blt	a5,a6,800004e8 <main_j2+0x54>
800004cc:	a08c68b7          	lui	a7,0xa08c6
800004d0:	024b7263          	bgeu	s6,tp,800004f4 <main_j2+0x60>
800004d4:	e5e3fb93          	andi	s7,t2,-418
800004d8:	04d1e063          	bltu	gp,a3,80000518 <main_j2+0x84>
800004dc:	01c45713          	srli	a4,s0,0x1c
800004e0:	0000100f          	fence.i
800004e4:	004b7863          	bgeu	s6,tp,800004f4 <main_j2+0x60>
800004e8:	00000013          	nop
800004ec:	a08c68b7          	lui	a7,0xa08c6
800004f0:	e4ccbc97          	auipc	s9,0xe4ccb
800004f4:	019fe0b3          	or	ra,t6,s9
800004f8:	0141adb3          	slt	s11,gp,s4
800004fc:	00d09993          	slli	s3,ra,0xd
80000500:	0072c133          	xor	sp,t0,t2
80000504:	bde33713          	sltiu	a4,t1,-1058
80000508:	03950a63          	beq	a0,s9,8000053c <main_j2+0xa8>
8000050c:	dd88a013          	slti	zero,a7,-552
80000510:	574a0113          	addi	sp,s4,1396
80000514:	4022ddb3          	sra	s11,t0,sp
80000518:	a08c68b7          	lui	a7,0xa08c6
8000051c:	e5e3fb93          	andi	s7,t2,-418
80000520:	01537533          	and	a0,t1,s5
80000524:	c66de993          	ori	s3,s11,-922
80000528:	01465bb3          	srl	s7,a2,s4
8000052c:	4158d193          	srai	gp,a7,0x15
80000530:	41ae0833          	sub	a6,t3,s10
80000534:	056fd063          	bge	t6,s6,80000574 <main_j2+0xe0>
80000538:	e5e3fb93          	andi	s7,t2,-418
8000053c:	0140b7b3          	sltu	a5,ra,s4
80000540:	019fe0b3          	or	ra,t6,s9
80000544:	4158d193          	srai	gp,a7,0x15
80000548:	574a0113          	addi	sp,s4,1396
8000054c:	0507c663          	blt	a5,a6,80000598 <main_j2+0x104>
80000550:	a08c68b7          	lui	a7,0xa08c6
80000554:	05950263          	beq	a0,s9,80000598 <main_j2+0x104>
80000558:	01808433          	add	s0,ra,s8
8000055c:	bde33713          	sltiu	a4,t1,-1058
80000560:	0072c133          	xor	sp,t0,t2
80000564:	0307c463          	blt	a5,a6,8000058c <main_j2+0xf8>
80000568:	01431733          	sll	a4,t1,s4
8000056c:	0140b7b3          	sltu	a5,ra,s4
80000570:	02d1ec63          	bltu	gp,a3,800005a8 <main_j2+0x114>
80000574:	c66de993          	ori	s3,s11,-922
80000578:	004b7463          	bgeu	s6,tp,80000580 <main_j2+0xec>
8000057c:	024b7663          	bgeu	s6,tp,800005a8 <main_j2+0x114>
80000580:	016fde63          	bge	t6,s6,8000059c <main_j2+0x108>
80000584:	024b7863          	bgeu	s6,tp,800005b4 <main_j2+0x120>
80000588:	00000013          	nop
8000058c:	0000100f          	fence.i
80000590:	03d09663          	bne	ra,t4,800005bc <main_j2+0x128>
80000594:	e5a8cb93          	xori	s7,a7,-422
80000598:	bde33713          	sltiu	a4,t1,-1058
8000059c:	0140b7b3          	sltu	a5,ra,s4
800005a0:	e5e3fb93          	andi	s7,t2,-418
800005a4:	e5e3fb93          	andi	s7,t2,-418
800005a8:	0141adb3          	slt	s11,gp,s4
800005ac:	bde33713          	sltiu	a4,t1,-1058
800005b0:	019fe0b3          	or	ra,t6,s9
800005b4:	4022ddb3          	sra	s11,t0,sp
800005b8:	0140b7b3          	sltu	a5,ra,s4
800005bc:	00d09993          	slli	s3,ra,0xd
800005c0:	01465bb3          	srl	s7,a2,s4
800005c4:	01808433          	add	s0,ra,s8
800005c8:	4158d193          	srai	gp,a7,0x15
800005cc:	e5e3fb93          	andi	s7,t2,-418
800005d0:	0ff0000f          	fence
800005d4:	0507c863          	blt	a5,a6,80000624 <main_j2+0x190>
800005d8:	036fd863          	bge	t6,s6,80000608 <main_j2+0x174>
800005dc:	01465bb3          	srl	s7,a2,s4
800005e0:	0072c133          	xor	sp,t0,t2
800005e4:	04d1e063          	bltu	gp,a3,80000624 <main_j2+0x190>
800005e8:	0072c133          	xor	sp,t0,t2
800005ec:	019fe0b3          	or	ra,t6,s9
800005f0:	a08c68b7          	lui	a7,0xa08c6
800005f4:	019fe0b3          	or	ra,t6,s9
800005f8:	03950a63          	beq	a0,s9,8000062c <main_j2+0x198>
800005fc:	04d1e863          	bltu	gp,a3,8000064c <main_j2+0x1b8>
80000600:	c66de993          	ori	s3,s11,-922
80000604:	00000013          	nop
80000608:	0507c663          	blt	a5,a6,80000654 <main_j2+0x1c0>
8000060c:	a08c68b7          	lui	a7,0xa08c6
80000610:	05d09063          	bne	ra,t4,80000650 <main_j2+0x1bc>
80000614:	01950863          	beq	a0,s9,80000624 <main_j2+0x190>
80000618:	4022ddb3          	sra	s11,t0,sp
8000061c:	00d09993          	slli	s3,ra,0xd
80000620:	01c45713          	srli	a4,s0,0x1c
80000624:	0141adb3          	slt	s11,gp,s4
80000628:	01c45713          	srli	a4,s0,0x1c
8000062c:	036fd863          	bge	t6,s6,8000065c <main_j2+0x1c8>
80000630:	dd88a013          	slti	zero,a7,-552
80000634:	e4ccbc97          	auipc	s9,0xe4ccb
80000638:	4022ddb3          	sra	s11,t0,sp
8000063c:	0072c133          	xor	sp,t0,t2
80000640:	019fe0b3          	or	ra,t6,s9
80000644:	0140b7b3          	sltu	a5,ra,s4
80000648:	01808433          	add	s0,ra,s8
8000064c:	4022ddb3          	sra	s11,t0,sp
80000650:	e4ccbc97          	auipc	s9,0xe4ccb
80000654:	4158d193          	srai	gp,a7,0x15
80000658:	e4ccbc97          	auipc	s9,0xe4ccb
8000065c:	02d1e063          	bltu	gp,a3,8000067c <main_j2+0x1e8>
80000660:	bde33713          	sltiu	a4,t1,-1058
80000664:	01431733          	sll	a4,t1,s4
80000668:	4022ddb3          	sra	s11,t0,sp
8000066c:	01431733          	sll	a4,t1,s4
80000670:	0107c863          	blt	a5,a6,80000680 <main_j2+0x1ec>
80000674:	01c45713          	srli	a4,s0,0x1c
80000678:	e5e3fb93          	andi	s7,t2,-418
8000067c:	016fde63          	bge	t6,s6,80000698 <main_j2+0x204>
80000680:	e4ccbc97          	auipc	s9,0xe4ccb
80000684:	c66de993          	ori	s3,s11,-922
80000688:	bde33713          	sltiu	a4,t1,-1058
8000068c:	41ae0833          	sub	a6,t3,s10
80000690:	01431733          	sll	a4,t1,s4
80000694:	0307c863          	blt	a5,a6,800006c4 <main_j2+0x230>
80000698:	0000100f          	fence.i
8000069c:	01465bb3          	srl	s7,a2,s4
800006a0:	00d09993          	slli	s3,ra,0xd
800006a4:	0ff0000f          	fence
800006a8:	0140b7b3          	sltu	a5,ra,s4
800006ac:	41ae0833          	sub	a6,t3,s10
800006b0:	01465bb3          	srl	s7,a2,s4
800006b4:	574a0113          	addi	sp,s4,1396
800006b8:	e4ccbc97          	auipc	s9,0xe4ccb
800006bc:	024b7a63          	bgeu	s6,tp,800006f0 <main_j2+0x25c>
800006c0:	c66de993          	ori	s3,s11,-922
800006c4:	0107c863          	blt	a5,a6,800006d4 <main_j2+0x240>
800006c8:	0107ca63          	blt	a5,a6,800006dc <main_j2+0x248>
800006cc:	e4ccbc97          	auipc	s9,0xe4ccb
800006d0:	0141adb3          	slt	s11,gp,s4
800006d4:	01950463          	beq	a0,s9,800006dc <main_j2+0x248>
800006d8:	019fe0b3          	or	ra,t6,s9
800006dc:	e4ccbc97          	auipc	s9,0xe4ccb
800006e0:	0307c263          	blt	a5,a6,80000704 <main_j2+0x270>
800006e4:	01808433          	add	s0,ra,s8
800006e8:	0141adb3          	slt	s11,gp,s4
800006ec:	e5e3fb93          	andi	s7,t2,-418
800006f0:	0140b7b3          	sltu	a5,ra,s4
800006f4:	019fe0b3          	or	ra,t6,s9
800006f8:	01431733          	sll	a4,t1,s4
800006fc:	036fd863          	bge	t6,s6,8000072c <main_j2+0x298>
80000700:	a08c68b7          	lui	a7,0xa08c6
80000704:	0000100f          	fence.i
80000708:	0507c863          	blt	a5,a6,80000758 <main_j2+0x2c4>
8000070c:	01465bb3          	srl	s7,a2,s4
80000710:	01465bb3          	srl	s7,a2,s4
80000714:	0141adb3          	slt	s11,gp,s4
80000718:	0000100f          	fence.i
8000071c:	e4ccbc97          	auipc	s9,0xe4ccb
80000720:	02d1ea63          	bltu	gp,a3,80000754 <main_j2+0x2c0>
80000724:	036fda63          	bge	t6,s6,80000758 <main_j2+0x2c4>
80000728:	a08c68b7          	lui	a7,0xa08c6
8000072c:	0140b7b3          	sltu	a5,ra,s4
80000730:	01465bb3          	srl	s7,a2,s4
80000734:	03d09663          	bne	ra,t4,80000760 <main_j2+0x2cc>
80000738:	e4ccbc97          	auipc	s9,0xe4ccb
8000073c:	4158d193          	srai	gp,a7,0x15
80000740:	e4ccbc97          	auipc	s9,0xe4ccb
80000744:	4158d193          	srai	gp,a7,0x15
80000748:	a08c68b7          	lui	a7,0xa08c6
8000074c:	0307c663          	blt	a5,a6,80000778 <main_j2+0x2e4>
80000750:	03950663          	beq	a0,s9,8000077c <main_j2+0x2e8>
80000754:	01431733          	sll	a4,t1,s4
80000758:	04d1e063          	bltu	gp,a3,80000798 <main_j2+0x304>
8000075c:	019fe0b3          	or	ra,t6,s9
80000760:	0ff0000f          	fence
80000764:	4158d193          	srai	gp,a7,0x15
80000768:	01537533          	and	a0,t1,s5
8000076c:	01431733          	sll	a4,t1,s4
80000770:	03d09863          	bne	ra,t4,800007a0 <main_j2+0x30c>
80000774:	0140b7b3          	sltu	a5,ra,s4
80000778:	0141adb3          	slt	s11,gp,s4
8000077c:	bde33713          	sltiu	a4,t1,-1058
80000780:	41ae0833          	sub	a6,t3,s10
80000784:	0141adb3          	slt	s11,gp,s4
80000788:	0140b7b3          	sltu	a5,ra,s4
8000078c:	e5a8cb93          	xori	s7,a7,-422
80000790:	4158d193          	srai	gp,a7,0x15
80000794:	0ff0000f          	fence
80000798:	0141adb3          	slt	s11,gp,s4
8000079c:	019fe0b3          	or	ra,t6,s9
800007a0:	e5a8cb93          	xori	s7,a7,-422
800007a4:	0000100f          	fence.i
800007a8:	0507c063          	blt	a5,a6,800007e8 <main_j2+0x354>
800007ac:	00000013          	nop
800007b0:	0140b7b3          	sltu	a5,ra,s4
800007b4:	bde33713          	sltiu	a4,t1,-1058
800007b8:	e5a8cb93          	xori	s7,a7,-422
800007bc:	036fdc63          	bge	t6,s6,800007f4 <main_j2+0x360>
800007c0:	019fe0b3          	or	ra,t6,s9
800007c4:	0141adb3          	slt	s11,gp,s4
800007c8:	4158d193          	srai	gp,a7,0x15
800007cc:	c66de993          	ori	s3,s11,-922
800007d0:	4022ddb3          	sra	s11,t0,sp
800007d4:	03d09263          	bne	ra,t4,800007f8 <main_j2+0x364>
800007d8:	bde33713          	sltiu	a4,t1,-1058
800007dc:	0141adb3          	slt	s11,gp,s4
800007e0:	01c45713          	srli	a4,s0,0x1c
800007e4:	a08c68b7          	lui	a7,0xa08c6
800007e8:	01808433          	add	s0,ra,s8
800007ec:	0072c133          	xor	sp,t0,t2
800007f0:	0307c463          	blt	a5,a6,80000818 <main_j2+0x384>
800007f4:	0000100f          	fence.i
800007f8:	01537533          	and	a0,t1,s5
800007fc:	e4ccbc97          	auipc	s9,0xe4ccb
80000800:	02d1e463          	bltu	gp,a3,80000828 <main_j2+0x394>
80000804:	04d1e263          	bltu	gp,a3,80000848 <main_j2+0x3b4>
80000808:	00000013          	nop
8000080c:	03d09a63          	bne	ra,t4,80000840 <main_j2+0x3ac>
80000810:	036fda63          	bge	t6,s6,80000844 <main_j2+0x3b0>
80000814:	574a0113          	addi	sp,s4,1396
80000818:	e5a8cb93          	xori	s7,a7,-422
8000081c:	0307c663          	blt	a5,a6,80000848 <main_j2+0x3b4>
80000820:	02d1e663          	bltu	gp,a3,8000084c <main_j2+0x3b8>
80000824:	019fe0b3          	or	ra,t6,s9
80000828:	019fe0b3          	or	ra,t6,s9
8000082c:	06d1e663          	bltu	gp,a3,80000898 <main_j5+0x1c>
80000830:	dd88a013          	slti	zero,a7,-552
80000834:	00d09993          	slli	s3,ra,0xd
80000838:	0141adb3          	slt	s11,gp,s4
8000083c:	01808433          	add	s0,ra,s8
80000840:	0072c133          	xor	sp,t0,t2
80000844:	41ae0833          	sub	a6,t3,s10
80000848:	06d1ee63          	bltu	gp,a3,800008c4 <main_j5+0x48>
8000084c:	0707c063          	blt	a5,a6,800008ac <main_j5+0x30>
80000850:	01c45713          	srli	a4,s0,0x1c
80000854:	e5a8cb93          	xori	s7,a7,-422
80000858:	4022ddb3          	sra	s11,t0,sp
8000085c:	0140b7b3          	sltu	a5,ra,s4
80000860:	01537533          	and	a0,t1,s5
80000864:	574a0113          	addi	sp,s4,1396
80000868:	00001e97          	auipc	t4,0x1
8000086c:	4dce8e93          	addi	t4,t4,1244 # 80001d44 <sub_1>
80000870:	27ce8e93          	addi	t4,t4,636
80000874:	574a0113          	addi	sp,s4,1396
80000878:	41ae0833          	sub	a6,t3,s10

8000087c <main_j5>:
8000087c:	d85e80e7          	jalr	-635(t4)
80000880:	01808433          	add	s0,ra,s8
80000884:	a08c68b7          	lui	a7,0xa08c6
80000888:	4022ddb3          	sra	s11,t0,sp
8000088c:	01537533          	and	a0,t1,s5
80000890:	01465bb3          	srl	s7,a2,s4
80000894:	01808433          	add	s0,ra,s8
80000898:	01465bb3          	srl	s7,a2,s4
8000089c:	574a0113          	addi	sp,s4,1396
800008a0:	0ff0000f          	fence
800008a4:	a08c68b7          	lui	a7,0xa08c6
800008a8:	044b7863          	bgeu	s6,tp,800008f8 <main_j5+0x7c>
800008ac:	03950863          	beq	a0,s9,800008dc <main_j5+0x60>
800008b0:	c66de993          	ori	s3,s11,-922
800008b4:	01950863          	beq	a0,s9,800008c4 <main_j5+0x48>
800008b8:	00000013          	nop
800008bc:	01c45713          	srli	a4,s0,0x1c
800008c0:	41ae0833          	sub	a6,t3,s10
800008c4:	e5e3fb93          	andi	s7,t2,-418
800008c8:	01465bb3          	srl	s7,a2,s4
800008cc:	00d09993          	slli	s3,ra,0xd
800008d0:	e5a8cb93          	xori	s7,a7,-422
800008d4:	e4ccbc97          	auipc	s9,0xe4ccb
800008d8:	00000013          	nop
800008dc:	0107ce63          	blt	a5,a6,800008f8 <main_j5+0x7c>
800008e0:	019fe0b3          	or	ra,t6,s9
800008e4:	01431733          	sll	a4,t1,s4
800008e8:	a08c68b7          	lui	a7,0xa08c6
800008ec:	0000100f          	fence.i
800008f0:	0140b7b3          	sltu	a5,ra,s4
800008f4:	00000013          	nop
800008f8:	03950a63          	beq	a0,s9,8000092c <main_j5+0xb0>
800008fc:	0507c063          	blt	a5,a6,8000093c <main_j5+0xc0>
80000900:	01c45713          	srli	a4,s0,0x1c
80000904:	01431733          	sll	a4,t1,s4
80000908:	0141adb3          	slt	s11,gp,s4
8000090c:	00000013          	nop
80000910:	dd88a013          	slti	zero,a7,-552
80000914:	0072c133          	xor	sp,t0,t2
80000918:	0000100f          	fence.i
8000091c:	bde33713          	sltiu	a4,t1,-1058
80000920:	01431733          	sll	a4,t1,s4
80000924:	e5a8cb93          	xori	s7,a7,-422
80000928:	e4ccbc97          	auipc	s9,0xe4ccb
8000092c:	e5e3fb93          	andi	s7,t2,-418
80000930:	024b7263          	bgeu	s6,tp,80000954 <main_j5+0xd8>
80000934:	0072c133          	xor	sp,t0,t2
80000938:	0107ca63          	blt	a5,a6,8000094c <main_j5+0xd0>
8000093c:	056fd263          	bge	t6,s6,80000980 <main_j5+0x104>
80000940:	e5e3fb93          	andi	s7,t2,-418
80000944:	0000100f          	fence.i
80000948:	004b7463          	bgeu	s6,tp,80000950 <main_j5+0xd4>
8000094c:	01465bb3          	srl	s7,a2,s4
80000950:	00d09993          	slli	s3,ra,0xd
80000954:	00d09993          	slli	s3,ra,0xd
80000958:	0072c133          	xor	sp,t0,t2
8000095c:	e5a8cb93          	xori	s7,a7,-422
80000960:	bde33713          	sltiu	a4,t1,-1058
80000964:	4158d193          	srai	gp,a7,0x15
80000968:	a08c68b7          	lui	a7,0xa08c6
8000096c:	e4ccbc97          	auipc	s9,0xe4ccb
80000970:	0141adb3          	slt	s11,gp,s4
80000974:	0140b7b3          	sltu	a5,ra,s4
80000978:	4022ddb3          	sra	s11,t0,sp
8000097c:	05d09063          	bne	ra,t4,800009bc <main_j5+0x140>
80000980:	01431733          	sll	a4,t1,s4
80000984:	024b7863          	bgeu	s6,tp,800009b4 <main_j5+0x138>
80000988:	41ae0833          	sub	a6,t3,s10
8000098c:	02d1e663          	bltu	gp,a3,800009b8 <main_j5+0x13c>
80000990:	01808433          	add	s0,ra,s8
80000994:	0072c133          	xor	sp,t0,t2
80000998:	0000100f          	fence.i
8000099c:	01537533          	and	a0,t1,s5
800009a0:	02d1ea63          	bltu	gp,a3,800009d4 <main_j5+0x158>
800009a4:	019fe0b3          	or	ra,t6,s9
800009a8:	574a0113          	addi	sp,s4,1396
800009ac:	0140b7b3          	sltu	a5,ra,s4
800009b0:	00000013          	nop
800009b4:	00000013          	nop
800009b8:	0ff0000f          	fence
800009bc:	574a0113          	addi	sp,s4,1396
800009c0:	a08c68b7          	lui	a7,0xa08c6
800009c4:	c66de993          	ori	s3,s11,-922
800009c8:	02d1e263          	bltu	gp,a3,800009ec <main_j5+0x170>
800009cc:	024b7463          	bgeu	s6,tp,800009f4 <main_j5+0x178>
800009d0:	02d1e863          	bltu	gp,a3,80000a00 <main_j5+0x184>
800009d4:	0ff0000f          	fence
800009d8:	05d09663          	bne	ra,t4,80000a24 <main_j5+0x1a8>
800009dc:	01465bb3          	srl	s7,a2,s4
800009e0:	0140b7b3          	sltu	a5,ra,s4
800009e4:	0ff0000f          	fence
800009e8:	01808433          	add	s0,ra,s8
800009ec:	01808433          	add	s0,ra,s8
800009f0:	574a0113          	addi	sp,s4,1396
800009f4:	01d09863          	bne	ra,t4,80000a04 <main_j5+0x188>
800009f8:	0072c133          	xor	sp,t0,t2
800009fc:	01950863          	beq	a0,s9,80000a0c <main_j5+0x190>
80000a00:	0ff0000f          	fence
80000a04:	4158d193          	srai	gp,a7,0x15
80000a08:	01465bb3          	srl	s7,a2,s4
80000a0c:	03d09063          	bne	ra,t4,80000a2c <main_j5+0x1b0>
80000a10:	03d09463          	bne	ra,t4,80000a38 <main_j5+0x1bc>
80000a14:	0ff0000f          	fence
80000a18:	dd88a013          	slti	zero,a7,-552
80000a1c:	03950863          	beq	a0,s9,80000a4c <main_j5+0x1d0>
80000a20:	00000013          	nop
80000a24:	a08c68b7          	lui	a7,0xa08c6
80000a28:	01537533          	and	a0,t1,s5
80000a2c:	019fe0b3          	or	ra,t6,s9
80000a30:	00000013          	nop
80000a34:	036fdc63          	bge	t6,s6,80000a6c <main_j5+0x1f0>
80000a38:	01c45713          	srli	a4,s0,0x1c
80000a3c:	01537533          	and	a0,t1,s5
80000a40:	574a0113          	addi	sp,s4,1396
80000a44:	dd88a013          	slti	zero,a7,-552
80000a48:	e5e3fb93          	andi	s7,t2,-418
80000a4c:	00000013          	nop
80000a50:	e4ccbc97          	auipc	s9,0xe4ccb
80000a54:	0072c133          	xor	sp,t0,t2
80000a58:	01d09a63          	bne	ra,t4,80000a6c <main_j5+0x1f0>
80000a5c:	4022ddb3          	sra	s11,t0,sp
80000a60:	01537533          	and	a0,t1,s5
80000a64:	c66de993          	ori	s3,s11,-922
80000a68:	01465bb3          	srl	s7,a2,s4
80000a6c:	03950a63          	beq	a0,s9,80000aa0 <main_j5+0x224>
80000a70:	01537533          	and	a0,t1,s5
80000a74:	01c45713          	srli	a4,s0,0x1c
80000a78:	024b7263          	bgeu	s6,tp,80000a9c <main_j5+0x220>
80000a7c:	01c45713          	srli	a4,s0,0x1c
80000a80:	e5e3fb93          	andi	s7,t2,-418
80000a84:	bde33713          	sltiu	a4,t1,-1058
80000a88:	024b7863          	bgeu	s6,tp,80000ab8 <main_j5+0x23c>
80000a8c:	01808433          	add	s0,ra,s8
80000a90:	e5a8cb93          	xori	s7,a7,-422
80000a94:	01808433          	add	s0,ra,s8
80000a98:	01431733          	sll	a4,t1,s4
80000a9c:	01808433          	add	s0,ra,s8
80000aa0:	044b7663          	bgeu	s6,tp,80000aec <main_j5+0x270>
80000aa4:	01465bb3          	srl	s7,a2,s4
80000aa8:	056fd063          	bge	t6,s6,80000ae8 <main_j5+0x26c>
80000aac:	0107c863          	blt	a5,a6,80000abc <main_j5+0x240>
80000ab0:	01c45713          	srli	a4,s0,0x1c
80000ab4:	0000100f          	fence.i
80000ab8:	c66de993          	ori	s3,s11,-922
80000abc:	0141adb3          	slt	s11,gp,s4
80000ac0:	00d09993          	slli	s3,ra,0xd
80000ac4:	024b7c63          	bgeu	s6,tp,80000afc <main_j5+0x280>
80000ac8:	044b7263          	bgeu	s6,tp,80000b0c <main_j5+0x290>
80000acc:	e5e3fb93          	andi	s7,t2,-418
80000ad0:	019fe0b3          	or	ra,t6,s9
80000ad4:	0ff0000f          	fence
80000ad8:	00d09993          	slli	s3,ra,0xd
80000adc:	00d09993          	slli	s3,ra,0xd
80000ae0:	02d1e663          	bltu	gp,a3,80000b0c <main_j5+0x290>
80000ae4:	019fe0b3          	or	ra,t6,s9
80000ae8:	04d1e863          	bltu	gp,a3,80000b38 <main_j5+0x2bc>
80000aec:	0072c133          	xor	sp,t0,t2
80000af0:	574a0113          	addi	sp,s4,1396
80000af4:	c66de993          	ori	s3,s11,-922
80000af8:	a08c68b7          	lui	a7,0xa08c6
80000afc:	41ae0833          	sub	a6,t3,s10
80000b00:	41ae0833          	sub	a6,t3,s10
80000b04:	019fe0b3          	or	ra,t6,s9
80000b08:	03d09a63          	bne	ra,t4,80000b3c <main_j5+0x2c0>
80000b0c:	e5a8cb93          	xori	s7,a7,-422
80000b10:	574a0113          	addi	sp,s4,1396
80000b14:	0141adb3          	slt	s11,gp,s4
80000b18:	01465bb3          	srl	s7,a2,s4
80000b1c:	0141adb3          	slt	s11,gp,s4
80000b20:	024b7863          	bgeu	s6,tp,80000b50 <main_j5+0x2d4>
80000b24:	04d1e063          	bltu	gp,a3,80000b64 <main_j5+0x2e8>
80000b28:	574a0113          	addi	sp,s4,1396
80000b2c:	01537533          	and	a0,t1,s5
80000b30:	41ae0833          	sub	a6,t3,s10
80000b34:	a08c68b7          	lui	a7,0xa08c6
80000b38:	e4ccbc97          	auipc	s9,0xe4ccb
80000b3c:	0072c133          	xor	sp,t0,t2
80000b40:	0072c133          	xor	sp,t0,t2
80000b44:	00d1ee63          	bltu	gp,a3,80000b60 <main_j5+0x2e4>
80000b48:	41ae0833          	sub	a6,t3,s10
80000b4c:	0140b7b3          	sltu	a5,ra,s4
80000b50:	0140b7b3          	sltu	a5,ra,s4
80000b54:	0ff0000f          	fence
80000b58:	0107c863          	blt	a5,a6,80000b68 <main_j5+0x2ec>
80000b5c:	bde33713          	sltiu	a4,t1,-1058
80000b60:	bde33713          	sltiu	a4,t1,-1058
80000b64:	0072c133          	xor	sp,t0,t2
80000b68:	01c45713          	srli	a4,s0,0x1c
80000b6c:	574a0113          	addi	sp,s4,1396
80000b70:	e4ccbc97          	auipc	s9,0xe4ccb
80000b74:	00000013          	nop
80000b78:	a08c68b7          	lui	a7,0xa08c6
80000b7c:	4158d193          	srai	gp,a7,0x15
80000b80:	01537533          	and	a0,t1,s5
80000b84:	0141adb3          	slt	s11,gp,s4
80000b88:	01431733          	sll	a4,t1,s4
80000b8c:	02d1e463          	bltu	gp,a3,80000bb4 <main_j5+0x338>
80000b90:	41ae0833          	sub	a6,t3,s10
80000b94:	c66de993          	ori	s3,s11,-922
80000b98:	01465bb3          	srl	s7,a2,s4
80000b9c:	41ae0833          	sub	a6,t3,s10
80000ba0:	0140b7b3          	sltu	a5,ra,s4
80000ba4:	01465bb3          	srl	s7,a2,s4
80000ba8:	0000100f          	fence.i
80000bac:	01431733          	sll	a4,t1,s4
80000bb0:	574a0113          	addi	sp,s4,1396
80000bb4:	016fd863          	bge	t6,s6,80000bc4 <main_j5+0x348>
80000bb8:	4158d193          	srai	gp,a7,0x15
80000bbc:	00000013          	nop
80000bc0:	e5a8cb93          	xori	s7,a7,-422
80000bc4:	4022ddb3          	sra	s11,t0,sp
80000bc8:	a08c68b7          	lui	a7,0xa08c6
80000bcc:	a08c68b7          	lui	a7,0xa08c6
80000bd0:	00d09993          	slli	s3,ra,0xd
80000bd4:	00000013          	nop
80000bd8:	044b7063          	bgeu	s6,tp,80000c18 <main_j5+0x39c>
80000bdc:	0072c133          	xor	sp,t0,t2
80000be0:	c66de993          	ori	s3,s11,-922
80000be4:	036fda63          	bge	t6,s6,80000c18 <main_j5+0x39c>
80000be8:	024b7663          	bgeu	s6,tp,80000c14 <main_j5+0x398>
80000bec:	dd88a013          	slti	zero,a7,-552
80000bf0:	574a0113          	addi	sp,s4,1396
80000bf4:	0ff0000f          	fence
80000bf8:	0140b7b3          	sltu	a5,ra,s4
80000bfc:	e5a8cb93          	xori	s7,a7,-422
80000c00:	0072c133          	xor	sp,t0,t2
80000c04:	c66de993          	ori	s3,s11,-922
80000c08:	00000013          	nop
80000c0c:	0307ca63          	blt	a5,a6,80000c40 <main_j5+0x3c4>
80000c10:	c66de993          	ori	s3,s11,-922
80000c14:	e4ccbc97          	auipc	s9,0xe4ccb
80000c18:	bde33713          	sltiu	a4,t1,-1058
80000c1c:	019fe0b3          	or	ra,t6,s9
80000c20:	044b7863          	bgeu	s6,tp,80000c70 <main_j5+0x3f4>
80000c24:	4022ddb3          	sra	s11,t0,sp
80000c28:	0141adb3          	slt	s11,gp,s4
80000c2c:	00000013          	nop
80000c30:	03d09063          	bne	ra,t4,80000c50 <main_j5+0x3d4>
80000c34:	03d09463          	bne	ra,t4,80000c5c <main_j5+0x3e0>
80000c38:	01431733          	sll	a4,t1,s4
80000c3c:	02d1e663          	bltu	gp,a3,80000c68 <main_j5+0x3ec>
80000c40:	4022ddb3          	sra	s11,t0,sp
80000c44:	0307c863          	blt	a5,a6,80000c74 <main_j5+0x3f8>
80000c48:	0107c463          	blt	a5,a6,80000c50 <main_j5+0x3d4>
80000c4c:	0072c133          	xor	sp,t0,t2
80000c50:	0072c133          	xor	sp,t0,t2
80000c54:	574a0113          	addi	sp,s4,1396
80000c58:	01465bb3          	srl	s7,a2,s4
80000c5c:	019fe0b3          	or	ra,t6,s9
80000c60:	0ff0000f          	fence
80000c64:	e5e3fb93          	andi	s7,t2,-418
80000c68:	01431733          	sll	a4,t1,s4
80000c6c:	0ff0000f          	fence
80000c70:	e5a8cb93          	xori	s7,a7,-422
80000c74:	4022ddb3          	sra	s11,t0,sp
80000c78:	03d09863          	bne	ra,t4,80000ca8 <main_j5+0x42c>
80000c7c:	0072c133          	xor	sp,t0,t2
80000c80:	4022ddb3          	sra	s11,t0,sp
80000c84:	41ae0833          	sub	a6,t3,s10
80000c88:	00000013          	nop
80000c8c:	4158d193          	srai	gp,a7,0x15
80000c90:	01431733          	sll	a4,t1,s4
80000c94:	4158d193          	srai	gp,a7,0x15
80000c98:	00d09993          	slli	s3,ra,0xd
80000c9c:	02d1e263          	bltu	gp,a3,80000cc0 <main_j5+0x444>
80000ca0:	0140b7b3          	sltu	a5,ra,s4
80000ca4:	0000100f          	fence.i
80000ca8:	e5e3fb93          	andi	s7,t2,-418
80000cac:	0141adb3          	slt	s11,gp,s4
80000cb0:	05d09863          	bne	ra,t4,80000d00 <main_j5+0x484>
80000cb4:	0141adb3          	slt	s11,gp,s4
80000cb8:	044b7063          	bgeu	s6,tp,80000cf8 <main_j5+0x47c>
80000cbc:	01808433          	add	s0,ra,s8
80000cc0:	0307c463          	blt	a5,a6,80000ce8 <main_j5+0x46c>
80000cc4:	dd88a013          	slti	zero,a7,-552
80000cc8:	0141adb3          	slt	s11,gp,s4
80000ccc:	00000013          	nop
80000cd0:	03d09263          	bne	ra,t4,80000cf4 <main_j5+0x478>
80000cd4:	e5e3fb93          	andi	s7,t2,-418
80000cd8:	01950463          	beq	a0,s9,80000ce0 <main_j5+0x464>
80000cdc:	056fd063          	bge	t6,s6,80000d1c <main_j5+0x4a0>
80000ce0:	01537533          	and	a0,t1,s5
80000ce4:	024b7863          	bgeu	s6,tp,80000d14 <main_j5+0x498>
80000ce8:	dd88a013          	slti	zero,a7,-552
80000cec:	e4ccbc97          	auipc	s9,0xe4ccb
80000cf0:	bde33713          	sltiu	a4,t1,-1058
80000cf4:	00d09993          	slli	s3,ra,0xd
80000cf8:	01c45713          	srli	a4,s0,0x1c
80000cfc:	036fd263          	bge	t6,s6,80000d20 <main_j5+0x4a4>
80000d00:	0140b7b3          	sltu	a5,ra,s4
80000d04:	e5a8cb93          	xori	s7,a7,-422
80000d08:	01431733          	sll	a4,t1,s4
80000d0c:	02d1e863          	bltu	gp,a3,80000d3c <main_j5+0x4c0>
80000d10:	4022ddb3          	sra	s11,t0,sp
80000d14:	01808433          	add	s0,ra,s8
80000d18:	00000013          	nop
80000d1c:	41ae0833          	sub	a6,t3,s10
80000d20:	01431733          	sll	a4,t1,s4
80000d24:	0072c133          	xor	sp,t0,t2
80000d28:	01808433          	add	s0,ra,s8
80000d2c:	01c45713          	srli	a4,s0,0x1c
80000d30:	056fd663          	bge	t6,s6,80000d7c <main_j5+0x500>
80000d34:	4022ddb3          	sra	s11,t0,sp
80000d38:	02d1e863          	bltu	gp,a3,80000d68 <main_j5+0x4ec>
80000d3c:	01950863          	beq	a0,s9,80000d4c <main_j5+0x4d0>
80000d40:	01431733          	sll	a4,t1,s4
80000d44:	4022ddb3          	sra	s11,t0,sp
80000d48:	00d09993          	slli	s3,ra,0xd
80000d4c:	0000100f          	fence.i
80000d50:	dd88a013          	slti	zero,a7,-552
80000d54:	0140b7b3          	sltu	a5,ra,s4
80000d58:	019fe0b3          	or	ra,t6,s9
80000d5c:	01d09a63          	bne	ra,t4,80000d70 <main_j5+0x4f4>
80000d60:	4022ddb3          	sra	s11,t0,sp
80000d64:	01537533          	and	a0,t1,s5
80000d68:	0307cc63          	blt	a5,a6,80000da0 <main_j5+0x524>
80000d6c:	01808433          	add	s0,ra,s8
80000d70:	03950a63          	beq	a0,s9,80000da4 <main_j5+0x528>
80000d74:	574a0113          	addi	sp,s4,1396
80000d78:	036fda63          	bge	t6,s6,80000dac <main_j5+0x530>
80000d7c:	05950863          	beq	a0,s9,80000dcc <main_j5+0x550>
80000d80:	dd88a013          	slti	zero,a7,-552
80000d84:	e4ccbc97          	auipc	s9,0xe4ccb
80000d88:	bde33713          	sltiu	a4,t1,-1058
80000d8c:	016fd863          	bge	t6,s6,80000d9c <main_j5+0x520>
80000d90:	4158d193          	srai	gp,a7,0x15
80000d94:	016fd863          	bge	t6,s6,80000da4 <main_j5+0x528>
80000d98:	02d1e663          	bltu	gp,a3,80000dc4 <main_j5+0x548>
80000d9c:	036fd663          	bge	t6,s6,80000dc8 <main_j5+0x54c>
80000da0:	c66de993          	ori	s3,s11,-922
80000da4:	00000013          	nop
80000da8:	4158d193          	srai	gp,a7,0x15
80000dac:	00d09993          	slli	s3,ra,0xd
80000db0:	01431733          	sll	a4,t1,s4
80000db4:	044b7063          	bgeu	s6,tp,80000df4 <main_j5+0x578>
80000db8:	0140b7b3          	sltu	a5,ra,s4
80000dbc:	00000013          	nop
80000dc0:	c66de993          	ori	s3,s11,-922
80000dc4:	024b7663          	bgeu	s6,tp,80000df0 <main_j5+0x574>
80000dc8:	e5a8cb93          	xori	s7,a7,-422
80000dcc:	bde33713          	sltiu	a4,t1,-1058
80000dd0:	00d09993          	slli	s3,ra,0xd
80000dd4:	02d1ea63          	bltu	gp,a3,80000e08 <main_j5+0x58c>
80000dd8:	024b7a63          	bgeu	s6,tp,80000e0c <main_j5+0x590>
80000ddc:	0000100f          	fence.i
80000de0:	01465bb3          	srl	s7,a2,s4
80000de4:	4022ddb3          	sra	s11,t0,sp
80000de8:	0141adb3          	slt	s11,gp,s4
80000dec:	03950063          	beq	a0,s9,80000e0c <main_j5+0x590>
80000df0:	01808433          	add	s0,ra,s8
80000df4:	574a0113          	addi	sp,s4,1396
80000df8:	01431733          	sll	a4,t1,s4
80000dfc:	0307c463          	blt	a5,a6,80000e24 <main_j5+0x5a8>
80000e00:	0141adb3          	slt	s11,gp,s4
80000e04:	0307c863          	blt	a5,a6,80000e34 <main_j5+0x5b8>
80000e08:	4022ddb3          	sra	s11,t0,sp
80000e0c:	019fe0b3          	or	ra,t6,s9
80000e10:	4022ddb3          	sra	s11,t0,sp
80000e14:	01c45713          	srli	a4,s0,0x1c
80000e18:	0140b7b3          	sltu	a5,ra,s4
80000e1c:	01808433          	add	s0,ra,s8
80000e20:	c66de993          	ori	s3,s11,-922
80000e24:	05d09263          	bne	ra,t4,80000e68 <main_j5+0x5ec>
80000e28:	01d09e63          	bne	ra,t4,80000e44 <main_j5+0x5c8>
80000e2c:	a08c68b7          	lui	a7,0xa08c6
80000e30:	dd88a013          	slti	zero,a7,-552
80000e34:	01431733          	sll	a4,t1,s4
80000e38:	00000013          	nop
80000e3c:	0ff0000f          	fence
80000e40:	4022ddb3          	sra	s11,t0,sp
80000e44:	044b7063          	bgeu	s6,tp,80000e84 <main_j5+0x608>
80000e48:	01431733          	sll	a4,t1,s4
80000e4c:	04d1e263          	bltu	gp,a3,80000e90 <main_j5+0x614>
80000e50:	bde33713          	sltiu	a4,t1,-1058
80000e54:	e4ccbc97          	auipc	s9,0xe4ccb
80000e58:	004b7463          	bgeu	s6,tp,80000e60 <main_j5+0x5e4>
80000e5c:	e5a8cb93          	xori	s7,a7,-422
80000e60:	0072c133          	xor	sp,t0,t2
80000e64:	a08c68b7          	lui	a7,0xa08c6
80000e68:	e5a8cb93          	xori	s7,a7,-422
80000e6c:	0307c263          	blt	a5,a6,80000e90 <main_j5+0x614>
80000e70:	01431733          	sll	a4,t1,s4
80000e74:	044b7863          	bgeu	s6,tp,80000ec4 <main_j5+0x648>
80000e78:	01537533          	and	a0,t1,s5
80000e7c:	036fd663          	bge	t6,s6,80000ea8 <main_j5+0x62c>
80000e80:	0000100f          	fence.i
80000e84:	a08c68b7          	lui	a7,0xa08c6
80000e88:	4022ddb3          	sra	s11,t0,sp
80000e8c:	019fe0b3          	or	ra,t6,s9
80000e90:	4022ddb3          	sra	s11,t0,sp
80000e94:	056fd063          	bge	t6,s6,80000ed4 <main_j5+0x658>
80000e98:	01431733          	sll	a4,t1,s4
80000e9c:	0140b7b3          	sltu	a5,ra,s4
80000ea0:	c66de993          	ori	s3,s11,-922
80000ea4:	0141adb3          	slt	s11,gp,s4
80000ea8:	e5e3fb93          	andi	s7,t2,-418
80000eac:	03950863          	beq	a0,s9,80000edc <main_j5+0x660>
80000eb0:	00000013          	nop
80000eb4:	0000100f          	fence.i
80000eb8:	4158d193          	srai	gp,a7,0x15
80000ebc:	0000100f          	fence.i
80000ec0:	03d09a63          	bne	ra,t4,80000ef4 <main_j5+0x678>
80000ec4:	0140b7b3          	sltu	a5,ra,s4
80000ec8:	0141adb3          	slt	s11,gp,s4
80000ecc:	00000013          	nop
80000ed0:	00000013          	nop
80000ed4:	01537533          	and	a0,t1,s5
80000ed8:	4022ddb3          	sra	s11,t0,sp
80000edc:	03d09863          	bne	ra,t4,80000f0c <main_j5+0x690>
80000ee0:	00d09993          	slli	s3,ra,0xd
80000ee4:	e5a8cb93          	xori	s7,a7,-422
80000ee8:	00000013          	nop
80000eec:	0000100f          	fence.i
80000ef0:	019fe0b3          	or	ra,t6,s9
80000ef4:	00d09993          	slli	s3,ra,0xd
80000ef8:	024b7463          	bgeu	s6,tp,80000f20 <main_j5+0x6a4>
80000efc:	01950863          	beq	a0,s9,80000f0c <main_j5+0x690>
80000f00:	0072c133          	xor	sp,t0,t2
80000f04:	01465bb3          	srl	s7,a2,s4
80000f08:	024b7263          	bgeu	s6,tp,80000f2c <main_j5+0x6b0>
80000f0c:	0072c133          	xor	sp,t0,t2
80000f10:	dd88a013          	slti	zero,a7,-552
80000f14:	03950063          	beq	a0,s9,80000f34 <main_j5+0x6b8>
80000f18:	0107ca63          	blt	a5,a6,80000f2c <main_j5+0x6b0>
80000f1c:	e4ccbc97          	auipc	s9,0xe4ccb
80000f20:	01808433          	add	s0,ra,s8
80000f24:	02d1ea63          	bltu	gp,a3,80000f58 <main_j5+0x6dc>
80000f28:	0000100f          	fence.i
80000f2c:	03950a63          	beq	a0,s9,80000f60 <main_j5+0x6e4>
80000f30:	01431733          	sll	a4,t1,s4
80000f34:	01c45713          	srli	a4,s0,0x1c
80000f38:	05d09663          	bne	ra,t4,80000f84 <main_j5+0x708>
80000f3c:	00d09993          	slli	s3,ra,0xd
80000f40:	00000013          	nop
80000f44:	dd88a013          	slti	zero,a7,-552
80000f48:	574a0113          	addi	sp,s4,1396
80000f4c:	e4ccbc97          	auipc	s9,0xe4ccb
80000f50:	02d1e663          	bltu	gp,a3,80000f7c <main_j5+0x700>
80000f54:	024b7663          	bgeu	s6,tp,80000f80 <main_j5+0x704>
80000f58:	019fe0b3          	or	ra,t6,s9
80000f5c:	dd88a013          	slti	zero,a7,-552
80000f60:	01808433          	add	s0,ra,s8
80000f64:	e4ccbc97          	auipc	s9,0xe4ccb
80000f68:	0072c133          	xor	sp,t0,t2
80000f6c:	00000013          	nop
80000f70:	01431733          	sll	a4,t1,s4
80000f74:	01808433          	add	s0,ra,s8
80000f78:	00000013          	nop
80000f7c:	044b7863          	bgeu	s6,tp,80000fcc <main_j5+0x750>
80000f80:	01537533          	and	a0,t1,s5
80000f84:	bde33713          	sltiu	a4,t1,-1058
80000f88:	41ae0833          	sub	a6,t3,s10
80000f8c:	41ae0833          	sub	a6,t3,s10
80000f90:	0140b7b3          	sltu	a5,ra,s4
80000f94:	c66de993          	ori	s3,s11,-922
80000f98:	0072c133          	xor	sp,t0,t2
80000f9c:	01808433          	add	s0,ra,s8
80000fa0:	019fe0b3          	or	ra,t6,s9
80000fa4:	004b7e63          	bgeu	s6,tp,80000fc0 <main_j5+0x744>
80000fa8:	01808433          	add	s0,ra,s8
80000fac:	bde33713          	sltiu	a4,t1,-1058
80000fb0:	41ae0833          	sub	a6,t3,s10
80000fb4:	00000013          	nop
80000fb8:	a08c68b7          	lui	a7,0xa08c6
80000fbc:	4022ddb3          	sra	s11,t0,sp
80000fc0:	03d09a63          	bne	ra,t4,80000ff4 <main_j5+0x778>
80000fc4:	01465bb3          	srl	s7,a2,s4
80000fc8:	bde33713          	sltiu	a4,t1,-1058
80000fcc:	05950063          	beq	a0,s9,8000100c <main_j5+0x790>
80000fd0:	e5a8cb93          	xori	s7,a7,-422
80000fd4:	036fdc63          	bge	t6,s6,8000100c <main_j5+0x790>
80000fd8:	e5a8cb93          	xori	s7,a7,-422
80000fdc:	02d1e863          	bltu	gp,a3,8000100c <main_j5+0x790>
80000fe0:	03950463          	beq	a0,s9,80001008 <main_j5+0x78c>
80000fe4:	00d1e863          	bltu	gp,a3,80000ff4 <main_j5+0x778>
80000fe8:	00000013          	nop
80000fec:	0140b7b3          	sltu	a5,ra,s4
80000ff0:	016fd863          	bge	t6,s6,80001000 <main_j5+0x784>
80000ff4:	574a0113          	addi	sp,s4,1396
80000ff8:	03d09863          	bne	ra,t4,80001028 <main_j5+0x7ac>
80000ffc:	03d09663          	bne	ra,t4,80001028 <main_j5+0x7ac>
80001000:	01c45713          	srli	a4,s0,0x1c
80001004:	4022ddb3          	sra	s11,t0,sp
80001008:	0ff0000f          	fence
8000100c:	0000100f          	fence.i
80001010:	4022ddb3          	sra	s11,t0,sp
80001014:	03950863          	beq	a0,s9,80001044 <main_j5+0x7c8>
80001018:	016fda63          	bge	t6,s6,8000102c <main_j5+0x7b0>
8000101c:	0072c133          	xor	sp,t0,t2
80001020:	e5e3fb93          	andi	s7,t2,-418
80001024:	a08c68b7          	lui	a7,0xa08c6
80001028:	bde33713          	sltiu	a4,t1,-1058
8000102c:	04d1e063          	bltu	gp,a3,8000106c <main_j5+0x7f0>
80001030:	036fd263          	bge	t6,s6,80001054 <main_j5+0x7d8>
80001034:	e5a8cb93          	xori	s7,a7,-422
80001038:	c66de993          	ori	s3,s11,-922
8000103c:	01431733          	sll	a4,t1,s4
80001040:	04d1e863          	bltu	gp,a3,80001090 <main_j5+0x814>
80001044:	00000013          	nop
80001048:	e4ccbc97          	auipc	s9,0xe4ccb
8000104c:	00000013          	nop
80001050:	0507c863          	blt	a5,a6,800010a0 <main_j5+0x824>
80001054:	c66de993          	ori	s3,s11,-922
80001058:	02d1e263          	bltu	gp,a3,8000107c <main_j5+0x800>
8000105c:	0107c863          	blt	a5,a6,8000106c <main_j5+0x7f0>
80001060:	03950a63          	beq	a0,s9,80001094 <main_j5+0x818>
80001064:	01465bb3          	srl	s7,a2,s4
80001068:	05d09063          	bne	ra,t4,800010a8 <main_j5+0x82c>
8000106c:	0140b7b3          	sltu	a5,ra,s4
80001070:	574a0113          	addi	sp,s4,1396
80001074:	0ff0000f          	fence
80001078:	0000100f          	fence.i
8000107c:	01808433          	add	s0,ra,s8
80001080:	024b7663          	bgeu	s6,tp,800010ac <main_j5+0x830>
80001084:	01465bb3          	srl	s7,a2,s4
80001088:	019fe0b3          	or	ra,t6,s9
8000108c:	4158d193          	srai	gp,a7,0x15
80001090:	0141adb3          	slt	s11,gp,s4
80001094:	e4ccbc97          	auipc	s9,0xe4ccb
80001098:	0000100f          	fence.i
8000109c:	0ff0000f          	fence
800010a0:	c66de993          	ori	s3,s11,-922
800010a4:	c66de993          	ori	s3,s11,-922
800010a8:	4158d193          	srai	gp,a7,0x15
800010ac:	024b7c63          	bgeu	s6,tp,800010e4 <main_j5+0x868>
800010b0:	dd88a013          	slti	zero,a7,-552
800010b4:	0000100f          	fence.i
800010b8:	01808433          	add	s0,ra,s8
800010bc:	01431733          	sll	a4,t1,s4
800010c0:	01537533          	and	a0,t1,s5
800010c4:	019fe0b3          	or	ra,t6,s9
800010c8:	01431733          	sll	a4,t1,s4
800010cc:	0ff0000f          	fence
800010d0:	01431733          	sll	a4,t1,s4
800010d4:	01537533          	and	a0,t1,s5
800010d8:	016fd463          	bge	t6,s6,800010e0 <main_j5+0x864>
800010dc:	41ae0833          	sub	a6,t3,s10
800010e0:	dd88a013          	slti	zero,a7,-552
800010e4:	0072c133          	xor	sp,t0,t2
800010e8:	0072c133          	xor	sp,t0,t2
800010ec:	0140b7b3          	sltu	a5,ra,s4
800010f0:	056fd663          	bge	t6,s6,8000113c <main_j5+0x8c0>
800010f4:	4022ddb3          	sra	s11,t0,sp
800010f8:	4022ddb3          	sra	s11,t0,sp
800010fc:	574a0113          	addi	sp,s4,1396
80001100:	02d1e063          	bltu	gp,a3,80001120 <main_j5+0x8a4>
80001104:	e5e3fb93          	andi	s7,t2,-418
80001108:	004b7863          	bgeu	s6,tp,80001118 <main_j5+0x89c>
8000110c:	0307c663          	blt	a5,a6,80001138 <main_j5+0x8bc>
80001110:	e5a8cb93          	xori	s7,a7,-422
80001114:	024b7a63          	bgeu	s6,tp,80001148 <main_j5+0x8cc>
80001118:	00000013          	nop
8000111c:	05d09263          	bne	ra,t4,80001160 <main_j5+0x8e4>
80001120:	e4ccbc97          	auipc	s9,0xe4ccb
80001124:	0141adb3          	slt	s11,gp,s4
80001128:	e5e3fb93          	andi	s7,t2,-418
8000112c:	01431733          	sll	a4,t1,s4
80001130:	0ff0000f          	fence
80001134:	0141adb3          	slt	s11,gp,s4
80001138:	019fe0b3          	or	ra,t6,s9
8000113c:	e4ccbc97          	auipc	s9,0xe4ccb
80001140:	04d1ee63          	bltu	gp,a3,8000119c <main_j3+0x8>
80001144:	e5a8cb93          	xori	s7,a7,-422
80001148:	4158d193          	srai	gp,a7,0x15
8000114c:	01808433          	add	s0,ra,s8
80001150:	0072c133          	xor	sp,t0,t2
80001154:	01950863          	beq	a0,s9,80001164 <main_j5+0x8e8>
80001158:	e5e3fb93          	andi	s7,t2,-418
8000115c:	01537533          	and	a0,t1,s5
80001160:	00000013          	nop
80001164:	00000013          	nop
80001168:	574a0113          	addi	sp,s4,1396
8000116c:	00d09993          	slli	s3,ra,0xd
80001170:	00d09a13          	slli	s4,ra,0xd
80001174:	00004117          	auipc	sp,0x4
80001178:	7dc10113          	addi	sp,sp,2012 # 80005950 <sub_2>
8000117c:	33e10113          	addi	sp,sp,830
80001180:	00d09a13          	slli	s4,ra,0xd
80001184:	4158d213          	srai	tp,a7,0x15
80001188:	0072c1b3          	xor	gp,t0,t2
8000118c:	016fd463          	bge	t6,s6,80001194 <main_j3>
80001190:	0ff0000f          	fence

80001194 <main_j3>:
80001194:	cc2100e7          	jalr	-830(sp)
80001198:	0ff0000f          	fence
8000119c:	016fde63          	bge	t6,s6,800011b8 <main_j3+0x24>
800011a0:	0000100f          	fence.i
800011a4:	41ae0833          	sub	a6,t3,s10
800011a8:	bde33713          	sltiu	a4,t1,-1058
800011ac:	01537533          	and	a0,t1,s5
800011b0:	0141adb3          	slt	s11,gp,s4
800011b4:	03d09463          	bne	ra,t4,800011dc <main_j3+0x48>
800011b8:	00000013          	nop
800011bc:	0000100f          	fence.i
800011c0:	a08c68b7          	lui	a7,0xa08c6
800011c4:	0ff0000f          	fence
800011c8:	bde33713          	sltiu	a4,t1,-1058
800011cc:	01c45713          	srli	a4,s0,0x1c
800011d0:	01537533          	and	a0,t1,s5
800011d4:	01537533          	and	a0,t1,s5
800011d8:	4022ddb3          	sra	s11,t0,sp
800011dc:	4158d193          	srai	gp,a7,0x15
800011e0:	e4ccbc97          	auipc	s9,0xe4ccb
800011e4:	574a0113          	addi	sp,s4,1396
800011e8:	03d09463          	bne	ra,t4,80001210 <main_j3+0x7c>
800011ec:	dd88a013          	slti	zero,a7,-552
800011f0:	036fda63          	bge	t6,s6,80001224 <main_j3+0x90>
800011f4:	0072c133          	xor	sp,t0,t2
800011f8:	0141adb3          	slt	s11,gp,s4
800011fc:	bde33713          	sltiu	a4,t1,-1058
80001200:	019fe0b3          	or	ra,t6,s9
80001204:	4158d193          	srai	gp,a7,0x15
80001208:	4158d193          	srai	gp,a7,0x15
8000120c:	574a0113          	addi	sp,s4,1396
80001210:	4022ddb3          	sra	s11,t0,sp
80001214:	01537533          	and	a0,t1,s5
80001218:	056fdc63          	bge	t6,s6,80001270 <main_j1+0x1c>
8000121c:	01537533          	and	a0,t1,s5
80001220:	0072c133          	xor	sp,t0,t2
80001224:	e5a8cb93          	xori	s7,a7,-422
80001228:	00d09993          	slli	s3,ra,0xd
8000122c:	06d1e463          	bltu	gp,a3,80001294 <main_j1+0x40>
80001230:	00003497          	auipc	s1,0x3
80001234:	53048493          	addi	s1,s1,1328 # 80004760 <sub_3>
80001238:	a08c6937          	lui	s2,0xa08c6
8000123c:	01d48493          	addi	s1,s1,29
80001240:	4022de33          	sra	t3,t0,sp
80001244:	016fd863          	bge	t6,s6,80001254 <main_j1>
80001248:	a08c6937          	lui	s2,0xa08c6
8000124c:	00d09a13          	slli	s4,ra,0xd
80001250:	4022de33          	sra	t3,t0,sp

80001254 <main_j1>:
80001254:	fe4480e7          	jalr	-28(s1)
80001258:	e4ccbc97          	auipc	s9,0xe4ccb
8000125c:	01537533          	and	a0,t1,s5
80001260:	036fd863          	bge	t6,s6,80001290 <main_j1+0x3c>
80001264:	036fd863          	bge	t6,s6,80001294 <main_j1+0x40>
80001268:	01808433          	add	s0,ra,s8
8000126c:	0000100f          	fence.i
80001270:	01537533          	and	a0,t1,s5
80001274:	41ae0833          	sub	a6,t3,s10
80001278:	574a0113          	addi	sp,s4,1396
8000127c:	0ff0000f          	fence
80001280:	044b7863          	bgeu	s6,tp,800012d0 <main_j1+0x7c>
80001284:	019fe0b3          	or	ra,t6,s9
80001288:	0140b7b3          	sltu	a5,ra,s4
8000128c:	574a0113          	addi	sp,s4,1396
80001290:	bde33713          	sltiu	a4,t1,-1058
80001294:	01537533          	and	a0,t1,s5
80001298:	019fe0b3          	or	ra,t6,s9
8000129c:	0141adb3          	slt	s11,gp,s4
800012a0:	036fda63          	bge	t6,s6,800012d4 <main_j1+0x80>
800012a4:	bde33713          	sltiu	a4,t1,-1058
800012a8:	c66de993          	ori	s3,s11,-922
800012ac:	01808433          	add	s0,ra,s8
800012b0:	4022ddb3          	sra	s11,t0,sp
800012b4:	e5e3fb93          	andi	s7,t2,-418
800012b8:	e4ccbc97          	auipc	s9,0xe4ccb
800012bc:	01808433          	add	s0,ra,s8
800012c0:	e5a8cb93          	xori	s7,a7,-422
800012c4:	019fe0b3          	or	ra,t6,s9
800012c8:	01431733          	sll	a4,t1,s4
800012cc:	024b7663          	bgeu	s6,tp,800012f8 <main_j1+0xa4>
800012d0:	e5a8cb93          	xori	s7,a7,-422
800012d4:	01537533          	and	a0,t1,s5
800012d8:	01537533          	and	a0,t1,s5
800012dc:	0072c133          	xor	sp,t0,t2
800012e0:	574a0113          	addi	sp,s4,1396
800012e4:	01950863          	beq	a0,s9,800012f4 <main_j1+0xa0>
800012e8:	0307ca63          	blt	a5,a6,8000131c <main_j1+0xc8>
800012ec:	0141adb3          	slt	s11,gp,s4
800012f0:	0140b7b3          	sltu	a5,ra,s4
800012f4:	01808433          	add	s0,ra,s8
800012f8:	01537533          	and	a0,t1,s5
800012fc:	bde33713          	sltiu	a4,t1,-1058
80001300:	01808433          	add	s0,ra,s8
80001304:	e4ccbc97          	auipc	s9,0xe4ccb
80001308:	0072c133          	xor	sp,t0,t2
8000130c:	0ff0000f          	fence
80001310:	0141adb3          	slt	s11,gp,s4
80001314:	0072c133          	xor	sp,t0,t2
80001318:	4158d193          	srai	gp,a7,0x15
8000131c:	dd88a013          	slti	zero,a7,-552
80001320:	dd88a013          	slti	zero,a7,-552
80001324:	01808433          	add	s0,ra,s8
80001328:	01c45713          	srli	a4,s0,0x1c
8000132c:	4158d193          	srai	gp,a7,0x15
80001330:	e4ccbc97          	auipc	s9,0xe4ccb
80001334:	01950a63          	beq	a0,s9,80001348 <main_j1+0xf4>
80001338:	4022ddb3          	sra	s11,t0,sp
8000133c:	024b7263          	bgeu	s6,tp,80001360 <main_j1+0x10c>
80001340:	01537533          	and	a0,t1,s5
80001344:	01431733          	sll	a4,t1,s4
80001348:	05950063          	beq	a0,s9,80001388 <main_j1+0x134>
8000134c:	0000100f          	fence.i
80001350:	0ff0000f          	fence
80001354:	0000100f          	fence.i
80001358:	00000013          	nop
8000135c:	01808433          	add	s0,ra,s8
80001360:	4022ddb3          	sra	s11,t0,sp
80001364:	0140b7b3          	sltu	a5,ra,s4
80001368:	e5e3fb93          	andi	s7,t2,-418
8000136c:	01537533          	and	a0,t1,s5
80001370:	0ff0000f          	fence
80001374:	4158d193          	srai	gp,a7,0x15
80001378:	e5a8cb93          	xori	s7,a7,-422
8000137c:	dd88a013          	slti	zero,a7,-552
80001380:	4158d193          	srai	gp,a7,0x15
80001384:	00000013          	nop
80001388:	01950863          	beq	a0,s9,80001398 <main_j1+0x144>
8000138c:	01c45713          	srli	a4,s0,0x1c
80001390:	bde33713          	sltiu	a4,t1,-1058
80001394:	c66de993          	ori	s3,s11,-922
80001398:	00d09993          	slli	s3,ra,0xd
8000139c:	0ff0000f          	fence
800013a0:	00000013          	nop
800013a4:	00d09993          	slli	s3,ra,0xd
800013a8:	036fdc63          	bge	t6,s6,800013e0 <main_j1+0x18c>
800013ac:	4158d193          	srai	gp,a7,0x15
800013b0:	4158d193          	srai	gp,a7,0x15
800013b4:	004b7863          	bgeu	s6,tp,800013c4 <main_j1+0x170>
800013b8:	00d1e463          	bltu	gp,a3,800013c0 <main_j1+0x16c>
800013bc:	4022ddb3          	sra	s11,t0,sp
800013c0:	bde33713          	sltiu	a4,t1,-1058
800013c4:	01537533          	and	a0,t1,s5
800013c8:	0140b7b3          	sltu	a5,ra,s4
800013cc:	04d1e663          	bltu	gp,a3,80001418 <main_j1+0x1c4>
800013d0:	03950663          	beq	a0,s9,800013fc <main_j1+0x1a8>
800013d4:	01c45713          	srli	a4,s0,0x1c
800013d8:	03d09863          	bne	ra,t4,80001408 <main_j1+0x1b4>
800013dc:	01431733          	sll	a4,t1,s4
800013e0:	0ff0000f          	fence
800013e4:	01431733          	sll	a4,t1,s4
800013e8:	e4ccbc97          	auipc	s9,0xe4ccb
800013ec:	a08c68b7          	lui	a7,0xa08c6
800013f0:	c66de993          	ori	s3,s11,-922
800013f4:	01c45713          	srli	a4,s0,0x1c
800013f8:	00d09993          	slli	s3,ra,0xd
800013fc:	01c45713          	srli	a4,s0,0x1c
80001400:	0000100f          	fence.i
80001404:	00d09993          	slli	s3,ra,0xd
80001408:	574a0113          	addi	sp,s4,1396
8000140c:	01465bb3          	srl	s7,a2,s4
80001410:	c66de993          	ori	s3,s11,-922
80001414:	01465bb3          	srl	s7,a2,s4
80001418:	01808433          	add	s0,ra,s8
8000141c:	0141adb3          	slt	s11,gp,s4
80001420:	00000013          	nop
80001424:	4158d193          	srai	gp,a7,0x15
80001428:	01c45713          	srli	a4,s0,0x1c
8000142c:	0000100f          	fence.i
80001430:	01808433          	add	s0,ra,s8
80001434:	4022ddb3          	sra	s11,t0,sp
80001438:	0072c133          	xor	sp,t0,t2
8000143c:	41ae0833          	sub	a6,t3,s10
80001440:	04d1e863          	bltu	gp,a3,80001490 <main_j1+0x23c>
80001444:	4158d193          	srai	gp,a7,0x15
80001448:	03950463          	beq	a0,s9,80001470 <main_j1+0x21c>
8000144c:	e5a8cb93          	xori	s7,a7,-422
80001450:	bde33713          	sltiu	a4,t1,-1058
80001454:	c66de993          	ori	s3,s11,-922
80001458:	0140b7b3          	sltu	a5,ra,s4
8000145c:	03950063          	beq	a0,s9,8000147c <main_j1+0x228>
80001460:	bde33713          	sltiu	a4,t1,-1058
80001464:	01950e63          	beq	a0,s9,80001480 <main_j1+0x22c>
80001468:	4022ddb3          	sra	s11,t0,sp
8000146c:	02d1ea63          	bltu	gp,a3,800014a0 <main_j1+0x24c>
80001470:	019fe0b3          	or	ra,t6,s9
80001474:	0141adb3          	slt	s11,gp,s4
80001478:	01808433          	add	s0,ra,s8
8000147c:	0000100f          	fence.i
80001480:	0000100f          	fence.i
80001484:	bde33713          	sltiu	a4,t1,-1058
80001488:	bde33713          	sltiu	a4,t1,-1058
8000148c:	0072c133          	xor	sp,t0,t2
80001490:	01808433          	add	s0,ra,s8
80001494:	02d1e863          	bltu	gp,a3,800014c4 <main_j1+0x270>
80001498:	e4ccbc97          	auipc	s9,0xe4ccb
8000149c:	00d09993          	slli	s3,ra,0xd
800014a0:	0072c133          	xor	sp,t0,t2
800014a4:	01431733          	sll	a4,t1,s4
800014a8:	e5e3fb93          	andi	s7,t2,-418
800014ac:	41ae0833          	sub	a6,t3,s10
800014b0:	a08c68b7          	lui	a7,0xa08c6
800014b4:	01431733          	sll	a4,t1,s4
800014b8:	a08c68b7          	lui	a7,0xa08c6
800014bc:	0000100f          	fence.i
800014c0:	0072c133          	xor	sp,t0,t2
800014c4:	01808433          	add	s0,ra,s8
800014c8:	574a0113          	addi	sp,s4,1396
800014cc:	dd88a013          	slti	zero,a7,-552
800014d0:	0307c463          	blt	a5,a6,800014f8 <main_j1+0x2a4>
800014d4:	c66de993          	ori	s3,s11,-922
800014d8:	e5e3fb93          	andi	s7,t2,-418
800014dc:	02d1e263          	bltu	gp,a3,80001500 <main_j1+0x2ac>
800014e0:	e4ccbc97          	auipc	s9,0xe4ccb
800014e4:	0307ca63          	blt	a5,a6,80001518 <main_j1+0x2c4>
800014e8:	0000100f          	fence.i
800014ec:	024b7863          	bgeu	s6,tp,8000151c <main_j1+0x2c8>
800014f0:	0072c133          	xor	sp,t0,t2
800014f4:	e5a8cb93          	xori	s7,a7,-422
800014f8:	01537533          	and	a0,t1,s5
800014fc:	01465bb3          	srl	s7,a2,s4
80001500:	01431733          	sll	a4,t1,s4
80001504:	00d09993          	slli	s3,ra,0xd
80001508:	01431733          	sll	a4,t1,s4
8000150c:	00d09993          	slli	s3,ra,0xd
80001510:	01431733          	sll	a4,t1,s4
80001514:	01465bb3          	srl	s7,a2,s4
80001518:	01465bb3          	srl	s7,a2,s4
8000151c:	4158d193          	srai	gp,a7,0x15
80001520:	01465bb3          	srl	s7,a2,s4
80001524:	03950663          	beq	a0,s9,80001550 <main_j1+0x2fc>
80001528:	044b7063          	bgeu	s6,tp,80001568 <main_j1+0x314>
8000152c:	044b7263          	bgeu	s6,tp,80001570 <main_j1+0x31c>
80001530:	044b7063          	bgeu	s6,tp,80001570 <main_j1+0x31c>
80001534:	01537533          	and	a0,t1,s5
80001538:	03d09863          	bne	ra,t4,80001568 <main_j1+0x314>
8000153c:	00d1ea63          	bltu	gp,a3,80001550 <main_j1+0x2fc>
80001540:	00000013          	nop
80001544:	0507c263          	blt	a5,a6,80001588 <main_j1+0x334>
80001548:	a08c68b7          	lui	a7,0xa08c6
8000154c:	0ff0000f          	fence
80001550:	01808433          	add	s0,ra,s8
80001554:	0141adb3          	slt	s11,gp,s4
80001558:	0140b7b3          	sltu	a5,ra,s4
8000155c:	036fda63          	bge	t6,s6,80001590 <main_j1+0x33c>
80001560:	a08c68b7          	lui	a7,0xa08c6
80001564:	dd88a013          	slti	zero,a7,-552
80001568:	0ff0000f          	fence
8000156c:	e4ccbc97          	auipc	s9,0xe4ccb
80001570:	574a0113          	addi	sp,s4,1396
80001574:	00000013          	nop
80001578:	0140b7b3          	sltu	a5,ra,s4
8000157c:	01431733          	sll	a4,t1,s4
80001580:	01537533          	and	a0,t1,s5
80001584:	00d09993          	slli	s3,ra,0xd
80001588:	0507c063          	blt	a5,a6,800015c8 <main_j1+0x374>
8000158c:	4022ddb3          	sra	s11,t0,sp
80001590:	0000100f          	fence.i
80001594:	e5e3fb93          	andi	s7,t2,-418
80001598:	0ff0000f          	fence
8000159c:	044b7063          	bgeu	s6,tp,800015dc <main_j1+0x388>
800015a0:	01465bb3          	srl	s7,a2,s4
800015a4:	0ff0000f          	fence
800015a8:	0072c133          	xor	sp,t0,t2
800015ac:	e4ccbc97          	auipc	s9,0xe4ccb
800015b0:	0000100f          	fence.i
800015b4:	01537533          	and	a0,t1,s5
800015b8:	01537533          	and	a0,t1,s5
800015bc:	e4ccbc97          	auipc	s9,0xe4ccb
800015c0:	0000100f          	fence.i
800015c4:	41ae0833          	sub	a6,t3,s10
800015c8:	01465bb3          	srl	s7,a2,s4
800015cc:	e5a8cb93          	xori	s7,a7,-422
800015d0:	01c45713          	srli	a4,s0,0x1c
800015d4:	41ae0833          	sub	a6,t3,s10
800015d8:	01431733          	sll	a4,t1,s4
800015dc:	00d09993          	slli	s3,ra,0xd
800015e0:	a08c68b7          	lui	a7,0xa08c6
800015e4:	41ae0833          	sub	a6,t3,s10
800015e8:	03d09863          	bne	ra,t4,80001618 <main_j1+0x3c4>
800015ec:	bde33713          	sltiu	a4,t1,-1058
800015f0:	574a0113          	addi	sp,s4,1396
800015f4:	0ff0000f          	fence
800015f8:	c66de993          	ori	s3,s11,-922
800015fc:	01465bb3          	srl	s7,a2,s4
80001600:	4022ddb3          	sra	s11,t0,sp
80001604:	bde33713          	sltiu	a4,t1,-1058
80001608:	0307ca63          	blt	a5,a6,8000163c <main_j1+0x3e8>
8000160c:	019fe0b3          	or	ra,t6,s9
80001610:	bde33713          	sltiu	a4,t1,-1058
80001614:	01431733          	sll	a4,t1,s4
80001618:	bde33713          	sltiu	a4,t1,-1058
8000161c:	01808433          	add	s0,ra,s8
80001620:	01d09e63          	bne	ra,t4,8000163c <main_j1+0x3e8>
80001624:	03950463          	beq	a0,s9,8000164c <main_j1+0x3f8>
80001628:	01537533          	and	a0,t1,s5
8000162c:	01950863          	beq	a0,s9,8000163c <main_j1+0x3e8>
80001630:	4022ddb3          	sra	s11,t0,sp
80001634:	019fe0b3          	or	ra,t6,s9
80001638:	01808433          	add	s0,ra,s8
8000163c:	01431733          	sll	a4,t1,s4
80001640:	4158d193          	srai	gp,a7,0x15
80001644:	01c45713          	srli	a4,s0,0x1c
80001648:	4022ddb3          	sra	s11,t0,sp
8000164c:	01465bb3          	srl	s7,a2,s4
80001650:	0ff0000f          	fence
80001654:	4022ddb3          	sra	s11,t0,sp
80001658:	e5a8cb93          	xori	s7,a7,-422
8000165c:	019fe0b3          	or	ra,t6,s9
80001660:	0ff0000f          	fence
80001664:	0000100f          	fence.i
80001668:	bde33713          	sltiu	a4,t1,-1058
8000166c:	036fd063          	bge	t6,s6,8000168c <main_j1+0x438>
80001670:	02d1e863          	bltu	gp,a3,800016a0 <main_j1+0x44c>
80001674:	00000013          	nop
80001678:	41ae0833          	sub	a6,t3,s10
8000167c:	03d09863          	bne	ra,t4,800016ac <main_j1+0x458>
80001680:	019fe0b3          	or	ra,t6,s9
80001684:	01c45713          	srli	a4,s0,0x1c
80001688:	02d1e263          	bltu	gp,a3,800016ac <main_j1+0x458>
8000168c:	0ff0000f          	fence
80001690:	044b7063          	bgeu	s6,tp,800016d0 <main_j1+0x47c>
80001694:	0072c133          	xor	sp,t0,t2
80001698:	01537533          	and	a0,t1,s5
8000169c:	03d09663          	bne	ra,t4,800016c8 <main_j1+0x474>
800016a0:	02d1e863          	bltu	gp,a3,800016d0 <main_j1+0x47c>
800016a4:	e5a8cb93          	xori	s7,a7,-422
800016a8:	e5e3fb93          	andi	s7,t2,-418
800016ac:	41ae0833          	sub	a6,t3,s10
800016b0:	e5e3fb93          	andi	s7,t2,-418
800016b4:	41ae0833          	sub	a6,t3,s10
800016b8:	e5e3fb93          	andi	s7,t2,-418
800016bc:	0140b7b3          	sltu	a5,ra,s4
800016c0:	00d09993          	slli	s3,ra,0xd
800016c4:	01c45713          	srli	a4,s0,0x1c
800016c8:	00d1e863          	bltu	gp,a3,800016d8 <main_j1+0x484>
800016cc:	00d1e863          	bltu	gp,a3,800016dc <main_j1+0x488>
800016d0:	bde33713          	sltiu	a4,t1,-1058
800016d4:	0072c133          	xor	sp,t0,t2
800016d8:	036fd663          	bge	t6,s6,80001704 <main_j1+0x4b0>
800016dc:	e5a8cb93          	xori	s7,a7,-422
800016e0:	0000100f          	fence.i
800016e4:	41ae0833          	sub	a6,t3,s10
800016e8:	01c45713          	srli	a4,s0,0x1c
800016ec:	41ae0833          	sub	a6,t3,s10
800016f0:	03950c63          	beq	a0,s9,80001728 <main_j1+0x4d4>
800016f4:	024b7263          	bgeu	s6,tp,80001718 <main_j1+0x4c4>
800016f8:	4158d193          	srai	gp,a7,0x15
800016fc:	03d09a63          	bne	ra,t4,80001730 <main_j1+0x4dc>
80001700:	056fd863          	bge	t6,s6,80001750 <main_j1+0x4fc>
80001704:	044b7663          	bgeu	s6,tp,80001750 <main_j1+0x4fc>
80001708:	e5e3fb93          	andi	s7,t2,-418
8000170c:	a08c68b7          	lui	a7,0xa08c6
80001710:	01537533          	and	a0,t1,s5
80001714:	01431733          	sll	a4,t1,s4
80001718:	01808433          	add	s0,ra,s8
8000171c:	0ff0000f          	fence
80001720:	41ae0833          	sub	a6,t3,s10
80001724:	0072c133          	xor	sp,t0,t2
80001728:	01808433          	add	s0,ra,s8
8000172c:	0307ca63          	blt	a5,a6,80001760 <main_j1+0x50c>
80001730:	00000013          	nop
80001734:	0307c463          	blt	a5,a6,8000175c <main_j1+0x508>
80001738:	01537533          	and	a0,t1,s5
8000173c:	03d09663          	bne	ra,t4,80001768 <main_j1+0x514>
80001740:	e5a8cb93          	xori	s7,a7,-422
80001744:	00000013          	nop
80001748:	e5a8cb93          	xori	s7,a7,-422
8000174c:	4022ddb3          	sra	s11,t0,sp
80001750:	a08c68b7          	lui	a7,0xa08c6
80001754:	0140b7b3          	sltu	a5,ra,s4
80001758:	e5a8cb93          	xori	s7,a7,-422
8000175c:	01431733          	sll	a4,t1,s4
80001760:	0107c463          	blt	a5,a6,80001768 <main_j1+0x514>
80001764:	0ff0000f          	fence
80001768:	00d09993          	slli	s3,ra,0xd
8000176c:	00d09993          	slli	s3,ra,0xd
80001770:	01465bb3          	srl	s7,a2,s4
80001774:	04d1e863          	bltu	gp,a3,800017c4 <main_j1+0x570>
80001778:	574a0113          	addi	sp,s4,1396
8000177c:	00d1e863          	bltu	gp,a3,8000178c <main_j1+0x538>
80001780:	05950863          	beq	a0,s9,800017d0 <main_j1+0x57c>
80001784:	024b7a63          	bgeu	s6,tp,800017b8 <main_j1+0x564>
80001788:	056fd063          	bge	t6,s6,800017c8 <main_j1+0x574>
8000178c:	e5a8cb93          	xori	s7,a7,-422
80001790:	01537533          	and	a0,t1,s5
80001794:	00d1e863          	bltu	gp,a3,800017a4 <main_j1+0x550>
80001798:	02d1e463          	bltu	gp,a3,800017c0 <main_j1+0x56c>
8000179c:	00d09993          	slli	s3,ra,0xd
800017a0:	c66de993          	ori	s3,s11,-922
800017a4:	00d09993          	slli	s3,ra,0xd
800017a8:	0307c663          	blt	a5,a6,800017d4 <main_j1+0x580>
800017ac:	574a0113          	addi	sp,s4,1396
800017b0:	574a0113          	addi	sp,s4,1396
800017b4:	0072c133          	xor	sp,t0,t2
800017b8:	574a0113          	addi	sp,s4,1396
800017bc:	574a0113          	addi	sp,s4,1396
800017c0:	0072c133          	xor	sp,t0,t2
800017c4:	01537533          	and	a0,t1,s5
800017c8:	e4ccbc97          	auipc	s9,0xe4ccb
800017cc:	c66de993          	ori	s3,s11,-922
800017d0:	0140b7b3          	sltu	a5,ra,s4
800017d4:	03950663          	beq	a0,s9,80001800 <main_j1+0x5ac>
800017d8:	01537533          	and	a0,t1,s5
800017dc:	c66de993          	ori	s3,s11,-922
800017e0:	dd88a013          	slti	zero,a7,-552
800017e4:	01465bb3          	srl	s7,a2,s4
800017e8:	c66de993          	ori	s3,s11,-922
800017ec:	03d09463          	bne	ra,t4,80001814 <main_j1+0x5c0>
800017f0:	03d09863          	bne	ra,t4,80001820 <main_j1+0x5cc>
800017f4:	e5e3fb93          	andi	s7,t2,-418
800017f8:	019fe0b3          	or	ra,t6,s9
800017fc:	0140b7b3          	sltu	a5,ra,s4
80001800:	bde33713          	sltiu	a4,t1,-1058
80001804:	e4ccbc97          	auipc	s9,0xe4ccb
80001808:	00d09993          	slli	s3,ra,0xd
8000180c:	41ae0833          	sub	a6,t3,s10
80001810:	4158d193          	srai	gp,a7,0x15
80001814:	c66de993          	ori	s3,s11,-922
80001818:	024b7863          	bgeu	s6,tp,80001848 <main_j1+0x5f4>
8000181c:	0000100f          	fence.i
80001820:	03d09c63          	bne	ra,t4,80001858 <main_j1+0x604>
80001824:	4158d193          	srai	gp,a7,0x15
80001828:	0141adb3          	slt	s11,gp,s4
8000182c:	04d1e663          	bltu	gp,a3,80001878 <main_j1+0x624>
80001830:	01465bb3          	srl	s7,a2,s4
80001834:	0141adb3          	slt	s11,gp,s4
80001838:	00000013          	nop
8000183c:	00d1e463          	bltu	gp,a3,80001844 <main_j1+0x5f0>
80001840:	00000013          	nop
80001844:	dd88a013          	slti	zero,a7,-552
80001848:	02d1e663          	bltu	gp,a3,80001874 <main_j1+0x620>
8000184c:	01537533          	and	a0,t1,s5
80001850:	0141adb3          	slt	s11,gp,s4
80001854:	01c45713          	srli	a4,s0,0x1c
80001858:	41ae0833          	sub	a6,t3,s10
8000185c:	0072c133          	xor	sp,t0,t2
80001860:	0072c133          	xor	sp,t0,t2
80001864:	02d1ea63          	bltu	gp,a3,80001898 <main_j1+0x644>
80001868:	4022ddb3          	sra	s11,t0,sp
8000186c:	0140b7b3          	sltu	a5,ra,s4
80001870:	e5e3fb93          	andi	s7,t2,-418
80001874:	0072c133          	xor	sp,t0,t2
80001878:	574a0113          	addi	sp,s4,1396
8000187c:	a08c68b7          	lui	a7,0xa08c6
80001880:	574a0113          	addi	sp,s4,1396
80001884:	e4ccbc97          	auipc	s9,0xe4ccb
80001888:	bde33713          	sltiu	a4,t1,-1058
8000188c:	016fda63          	bge	t6,s6,800018a0 <main_j1+0x64c>
80001890:	c66de993          	ori	s3,s11,-922
80001894:	e5e3fb93          	andi	s7,t2,-418
80001898:	574a0113          	addi	sp,s4,1396
8000189c:	01950e63          	beq	a0,s9,800018b8 <main_j1+0x664>
800018a0:	01808433          	add	s0,ra,s8
800018a4:	dd88a013          	slti	zero,a7,-552
800018a8:	dd88a013          	slti	zero,a7,-552
800018ac:	016fd863          	bge	t6,s6,800018bc <main_j1+0x668>
800018b0:	0000100f          	fence.i
800018b4:	0ff0000f          	fence
800018b8:	05d09063          	bne	ra,t4,800018f8 <main_j1+0x6a4>
800018bc:	044b7263          	bgeu	s6,tp,80001900 <main_j1+0x6ac>
800018c0:	044b7863          	bgeu	s6,tp,80001910 <main_j1+0x6bc>
800018c4:	0ff0000f          	fence
800018c8:	c66de993          	ori	s3,s11,-922
800018cc:	e4ccbc97          	auipc	s9,0xe4ccb
800018d0:	03950a63          	beq	a0,s9,80001904 <main_j1+0x6b0>
800018d4:	036fd263          	bge	t6,s6,800018f8 <main_j1+0x6a4>
800018d8:	bde33713          	sltiu	a4,t1,-1058
800018dc:	0ff0000f          	fence
800018e0:	01c45713          	srli	a4,s0,0x1c
800018e4:	a08c68b7          	lui	a7,0xa08c6
800018e8:	00d09993          	slli	s3,ra,0xd
800018ec:	01808433          	add	s0,ra,s8
800018f0:	e5a8cb93          	xori	s7,a7,-422
800018f4:	05950063          	beq	a0,s9,80001934 <main_j1+0x6e0>
800018f8:	01808433          	add	s0,ra,s8
800018fc:	024b7863          	bgeu	s6,tp,8000192c <main_j1+0x6d8>
80001900:	e4ccbc97          	auipc	s9,0xe4ccb
80001904:	c66de993          	ori	s3,s11,-922
80001908:	0000100f          	fence.i
8000190c:	01808433          	add	s0,ra,s8
80001910:	bde33713          	sltiu	a4,t1,-1058
80001914:	41ae0833          	sub	a6,t3,s10
80001918:	4022ddb3          	sra	s11,t0,sp
8000191c:	4022ddb3          	sra	s11,t0,sp
80001920:	036fd263          	bge	t6,s6,80001944 <main_j1+0x6f0>
80001924:	e5a8cb93          	xori	s7,a7,-422
80001928:	0000100f          	fence.i
8000192c:	03d09863          	bne	ra,t4,8000195c <main_j1+0x708>
80001930:	024b7a63          	bgeu	s6,tp,80001964 <main_j1+0x710>
80001934:	036fd063          	bge	t6,s6,80001954 <main_j1+0x700>
80001938:	01808433          	add	s0,ra,s8
8000193c:	024b7c63          	bgeu	s6,tp,80001974 <main_j1+0x720>
80001940:	c66de993          	ori	s3,s11,-922
80001944:	0ff0000f          	fence
80001948:	4158d193          	srai	gp,a7,0x15
8000194c:	4022ddb3          	sra	s11,t0,sp
80001950:	c66de993          	ori	s3,s11,-922
80001954:	01465bb3          	srl	s7,a2,s4
80001958:	0000100f          	fence.i
8000195c:	dd88a013          	slti	zero,a7,-552
80001960:	e5a8cb93          	xori	s7,a7,-422
80001964:	024b7463          	bgeu	s6,tp,8000198c <main_j1+0x738>
80001968:	019fe0b3          	or	ra,t6,s9
8000196c:	00000013          	nop
80001970:	044b7263          	bgeu	s6,tp,800019b4 <main_j1+0x760>
80001974:	0307ca63          	blt	a5,a6,800019a8 <main_j1+0x754>
80001978:	41ae0833          	sub	a6,t3,s10
8000197c:	01950863          	beq	a0,s9,8000198c <main_j1+0x738>
80001980:	056fd063          	bge	t6,s6,800019c0 <main_j1+0x76c>
80001984:	a08c68b7          	lui	a7,0xa08c6
80001988:	044b7863          	bgeu	s6,tp,800019d8 <main_j1+0x784>
8000198c:	01808433          	add	s0,ra,s8
80001990:	00d09993          	slli	s3,ra,0xd
80001994:	0141adb3          	slt	s11,gp,s4
80001998:	00d1ea63          	bltu	gp,a3,800019ac <main_j1+0x758>
8000199c:	0072c133          	xor	sp,t0,t2
800019a0:	0307c263          	blt	a5,a6,800019c4 <main_j1+0x770>
800019a4:	dd88a013          	slti	zero,a7,-552
800019a8:	00d09993          	slli	s3,ra,0xd
800019ac:	0307c463          	blt	a5,a6,800019d4 <main_j1+0x780>
800019b0:	dd88a013          	slti	zero,a7,-552
800019b4:	0140b7b3          	sltu	a5,ra,s4
800019b8:	0ff0000f          	fence
800019bc:	0141adb3          	slt	s11,gp,s4
800019c0:	c66de993          	ori	s3,s11,-922
800019c4:	c66de993          	ori	s3,s11,-922
800019c8:	0141adb3          	slt	s11,gp,s4
800019cc:	4022ddb3          	sra	s11,t0,sp
800019d0:	0107ce63          	blt	a5,a6,800019ec <main_j1+0x798>
800019d4:	4158d193          	srai	gp,a7,0x15
800019d8:	574a0113          	addi	sp,s4,1396
800019dc:	01431733          	sll	a4,t1,s4
800019e0:	01465bb3          	srl	s7,a2,s4
800019e4:	01c45713          	srli	a4,s0,0x1c
800019e8:	4022ddb3          	sra	s11,t0,sp
800019ec:	574a0113          	addi	sp,s4,1396
800019f0:	00d09993          	slli	s3,ra,0xd
800019f4:	0141adb3          	slt	s11,gp,s4
800019f8:	01537533          	and	a0,t1,s5
800019fc:	01431733          	sll	a4,t1,s4
80001a00:	019fe0b3          	or	ra,t6,s9
80001a04:	01431733          	sll	a4,t1,s4
80001a08:	4022ddb3          	sra	s11,t0,sp
80001a0c:	e5e3fb93          	andi	s7,t2,-418
80001a10:	e4ccbc97          	auipc	s9,0xe4ccb
80001a14:	41ae0833          	sub	a6,t3,s10
80001a18:	e4ccbc97          	auipc	s9,0xe4ccb
80001a1c:	019fe0b3          	or	ra,t6,s9
80001a20:	01465bb3          	srl	s7,a2,s4
80001a24:	00000013          	nop
80001a28:	019fe0b3          	or	ra,t6,s9
80001a2c:	03950863          	beq	a0,s9,80001a5c <main_j1+0x808>
80001a30:	00000013          	nop
80001a34:	a08c68b7          	lui	a7,0xa08c6
80001a38:	0000100f          	fence.i
80001a3c:	019fe0b3          	or	ra,t6,s9
80001a40:	0072c133          	xor	sp,t0,t2
80001a44:	dd88a013          	slti	zero,a7,-552
80001a48:	01c45713          	srli	a4,s0,0x1c
80001a4c:	01c45713          	srli	a4,s0,0x1c
80001a50:	0307ca63          	blt	a5,a6,80001a84 <main_j1+0x830>
80001a54:	03d09863          	bne	ra,t4,80001a84 <main_j1+0x830>
80001a58:	01431733          	sll	a4,t1,s4
80001a5c:	04d1e863          	bltu	gp,a3,80001aac <main_j1+0x858>
80001a60:	dd88a013          	slti	zero,a7,-552
80001a64:	41ae0833          	sub	a6,t3,s10
80001a68:	0141adb3          	slt	s11,gp,s4
80001a6c:	dd88a013          	slti	zero,a7,-552
80001a70:	01465bb3          	srl	s7,a2,s4
80001a74:	01808433          	add	s0,ra,s8
80001a78:	41ae0833          	sub	a6,t3,s10
80001a7c:	0072c133          	xor	sp,t0,t2
80001a80:	41ae0833          	sub	a6,t3,s10
80001a84:	01431733          	sll	a4,t1,s4
80001a88:	05d09063          	bne	ra,t4,80001ac8 <main_j1+0x874>
80001a8c:	019fe0b3          	or	ra,t6,s9
80001a90:	036fda63          	bge	t6,s6,80001ac4 <main_j1+0x870>
80001a94:	0141adb3          	slt	s11,gp,s4
80001a98:	e4ccbc97          	auipc	s9,0xe4ccb
80001a9c:	01950863          	beq	a0,s9,80001aac <main_j1+0x858>
80001aa0:	0ff0000f          	fence
80001aa4:	056fd663          	bge	t6,s6,80001af0 <main_j1+0x89c>
80001aa8:	e5a8cb93          	xori	s7,a7,-422
80001aac:	019fe0b3          	or	ra,t6,s9
80001ab0:	01431733          	sll	a4,t1,s4
80001ab4:	0072c133          	xor	sp,t0,t2
80001ab8:	4158d193          	srai	gp,a7,0x15
80001abc:	02d1e863          	bltu	gp,a3,80001aec <main_j1+0x898>
80001ac0:	e5e3fb93          	andi	s7,t2,-418
80001ac4:	03d09663          	bne	ra,t4,80001af0 <main_j1+0x89c>
80001ac8:	0072c133          	xor	sp,t0,t2
80001acc:	01808433          	add	s0,ra,s8
80001ad0:	41ae0833          	sub	a6,t3,s10
80001ad4:	c66de993          	ori	s3,s11,-922
80001ad8:	0000100f          	fence.i
80001adc:	c66de993          	ori	s3,s11,-922
80001ae0:	024b7a63          	bgeu	s6,tp,80001b14 <main_j1+0x8c0>
80001ae4:	a08c68b7          	lui	a7,0xa08c6
80001ae8:	01950863          	beq	a0,s9,80001af8 <main_j1+0x8a4>
80001aec:	0307c863          	blt	a5,a6,80001b1c <main_j1+0x8c8>
80001af0:	03d09663          	bne	ra,t4,80001b1c <main_j1+0x8c8>
80001af4:	0307c263          	blt	a5,a6,80001b18 <main_j1+0x8c4>
80001af8:	4022ddb3          	sra	s11,t0,sp
80001afc:	c66de993          	ori	s3,s11,-922
80001b00:	574a0113          	addi	sp,s4,1396
80001b04:	0307c663          	blt	a5,a6,80001b30 <main_j1+0x8dc>
80001b08:	01d09463          	bne	ra,t4,80001b10 <main_j1+0x8bc>
80001b0c:	0141adb3          	slt	s11,gp,s4
80001b10:	05d09063          	bne	ra,t4,80001b50 <main_j1+0x8fc>
80001b14:	01537533          	and	a0,t1,s5
80001b18:	574a0113          	addi	sp,s4,1396
80001b1c:	03d09063          	bne	ra,t4,80001b3c <main_j1+0x8e8>
80001b20:	0072c133          	xor	sp,t0,t2
80001b24:	0ff0000f          	fence
80001b28:	a08c68b7          	lui	a7,0xa08c6
80001b2c:	e5e3fb93          	andi	s7,t2,-418
80001b30:	03950063          	beq	a0,s9,80001b50 <main_j1+0x8fc>
80001b34:	0140b7b3          	sltu	a5,ra,s4
80001b38:	03950463          	beq	a0,s9,80001b60 <main_j1+0x90c>
80001b3c:	03d09c63          	bne	ra,t4,80001b74 <main_j1+0x920>
80001b40:	e4ccbc97          	auipc	s9,0xe4ccb
80001b44:	e5e3fb93          	andi	s7,t2,-418
80001b48:	0072c133          	xor	sp,t0,t2
80001b4c:	dd88a013          	slti	zero,a7,-552
80001b50:	019fe0b3          	or	ra,t6,s9
80001b54:	00d09993          	slli	s3,ra,0xd
80001b58:	e5a8cb93          	xori	s7,a7,-422
80001b5c:	e4ccbc97          	auipc	s9,0xe4ccb
80001b60:	03d09863          	bne	ra,t4,80001b90 <main_j1+0x93c>
80001b64:	024b7863          	bgeu	s6,tp,80001b94 <main_j1+0x940>
80001b68:	4158d193          	srai	gp,a7,0x15
80001b6c:	0072c133          	xor	sp,t0,t2
80001b70:	01431733          	sll	a4,t1,s4
80001b74:	dd88a013          	slti	zero,a7,-552
80001b78:	01c45713          	srli	a4,s0,0x1c
80001b7c:	0072c133          	xor	sp,t0,t2
80001b80:	036fd663          	bge	t6,s6,80001bac <main_j1+0x958>
80001b84:	4022ddb3          	sra	s11,t0,sp
80001b88:	dd88a013          	slti	zero,a7,-552
80001b8c:	0000100f          	fence.i
80001b90:	00000013          	nop
80001b94:	4022ddb3          	sra	s11,t0,sp
80001b98:	dd88a013          	slti	zero,a7,-552
80001b9c:	036fd663          	bge	t6,s6,80001bc8 <main_j1+0x974>
80001ba0:	0141adb3          	slt	s11,gp,s4
80001ba4:	41ae0833          	sub	a6,t3,s10
80001ba8:	019fe0b3          	or	ra,t6,s9
80001bac:	04d1e863          	bltu	gp,a3,80001bfc <main_j1+0x9a8>
80001bb0:	a08c68b7          	lui	a7,0xa08c6
80001bb4:	0307ca63          	blt	a5,a6,80001be8 <main_j1+0x994>
80001bb8:	0072c133          	xor	sp,t0,t2
80001bbc:	01950e63          	beq	a0,s9,80001bd8 <main_j1+0x984>
80001bc0:	bde33713          	sltiu	a4,t1,-1058
80001bc4:	056fd263          	bge	t6,s6,80001c08 <main_j1+0x9b4>
80001bc8:	03950863          	beq	a0,s9,80001bf8 <main_j1+0x9a4>
80001bcc:	a08c68b7          	lui	a7,0xa08c6
80001bd0:	01c45713          	srli	a4,s0,0x1c
80001bd4:	41ae0833          	sub	a6,t3,s10
80001bd8:	e4ccbc97          	auipc	s9,0xe4ccb
80001bdc:	bde33713          	sltiu	a4,t1,-1058
80001be0:	0307c663          	blt	a5,a6,80001c0c <main_j1+0x9b8>
80001be4:	056fd863          	bge	t6,s6,80001c34 <main_j1+0x9e0>
80001be8:	01537533          	and	a0,t1,s5
80001bec:	4158d193          	srai	gp,a7,0x15
80001bf0:	e4ccbc97          	auipc	s9,0xe4ccb
80001bf4:	01537533          	and	a0,t1,s5
80001bf8:	574a0113          	addi	sp,s4,1396
80001bfc:	0ff0000f          	fence
80001c00:	bde33713          	sltiu	a4,t1,-1058
80001c04:	01465bb3          	srl	s7,a2,s4
80001c08:	01537533          	and	a0,t1,s5
80001c0c:	01c45713          	srli	a4,s0,0x1c
80001c10:	00d09993          	slli	s3,ra,0xd
80001c14:	574a0113          	addi	sp,s4,1396
80001c18:	01537533          	and	a0,t1,s5
80001c1c:	0107ca63          	blt	a5,a6,80001c30 <main_j1+0x9dc>
80001c20:	01431733          	sll	a4,t1,s4
80001c24:	00d09993          	slli	s3,ra,0xd
80001c28:	0000100f          	fence.i
80001c2c:	bde33713          	sltiu	a4,t1,-1058
80001c30:	0141adb3          	slt	s11,gp,s4
80001c34:	c66de993          	ori	s3,s11,-922
80001c38:	4022ddb3          	sra	s11,t0,sp
80001c3c:	0307ca63          	blt	a5,a6,80001c70 <main_j1+0xa1c>
80001c40:	05d09663          	bne	ra,t4,80001c8c <main_j1+0xa38>
80001c44:	4022ddb3          	sra	s11,t0,sp
80001c48:	03950a63          	beq	a0,s9,80001c7c <main_j1+0xa28>
80001c4c:	4022ddb3          	sra	s11,t0,sp
80001c50:	01d09863          	bne	ra,t4,80001c60 <main_j1+0xa0c>
80001c54:	0141adb3          	slt	s11,gp,s4
80001c58:	574a0113          	addi	sp,s4,1396
80001c5c:	a08c68b7          	lui	a7,0xa08c6
80001c60:	0140b7b3          	sltu	a5,ra,s4
80001c64:	e5e3fb93          	andi	s7,t2,-418
80001c68:	4022ddb3          	sra	s11,t0,sp
80001c6c:	01950863          	beq	a0,s9,80001c7c <main_j1+0xa28>
80001c70:	e5e3fb93          	andi	s7,t2,-418
80001c74:	e5a8cb93          	xori	s7,a7,-422
80001c78:	04d1e063          	bltu	gp,a3,80001cb8 <main_j1+0xa64>
80001c7c:	00d09993          	slli	s3,ra,0xd
80001c80:	00000013          	nop
80001c84:	05950063          	beq	a0,s9,80001cc4 <main_j1+0xa70>
80001c88:	e5e3fb93          	andi	s7,t2,-418
80001c8c:	03d09a63          	bne	ra,t4,80001cc0 <main_j1+0xa6c>
80001c90:	00000013          	nop
80001c94:	574a0113          	addi	sp,s4,1396
80001c98:	e4ccbc97          	auipc	s9,0xe4ccb
80001c9c:	e5a8cb93          	xori	s7,a7,-422
80001ca0:	019fe0b3          	or	ra,t6,s9
80001ca4:	c66de993          	ori	s3,s11,-922
80001ca8:	a08c68b7          	lui	a7,0xa08c6
80001cac:	0140b7b3          	sltu	a5,ra,s4
80001cb0:	e5e3fb93          	andi	s7,t2,-418
80001cb4:	019fe0b3          	or	ra,t6,s9
80001cb8:	bde33713          	sltiu	a4,t1,-1058
80001cbc:	a08c68b7          	lui	a7,0xa08c6
80001cc0:	024b7263          	bgeu	s6,tp,80001ce4 <main_j1+0xa90>
80001cc4:	01808433          	add	s0,ra,s8
80001cc8:	a08c68b7          	lui	a7,0xa08c6
80001ccc:	0000100f          	fence.i
80001cd0:	01950463          	beq	a0,s9,80001cd8 <main_j1+0xa84>
80001cd4:	a08c68b7          	lui	a7,0xa08c6
80001cd8:	004b7863          	bgeu	s6,tp,80001ce8 <main_j1+0xa94>
80001cdc:	01c45713          	srli	a4,s0,0x1c
80001ce0:	044b7063          	bgeu	s6,tp,80001d20 <main_j1+0xacc>
80001ce4:	0140b7b3          	sltu	a5,ra,s4
80001ce8:	a08c68b7          	lui	a7,0xa08c6
80001cec:	574a0113          	addi	sp,s4,1396
80001cf0:	024b7263          	bgeu	s6,tp,80001d14 <main_j1+0xac0>
80001cf4:	574a0113          	addi	sp,s4,1396
80001cf8:	00000013          	nop
80001cfc:	01537533          	and	a0,t1,s5
80001d00:	01808433          	add	s0,ra,s8
80001d04:	00000013          	nop
80001d08:	4022ddb3          	sra	s11,t0,sp
80001d0c:	01465bb3          	srl	s7,a2,s4
80001d10:	01d09e63          	bne	ra,t4,80001d2c <main_j1+0xad8>
80001d14:	c66de993          	ori	s3,s11,-922
80001d18:	41ae0833          	sub	a6,t3,s10
80001d1c:	0140b7b3          	sltu	a5,ra,s4
80001d20:	016fd663          	bge	t6,s6,80001d2c <main_j1+0xad8>
80001d24:	574a0113          	addi	sp,s4,1396
80001d28:	41ae0833          	sub	a6,t3,s10
80001d2c:	01537533          	and	a0,t1,s5
80001d30:	00000697          	auipc	a3,0x0
80001d34:	00c68693          	addi	a3,a3,12 # 80001d3c <test_done>
80001d38:	00068067          	jr	a3

80001d3c <test_done>:
80001d3c:	00100193          	li	gp,1
80001d40:	00000073          	ecall

80001d44 <sub_1>:
80001d44:	01465c33          	srl	s8,a2,s4
80001d48:	016fd663          	bge	t6,s6,80001d54 <sub_1_stack_p>
80001d4c:	00d09a13          	slli	s4,ra,0xd
80001d50:	018084b3          	add	s1,ra,s8

80001d54 <sub_1_stack_p>:
80001d54:	ff430313          	addi	t1,t1,-12
80001d58:	01c45793          	srli	a5,s0,0x1c
80001d5c:	00132223          	sw	ra,4(t1)
80001d60:	4158d213          	srai	tp,a7,0x15
80001d64:	a08c6937          	lui	s2,0xa08c6
80001d68:	01465c33          	srl	s8,a2,s4
80001d6c:	41ae0833          	sub	a6,t3,s10
80001d70:	0140b7b3          	sltu	a5,ra,s4
80001d74:	01537533          	and	a0,t1,s5
80001d78:	0000100f          	fence.i
80001d7c:	019fe0b3          	or	ra,t6,s9
80001d80:	4158d193          	srai	gp,a7,0x15
80001d84:	e4ccbc97          	auipc	s9,0xe4ccb
80001d88:	01465bb3          	srl	s7,a2,s4
80001d8c:	016fd863          	bge	t6,s6,80001d9c <sub_1_stack_p+0x48>
80001d90:	4158d193          	srai	gp,a7,0x15
80001d94:	01c45713          	srli	a4,s0,0x1c
80001d98:	00d09993          	slli	s3,ra,0xd
80001d9c:	0ff0000f          	fence
80001da0:	a08c68b7          	lui	a7,0xa08c6
80001da4:	4158d193          	srai	gp,a7,0x15
80001da8:	0141adb3          	slt	s11,gp,s4
80001dac:	41ae0833          	sub	a6,t3,s10
80001db0:	4158d193          	srai	gp,a7,0x15
80001db4:	00000013          	nop
80001db8:	019fe0b3          	or	ra,t6,s9
80001dbc:	01808433          	add	s0,ra,s8
80001dc0:	056fd263          	bge	t6,s6,80001e04 <sub_1_stack_p+0xb0>
80001dc4:	01537533          	and	a0,t1,s5
80001dc8:	dd88a013          	slti	zero,a7,-552
80001dcc:	0000100f          	fence.i
80001dd0:	01c45713          	srli	a4,s0,0x1c
80001dd4:	0ff0000f          	fence
80001dd8:	01808433          	add	s0,ra,s8
80001ddc:	4158d193          	srai	gp,a7,0x15
80001de0:	4158d193          	srai	gp,a7,0x15
80001de4:	bde33713          	sltiu	a4,t1,-1058
80001de8:	01808433          	add	s0,ra,s8
80001dec:	0ff0000f          	fence
80001df0:	a08c68b7          	lui	a7,0xa08c6
80001df4:	019fe0b3          	or	ra,t6,s9
80001df8:	41ae0833          	sub	a6,t3,s10
80001dfc:	574a0113          	addi	sp,s4,1396
80001e00:	e4ccbc97          	auipc	s9,0xe4ccb
80001e04:	0141adb3          	slt	s11,gp,s4
80001e08:	0000100f          	fence.i
80001e0c:	0072c133          	xor	sp,t0,t2
80001e10:	0307ca63          	blt	a5,a6,80001e44 <sub_1_stack_p+0xf0>
80001e14:	036fd063          	bge	t6,s6,80001e34 <sub_1_stack_p+0xe0>
80001e18:	00000013          	nop
80001e1c:	e5e3fb93          	andi	s7,t2,-418
80001e20:	00d09993          	slli	s3,ra,0xd
80001e24:	dd88a013          	slti	zero,a7,-552
80001e28:	0140b7b3          	sltu	a5,ra,s4
80001e2c:	c66de993          	ori	s3,s11,-922
80001e30:	01c45713          	srli	a4,s0,0x1c
80001e34:	41ae0833          	sub	a6,t3,s10
80001e38:	00000013          	nop
80001e3c:	00d09993          	slli	s3,ra,0xd
80001e40:	e5e3fb93          	andi	s7,t2,-418
80001e44:	0072c133          	xor	sp,t0,t2
80001e48:	05d09663          	bne	ra,t4,80001e94 <sub_1_stack_p+0x140>
80001e4c:	01431733          	sll	a4,t1,s4
80001e50:	03950863          	beq	a0,s9,80001e80 <sub_1_stack_p+0x12c>
80001e54:	01431733          	sll	a4,t1,s4
80001e58:	0140b7b3          	sltu	a5,ra,s4
80001e5c:	04d1e063          	bltu	gp,a3,80001e9c <sub_1_stack_p+0x148>
80001e60:	00000013          	nop
80001e64:	03d09a63          	bne	ra,t4,80001e98 <sub_1_stack_p+0x144>
80001e68:	01808433          	add	s0,ra,s8
80001e6c:	574a0113          	addi	sp,s4,1396
80001e70:	01808433          	add	s0,ra,s8
80001e74:	e4ccbc97          	auipc	s9,0xe4ccb
80001e78:	4158d193          	srai	gp,a7,0x15
80001e7c:	01c45713          	srli	a4,s0,0x1c
80001e80:	0ff0000f          	fence
80001e84:	00000013          	nop
80001e88:	019fe0b3          	or	ra,t6,s9
80001e8c:	574a0113          	addi	sp,s4,1396
80001e90:	41ae0833          	sub	a6,t3,s10
80001e94:	0072c133          	xor	sp,t0,t2
80001e98:	c66de993          	ori	s3,s11,-922
80001e9c:	0000100f          	fence.i
80001ea0:	0000100f          	fence.i
80001ea4:	dd88a013          	slti	zero,a7,-552
80001ea8:	05950663          	beq	a0,s9,80001ef4 <sub_1_stack_p+0x1a0>
80001eac:	01c45713          	srli	a4,s0,0x1c
80001eb0:	01465bb3          	srl	s7,a2,s4
80001eb4:	0140b7b3          	sltu	a5,ra,s4
80001eb8:	01537533          	and	a0,t1,s5
80001ebc:	01431733          	sll	a4,t1,s4
80001ec0:	01465bb3          	srl	s7,a2,s4
80001ec4:	05950263          	beq	a0,s9,80001f08 <sub_1_stack_p+0x1b4>
80001ec8:	e4ccbc97          	auipc	s9,0xe4ccb
80001ecc:	016fd863          	bge	t6,s6,80001edc <sub_1_stack_p+0x188>
80001ed0:	056fd063          	bge	t6,s6,80001f10 <sub_1_stack_p+0x1bc>
80001ed4:	e5a8cb93          	xori	s7,a7,-422
80001ed8:	bde33713          	sltiu	a4,t1,-1058
80001edc:	e5a8cb93          	xori	s7,a7,-422
80001ee0:	4158d193          	srai	gp,a7,0x15
80001ee4:	01c45713          	srli	a4,s0,0x1c
80001ee8:	01537533          	and	a0,t1,s5
80001eec:	004b7a63          	bgeu	s6,tp,80001f00 <sub_1_stack_p+0x1ac>
80001ef0:	03950463          	beq	a0,s9,80001f18 <sub_1_stack_p+0x1c4>
80001ef4:	4158d193          	srai	gp,a7,0x15
80001ef8:	0140b7b3          	sltu	a5,ra,s4
80001efc:	019fe0b3          	or	ra,t6,s9
80001f00:	0ff0000f          	fence
80001f04:	01465bb3          	srl	s7,a2,s4
80001f08:	036fd663          	bge	t6,s6,80001f34 <sub_1_stack_p+0x1e0>
80001f0c:	01808433          	add	s0,ra,s8
80001f10:	c66de993          	ori	s3,s11,-922
80001f14:	41ae0833          	sub	a6,t3,s10
80001f18:	01431733          	sll	a4,t1,s4
80001f1c:	00000013          	nop
80001f20:	dd88a013          	slti	zero,a7,-552
80001f24:	01950c63          	beq	a0,s9,80001f3c <sub_1_stack_p+0x1e8>
80001f28:	e5a8cb93          	xori	s7,a7,-422
80001f2c:	01465bb3          	srl	s7,a2,s4
80001f30:	044b7463          	bgeu	s6,tp,80001f78 <sub_1_stack_p+0x224>
80001f34:	574a0113          	addi	sp,s4,1396
80001f38:	024b7e63          	bgeu	s6,tp,80001f74 <sub_1_stack_p+0x220>
80001f3c:	00000013          	nop
80001f40:	01465bb3          	srl	s7,a2,s4
80001f44:	036fd663          	bge	t6,s6,80001f70 <sub_1_stack_p+0x21c>
80001f48:	4158d193          	srai	gp,a7,0x15
80001f4c:	4158d193          	srai	gp,a7,0x15
80001f50:	019fe0b3          	or	ra,t6,s9
80001f54:	0072c133          	xor	sp,t0,t2
80001f58:	016fd263          	bge	t6,s6,80001f5c <sub_1_stack_p+0x208>
80001f5c:	4158d193          	srai	gp,a7,0x15
80001f60:	0072c133          	xor	sp,t0,t2
80001f64:	00d09993          	slli	s3,ra,0xd
80001f68:	a08c68b7          	lui	a7,0xa08c6
80001f6c:	574a0113          	addi	sp,s4,1396
80001f70:	0140b7b3          	sltu	a5,ra,s4
80001f74:	01808433          	add	s0,ra,s8
80001f78:	bde33713          	sltiu	a4,t1,-1058
80001f7c:	e5a8cb93          	xori	s7,a7,-422
80001f80:	01465bb3          	srl	s7,a2,s4
80001f84:	0ff0000f          	fence
80001f88:	01808433          	add	s0,ra,s8
80001f8c:	036fd663          	bge	t6,s6,80001fb8 <sub_1_stack_p+0x264>
80001f90:	01537533          	and	a0,t1,s5
80001f94:	e5a8cb93          	xori	s7,a7,-422
80001f98:	0ff0000f          	fence
80001f9c:	4022ddb3          	sra	s11,t0,sp
80001fa0:	016fd463          	bge	t6,s6,80001fa8 <sub_1_stack_p+0x254>
80001fa4:	bde33713          	sltiu	a4,t1,-1058
80001fa8:	01465bb3          	srl	s7,a2,s4
80001fac:	01808433          	add	s0,ra,s8
80001fb0:	01431733          	sll	a4,t1,s4
80001fb4:	01431733          	sll	a4,t1,s4
80001fb8:	e5e3fb93          	andi	s7,t2,-418
80001fbc:	574a0113          	addi	sp,s4,1396
80001fc0:	41ae0833          	sub	a6,t3,s10
80001fc4:	02d1ea63          	bltu	gp,a3,80001ff8 <sub_1_stack_p+0x2a4>
80001fc8:	bde33713          	sltiu	a4,t1,-1058
80001fcc:	41ae0833          	sub	a6,t3,s10
80001fd0:	0307c063          	blt	a5,a6,80001ff0 <sub_1_stack_p+0x29c>
80001fd4:	01431733          	sll	a4,t1,s4
80001fd8:	01c45713          	srli	a4,s0,0x1c
80001fdc:	0140b7b3          	sltu	a5,ra,s4
80001fe0:	01537533          	and	a0,t1,s5
80001fe4:	0072c133          	xor	sp,t0,t2
80001fe8:	4022ddb3          	sra	s11,t0,sp
80001fec:	574a0113          	addi	sp,s4,1396
80001ff0:	0141adb3          	slt	s11,gp,s4
80001ff4:	4022ddb3          	sra	s11,t0,sp
80001ff8:	00d09993          	slli	s3,ra,0xd
80001ffc:	04d1e463          	bltu	gp,a3,80002044 <sub_1_stack_p+0x2f0>
80002000:	0141adb3          	slt	s11,gp,s4
80002004:	a08c68b7          	lui	a7,0xa08c6
80002008:	c66de993          	ori	s3,s11,-922
8000200c:	0ff0000f          	fence
80002010:	574a0113          	addi	sp,s4,1396
80002014:	0000100f          	fence.i
80002018:	a08c68b7          	lui	a7,0xa08c6
8000201c:	0141adb3          	slt	s11,gp,s4
80002020:	0000100f          	fence.i
80002024:	574a0113          	addi	sp,s4,1396
80002028:	4022ddb3          	sra	s11,t0,sp
8000202c:	004b7263          	bgeu	s6,tp,80002030 <sub_1_stack_p+0x2dc>
80002030:	00000013          	nop
80002034:	0507c263          	blt	a5,a6,80002078 <sub_1_stack_p+0x324>
80002038:	e4ccbc97          	auipc	s9,0xe4ccb
8000203c:	0507c263          	blt	a5,a6,80002080 <sub_1_stack_p+0x32c>
80002040:	c66de993          	ori	s3,s11,-922
80002044:	e5e3fb93          	andi	s7,t2,-418
80002048:	e5e3fb93          	andi	s7,t2,-418
8000204c:	01431733          	sll	a4,t1,s4
80002050:	0000100f          	fence.i
80002054:	00d09993          	slli	s3,ra,0xd
80002058:	01537533          	and	a0,t1,s5
8000205c:	01d09e63          	bne	ra,t4,80002078 <sub_1_stack_p+0x324>
80002060:	a08c68b7          	lui	a7,0xa08c6
80002064:	0107c263          	blt	a5,a6,80002068 <sub_1_stack_p+0x314>
80002068:	01465bb3          	srl	s7,a2,s4
8000206c:	41ae0833          	sub	a6,t3,s10
80002070:	056fd263          	bge	t6,s6,800020b4 <sub_1_stack_p+0x360>
80002074:	0ff0000f          	fence
80002078:	0140b7b3          	sltu	a5,ra,s4
8000207c:	4158d193          	srai	gp,a7,0x15
80002080:	e5a8cb93          	xori	s7,a7,-422
80002084:	e5a8cb93          	xori	s7,a7,-422
80002088:	0000100f          	fence.i
8000208c:	05950263          	beq	a0,s9,800020d0 <sub_1_stack_p+0x37c>
80002090:	01537533          	and	a0,t1,s5
80002094:	4022ddb3          	sra	s11,t0,sp
80002098:	574a0113          	addi	sp,s4,1396
8000209c:	4158d193          	srai	gp,a7,0x15
800020a0:	01431733          	sll	a4,t1,s4
800020a4:	0000100f          	fence.i
800020a8:	016fde63          	bge	t6,s6,800020c4 <sub_1_stack_p+0x370>
800020ac:	0ff0000f          	fence
800020b0:	dd88a013          	slti	zero,a7,-552
800020b4:	04d1e663          	bltu	gp,a3,80002100 <sub_1_stack_p+0x3ac>
800020b8:	00d1e863          	bltu	gp,a3,800020c8 <sub_1_stack_p+0x374>
800020bc:	01537533          	and	a0,t1,s5
800020c0:	05950263          	beq	a0,s9,80002104 <sub_1_stack_p+0x3b0>
800020c4:	00000013          	nop
800020c8:	0507c063          	blt	a5,a6,80002108 <sub_1_stack_p+0x3b4>
800020cc:	0ff0000f          	fence
800020d0:	01465bb3          	srl	s7,a2,s4
800020d4:	bde33713          	sltiu	a4,t1,-1058
800020d8:	03950a63          	beq	a0,s9,8000210c <sub_1_stack_p+0x3b8>
800020dc:	574a0113          	addi	sp,s4,1396
800020e0:	41ae0833          	sub	a6,t3,s10
800020e4:	0140b7b3          	sltu	a5,ra,s4
800020e8:	024b7663          	bgeu	s6,tp,80002114 <sub_1_stack_p+0x3c0>
800020ec:	00000013          	nop
800020f0:	4158d193          	srai	gp,a7,0x15
800020f4:	c66de993          	ori	s3,s11,-922
800020f8:	00000013          	nop
800020fc:	a08c68b7          	lui	a7,0xa08c6
80002100:	e5a8cb93          	xori	s7,a7,-422
80002104:	01808433          	add	s0,ra,s8
80002108:	01537533          	and	a0,t1,s5
8000210c:	024b7663          	bgeu	s6,tp,80002138 <sub_1_stack_p+0x3e4>
80002110:	01950263          	beq	a0,s9,80002114 <sub_1_stack_p+0x3c0>
80002114:	024b7063          	bgeu	s6,tp,80002134 <sub_1_stack_p+0x3e0>
80002118:	e5e3fb93          	andi	s7,t2,-418
8000211c:	e5a8cb93          	xori	s7,a7,-422
80002120:	00d09993          	slli	s3,ra,0xd
80002124:	41ae0833          	sub	a6,t3,s10
80002128:	0140b7b3          	sltu	a5,ra,s4
8000212c:	e5a8cb93          	xori	s7,a7,-422
80002130:	019fe0b3          	or	ra,t6,s9
80002134:	574a0113          	addi	sp,s4,1396
80002138:	01808433          	add	s0,ra,s8
8000213c:	41ae0833          	sub	a6,t3,s10
80002140:	dd88a013          	slti	zero,a7,-552
80002144:	01808433          	add	s0,ra,s8
80002148:	574a0113          	addi	sp,s4,1396
8000214c:	016fd863          	bge	t6,s6,8000215c <sub_1_stack_p+0x408>
80002150:	0307c463          	blt	a5,a6,80002178 <sub_1_stack_p+0x424>
80002154:	e5a8cb93          	xori	s7,a7,-422
80002158:	0000100f          	fence.i
8000215c:	00d09993          	slli	s3,ra,0xd
80002160:	024b7863          	bgeu	s6,tp,80002190 <sub_1_stack_p+0x43c>
80002164:	00000013          	nop
80002168:	574a0113          	addi	sp,s4,1396
8000216c:	01465bb3          	srl	s7,a2,s4
80002170:	00d09993          	slli	s3,ra,0xd
80002174:	0000100f          	fence.i
80002178:	4158d193          	srai	gp,a7,0x15
8000217c:	05d09063          	bne	ra,t4,800021bc <sub_1_stack_p+0x468>
80002180:	bde33713          	sltiu	a4,t1,-1058
80002184:	0141adb3          	slt	s11,gp,s4
80002188:	4022ddb3          	sra	s11,t0,sp
8000218c:	e4ccbc97          	auipc	s9,0xe4ccb
80002190:	41ae0833          	sub	a6,t3,s10
80002194:	01465bb3          	srl	s7,a2,s4
80002198:	02d1e663          	bltu	gp,a3,800021c4 <sub_1_stack_p+0x470>
8000219c:	01808433          	add	s0,ra,s8
800021a0:	01431733          	sll	a4,t1,s4
800021a4:	0307c063          	blt	a5,a6,800021c4 <sub_1_stack_p+0x470>
800021a8:	41ae0833          	sub	a6,t3,s10
800021ac:	4158d193          	srai	gp,a7,0x15
800021b0:	01c45713          	srli	a4,s0,0x1c
800021b4:	4158d193          	srai	gp,a7,0x15
800021b8:	c66de993          	ori	s3,s11,-922
800021bc:	4022ddb3          	sra	s11,t0,sp
800021c0:	00000013          	nop
800021c4:	019fe0b3          	or	ra,t6,s9
800021c8:	4158d193          	srai	gp,a7,0x15
800021cc:	0000100f          	fence.i
800021d0:	0ff0000f          	fence
800021d4:	41ae0833          	sub	a6,t3,s10
800021d8:	e5a8cb93          	xori	s7,a7,-422
800021dc:	016fdc63          	bge	t6,s6,800021f4 <sub_1_stack_p+0x4a0>
800021e0:	e5a8cb93          	xori	s7,a7,-422
800021e4:	01c45713          	srli	a4,s0,0x1c
800021e8:	01537533          	and	a0,t1,s5
800021ec:	0141adb3          	slt	s11,gp,s4
800021f0:	056fd463          	bge	t6,s6,80002238 <sub_1_stack_p+0x4e4>
800021f4:	4158d193          	srai	gp,a7,0x15
800021f8:	0000100f          	fence.i
800021fc:	01808433          	add	s0,ra,s8
80002200:	01465bb3          	srl	s7,a2,s4
80002204:	0140b7b3          	sltu	a5,ra,s4
80002208:	0140b7b3          	sltu	a5,ra,s4
8000220c:	41ae0833          	sub	a6,t3,s10
80002210:	01465bb3          	srl	s7,a2,s4
80002214:	e5a8cb93          	xori	s7,a7,-422
80002218:	01465bb3          	srl	s7,a2,s4
8000221c:	bde33713          	sltiu	a4,t1,-1058
80002220:	0072c133          	xor	sp,t0,t2
80002224:	00d09993          	slli	s3,ra,0xd
80002228:	4158d193          	srai	gp,a7,0x15
8000222c:	01537533          	and	a0,t1,s5
80002230:	019fe0b3          	or	ra,t6,s9
80002234:	574a0113          	addi	sp,s4,1396
80002238:	a08c68b7          	lui	a7,0xa08c6
8000223c:	4158d193          	srai	gp,a7,0x15
80002240:	a08c68b7          	lui	a7,0xa08c6
80002244:	4158d193          	srai	gp,a7,0x15
80002248:	01537533          	and	a0,t1,s5
8000224c:	01c45713          	srli	a4,s0,0x1c
80002250:	01d09a63          	bne	ra,t4,80002264 <sub_1_stack_p+0x510>
80002254:	01d09463          	bne	ra,t4,8000225c <sub_1_stack_p+0x508>
80002258:	574a0113          	addi	sp,s4,1396
8000225c:	574a0113          	addi	sp,s4,1396
80002260:	0ff0000f          	fence
80002264:	dd88a013          	slti	zero,a7,-552
80002268:	056fd663          	bge	t6,s6,800022b4 <sub_1_stack_p+0x560>
8000226c:	019fe0b3          	or	ra,t6,s9
80002270:	0140b7b3          	sltu	a5,ra,s4
80002274:	03d09a63          	bne	ra,t4,800022a8 <sub_1_stack_p+0x554>
80002278:	c66de993          	ori	s3,s11,-922
8000227c:	01d09263          	bne	ra,t4,80002280 <sub_1_stack_p+0x52c>
80002280:	0507c263          	blt	a5,a6,800022c4 <sub_1_stack_p+0x570>
80002284:	00000013          	nop
80002288:	05950463          	beq	a0,s9,800022d0 <sub_1_stack_p+0x57c>
8000228c:	00000013          	nop
80002290:	4022ddb3          	sra	s11,t0,sp
80002294:	03d09a63          	bne	ra,t4,800022c8 <sub_1_stack_p+0x574>
80002298:	01431733          	sll	a4,t1,s4
8000229c:	00000013          	nop
800022a0:	e5e3fb93          	andi	s7,t2,-418
800022a4:	01950263          	beq	a0,s9,800022a8 <sub_1_stack_p+0x554>
800022a8:	01431733          	sll	a4,t1,s4
800022ac:	01465bb3          	srl	s7,a2,s4
800022b0:	0072c133          	xor	sp,t0,t2
800022b4:	bde33713          	sltiu	a4,t1,-1058
800022b8:	0307ce63          	blt	a5,a6,800022f4 <sub_1_stack_p+0x5a0>
800022bc:	019fe0b3          	or	ra,t6,s9
800022c0:	01431733          	sll	a4,t1,s4
800022c4:	574a0113          	addi	sp,s4,1396
800022c8:	01431733          	sll	a4,t1,s4
800022cc:	bde33713          	sltiu	a4,t1,-1058
800022d0:	e4ccbc97          	auipc	s9,0xe4ccb
800022d4:	0141adb3          	slt	s11,gp,s4
800022d8:	01431733          	sll	a4,t1,s4
800022dc:	0140b7b3          	sltu	a5,ra,s4
800022e0:	00000013          	nop
800022e4:	4158d193          	srai	gp,a7,0x15
800022e8:	4158d193          	srai	gp,a7,0x15
800022ec:	574a0113          	addi	sp,s4,1396
800022f0:	0140b7b3          	sltu	a5,ra,s4
800022f4:	c66de993          	ori	s3,s11,-922
800022f8:	bde33713          	sltiu	a4,t1,-1058
800022fc:	019fe0b3          	or	ra,t6,s9
80002300:	0000100f          	fence.i
80002304:	41ae0833          	sub	a6,t3,s10
80002308:	4022ddb3          	sra	s11,t0,sp
8000230c:	0141adb3          	slt	s11,gp,s4
80002310:	01d09263          	bne	ra,t4,80002314 <sub_1_stack_p+0x5c0>
80002314:	e5a8cb93          	xori	s7,a7,-422
80002318:	01808433          	add	s0,ra,s8
8000231c:	4022ddb3          	sra	s11,t0,sp
80002320:	0ff0000f          	fence
80002324:	e5e3fb93          	andi	s7,t2,-418
80002328:	01c45713          	srli	a4,s0,0x1c
8000232c:	01465bb3          	srl	s7,a2,s4
80002330:	574a0113          	addi	sp,s4,1396
80002334:	574a0113          	addi	sp,s4,1396
80002338:	41ae0833          	sub	a6,t3,s10
8000233c:	00000013          	nop
80002340:	4158d193          	srai	gp,a7,0x15
80002344:	00000013          	nop
80002348:	01808433          	add	s0,ra,s8
8000234c:	0000100f          	fence.i
80002350:	0507c263          	blt	a5,a6,80002394 <sub_1_stack_p+0x640>
80002354:	e5a8cb93          	xori	s7,a7,-422
80002358:	01431733          	sll	a4,t1,s4
8000235c:	00d1e863          	bltu	gp,a3,8000236c <sub_1_stack_p+0x618>
80002360:	0000100f          	fence.i
80002364:	41ae0833          	sub	a6,t3,s10
80002368:	4022ddb3          	sra	s11,t0,sp
8000236c:	a08c68b7          	lui	a7,0xa08c6
80002370:	0000100f          	fence.i
80002374:	04d1e663          	bltu	gp,a3,800023c0 <sub_1_stack_p+0x66c>
80002378:	4158d193          	srai	gp,a7,0x15
8000237c:	00000013          	nop
80002380:	0000100f          	fence.i
80002384:	4022ddb3          	sra	s11,t0,sp
80002388:	0141adb3          	slt	s11,gp,s4
8000238c:	01537533          	and	a0,t1,s5
80002390:	00d09993          	slli	s3,ra,0xd
80002394:	00d09993          	slli	s3,ra,0xd
80002398:	01465bb3          	srl	s7,a2,s4
8000239c:	00000013          	nop
800023a0:	004b7263          	bgeu	s6,tp,800023a4 <sub_1_stack_p+0x650>
800023a4:	bde33713          	sltiu	a4,t1,-1058
800023a8:	0ff0000f          	fence
800023ac:	e5e3fb93          	andi	s7,t2,-418
800023b0:	016fde63          	bge	t6,s6,800023cc <sub_1_stack_p+0x678>
800023b4:	01431733          	sll	a4,t1,s4
800023b8:	01537533          	and	a0,t1,s5
800023bc:	0140b7b3          	sltu	a5,ra,s4
800023c0:	05d09263          	bne	ra,t4,80002404 <sub_1_stack_p+0x6b0>
800023c4:	0000100f          	fence.i
800023c8:	e5a8cb93          	xori	s7,a7,-422
800023cc:	00000013          	nop
800023d0:	41ae0833          	sub	a6,t3,s10
800023d4:	e5e3fb93          	andi	s7,t2,-418
800023d8:	e5e3fb93          	andi	s7,t2,-418
800023dc:	016fda63          	bge	t6,s6,800023f0 <sub_1_stack_p+0x69c>
800023e0:	0140b7b3          	sltu	a5,ra,s4
800023e4:	4022ddb3          	sra	s11,t0,sp
800023e8:	0ff0000f          	fence
800023ec:	4158d193          	srai	gp,a7,0x15
800023f0:	0140b7b3          	sltu	a5,ra,s4
800023f4:	c66de993          	ori	s3,s11,-922
800023f8:	a08c68b7          	lui	a7,0xa08c6
800023fc:	e5e3fb93          	andi	s7,t2,-418
80002400:	056fd263          	bge	t6,s6,80002444 <sub_1_stack_p+0x6f0>
80002404:	41ae0833          	sub	a6,t3,s10
80002408:	0140b7b3          	sltu	a5,ra,s4
8000240c:	e5a8cb93          	xori	s7,a7,-422
80002410:	01c45713          	srli	a4,s0,0x1c
80002414:	01808433          	add	s0,ra,s8
80002418:	a08c68b7          	lui	a7,0xa08c6
8000241c:	01431733          	sll	a4,t1,s4
80002420:	019fe0b3          	or	ra,t6,s9
80002424:	0ff0000f          	fence
80002428:	e5e3fb93          	andi	s7,t2,-418
8000242c:	0ff0000f          	fence
80002430:	05950063          	beq	a0,s9,80002470 <sub_1_stack_p+0x71c>
80002434:	dd88a013          	slti	zero,a7,-552
80002438:	e4ccbc97          	auipc	s9,0xe4ccb
8000243c:	01537533          	and	a0,t1,s5
80002440:	e5a8cb93          	xori	s7,a7,-422
80002444:	01465bb3          	srl	s7,a2,s4
80002448:	01808433          	add	s0,ra,s8
8000244c:	e5e3fb93          	andi	s7,t2,-418
80002450:	01537533          	and	a0,t1,s5
80002454:	019fe0b3          	or	ra,t6,s9
80002458:	024b7463          	bgeu	s6,tp,80002480 <sub_1_stack_p+0x72c>
8000245c:	01431733          	sll	a4,t1,s4
80002460:	01537533          	and	a0,t1,s5
80002464:	01c45713          	srli	a4,s0,0x1c
80002468:	e5e3fb93          	andi	s7,t2,-418
8000246c:	0140b7b3          	sltu	a5,ra,s4
80002470:	01808433          	add	s0,ra,s8
80002474:	0000100f          	fence.i
80002478:	0141adb3          	slt	s11,gp,s4
8000247c:	e5a8cb93          	xori	s7,a7,-422
80002480:	036fde63          	bge	t6,s6,800024bc <sub_1_stack_p+0x768>
80002484:	0141adb3          	slt	s11,gp,s4
80002488:	01808433          	add	s0,ra,s8
8000248c:	01465bb3          	srl	s7,a2,s4
80002490:	c66de993          	ori	s3,s11,-922
80002494:	0140b7b3          	sltu	a5,ra,s4
80002498:	01537533          	and	a0,t1,s5
8000249c:	01537533          	and	a0,t1,s5
800024a0:	01431733          	sll	a4,t1,s4
800024a4:	0072c133          	xor	sp,t0,t2
800024a8:	00000013          	nop
800024ac:	bde33713          	sltiu	a4,t1,-1058
800024b0:	0000100f          	fence.i
800024b4:	c66de993          	ori	s3,s11,-922
800024b8:	a08c68b7          	lui	a7,0xa08c6
800024bc:	0307ca63          	blt	a5,a6,800024f0 <sub_1_stack_p+0x79c>
800024c0:	dd88a013          	slti	zero,a7,-552
800024c4:	dd88a013          	slti	zero,a7,-552
800024c8:	0141adb3          	slt	s11,gp,s4
800024cc:	03950663          	beq	a0,s9,800024f8 <sub_1_stack_p+0x7a4>
800024d0:	0ff0000f          	fence
800024d4:	e5a8cb93          	xori	s7,a7,-422
800024d8:	01465bb3          	srl	s7,a2,s4
800024dc:	016fdc63          	bge	t6,s6,800024f4 <sub_1_stack_p+0x7a0>
800024e0:	574a0113          	addi	sp,s4,1396
800024e4:	0141adb3          	slt	s11,gp,s4
800024e8:	dd88a013          	slti	zero,a7,-552
800024ec:	a08c68b7          	lui	a7,0xa08c6
800024f0:	0000100f          	fence.i
800024f4:	01d09263          	bne	ra,t4,800024f8 <sub_1_stack_p+0x7a4>
800024f8:	01431733          	sll	a4,t1,s4
800024fc:	00000013          	nop
80002500:	03d09a63          	bne	ra,t4,80002534 <sub_1_stack_p+0x7e0>
80002504:	01431733          	sll	a4,t1,s4
80002508:	00d09993          	slli	s3,ra,0xd
8000250c:	00d09993          	slli	s3,ra,0xd
80002510:	0140b7b3          	sltu	a5,ra,s4
80002514:	01808433          	add	s0,ra,s8
80002518:	056fd463          	bge	t6,s6,80002560 <sub_1_stack_p+0x80c>
8000251c:	c66de993          	ori	s3,s11,-922
80002520:	574a0113          	addi	sp,s4,1396
80002524:	4158d193          	srai	gp,a7,0x15
80002528:	e5a8cb93          	xori	s7,a7,-422
8000252c:	e5e3fb93          	andi	s7,t2,-418
80002530:	c66de993          	ori	s3,s11,-922
80002534:	044b7663          	bgeu	s6,tp,80002580 <sub_1_stack_p+0x82c>
80002538:	016fd463          	bge	t6,s6,80002540 <sub_1_stack_p+0x7ec>
8000253c:	e4ccbc97          	auipc	s9,0xe4ccb
80002540:	0141adb3          	slt	s11,gp,s4
80002544:	00d09993          	slli	s3,ra,0xd
80002548:	01808433          	add	s0,ra,s8
8000254c:	0000100f          	fence.i
80002550:	01c45713          	srli	a4,s0,0x1c
80002554:	e5e3fb93          	andi	s7,t2,-418
80002558:	0141adb3          	slt	s11,gp,s4
8000255c:	4022ddb3          	sra	s11,t0,sp
80002560:	0000100f          	fence.i
80002564:	e5e3fb93          	andi	s7,t2,-418
80002568:	0140b7b3          	sltu	a5,ra,s4
8000256c:	024b7063          	bgeu	s6,tp,8000258c <sub_1_stack_p+0x838>
80002570:	0140b7b3          	sltu	a5,ra,s4
80002574:	e5a8cb93          	xori	s7,a7,-422
80002578:	bde33713          	sltiu	a4,t1,-1058
8000257c:	056fd063          	bge	t6,s6,800025bc <sub_1_stack_p+0x868>
80002580:	01808433          	add	s0,ra,s8
80002584:	c66de993          	ori	s3,s11,-922
80002588:	e5a8cb93          	xori	s7,a7,-422
8000258c:	a08c68b7          	lui	a7,0xa08c6
80002590:	0ff0000f          	fence
80002594:	574a0113          	addi	sp,s4,1396
80002598:	02d1e663          	bltu	gp,a3,800025c4 <sub_1_stack_p+0x870>
8000259c:	c66de993          	ori	s3,s11,-922
800025a0:	044b7463          	bgeu	s6,tp,800025e8 <sub_1_stack_p+0x894>
800025a4:	e5a8cb93          	xori	s7,a7,-422
800025a8:	c66de993          	ori	s3,s11,-922
800025ac:	01c45713          	srli	a4,s0,0x1c
800025b0:	0ff0000f          	fence
800025b4:	05950263          	beq	a0,s9,800025f8 <sub_1_stack_p+0x8a4>
800025b8:	e5a8cb93          	xori	s7,a7,-422
800025bc:	dd88a013          	slti	zero,a7,-552
800025c0:	0307c063          	blt	a5,a6,800025e0 <sub_1_stack_p+0x88c>
800025c4:	0072c133          	xor	sp,t0,t2
800025c8:	024b7a63          	bgeu	s6,tp,800025fc <sub_1_stack_p+0x8a8>
800025cc:	01c45713          	srli	a4,s0,0x1c
800025d0:	0141adb3          	slt	s11,gp,s4
800025d4:	41ae0833          	sub	a6,t3,s10
800025d8:	e4ccbc97          	auipc	s9,0xe4ccb
800025dc:	01c45713          	srli	a4,s0,0x1c
800025e0:	4158d193          	srai	gp,a7,0x15
800025e4:	03950863          	beq	a0,s9,80002614 <sub_1_stack_p+0x8c0>
800025e8:	004b7863          	bgeu	s6,tp,800025f8 <sub_1_stack_p+0x8a4>
800025ec:	4158d193          	srai	gp,a7,0x15
800025f0:	4158d193          	srai	gp,a7,0x15
800025f4:	036fd663          	bge	t6,s6,80002620 <sub_1_stack_p+0x8cc>
800025f8:	0000100f          	fence.i
800025fc:	01c45713          	srli	a4,s0,0x1c
80002600:	00000013          	nop
80002604:	c66de993          	ori	s3,s11,-922
80002608:	e5a8cb93          	xori	s7,a7,-422
8000260c:	c66de993          	ori	s3,s11,-922
80002610:	01c45713          	srli	a4,s0,0x1c
80002614:	00d09993          	slli	s3,ra,0xd
80002618:	dd88a013          	slti	zero,a7,-552
8000261c:	e5e3fb93          	andi	s7,t2,-418
80002620:	4022ddb3          	sra	s11,t0,sp
80002624:	01808433          	add	s0,ra,s8
80002628:	019fe0b3          	or	ra,t6,s9
8000262c:	01465bb3          	srl	s7,a2,s4
80002630:	bde33713          	sltiu	a4,t1,-1058
80002634:	036fd063          	bge	t6,s6,80002654 <sub_1_stack_p+0x900>
80002638:	41ae0833          	sub	a6,t3,s10
8000263c:	016fdc63          	bge	t6,s6,80002654 <sub_1_stack_p+0x900>
80002640:	e5e3fb93          	andi	s7,t2,-418
80002644:	016fd863          	bge	t6,s6,80002654 <sub_1_stack_p+0x900>
80002648:	e5a8cb93          	xori	s7,a7,-422
8000264c:	00000013          	nop
80002650:	019fe0b3          	or	ra,t6,s9
80002654:	0072c133          	xor	sp,t0,t2
80002658:	4158d193          	srai	gp,a7,0x15
8000265c:	0307c663          	blt	a5,a6,80002688 <sub_1_stack_p+0x934>
80002660:	01c45713          	srli	a4,s0,0x1c
80002664:	dd88a013          	slti	zero,a7,-552
80002668:	00d1ee63          	bltu	gp,a3,80002684 <sub_1_stack_p+0x930>
8000266c:	4022ddb3          	sra	s11,t0,sp
80002670:	bde33713          	sltiu	a4,t1,-1058
80002674:	01465bb3          	srl	s7,a2,s4
80002678:	00d09993          	slli	s3,ra,0xd
8000267c:	044b7463          	bgeu	s6,tp,800026c4 <sub_1_stack_p+0x970>
80002680:	e5a8cb93          	xori	s7,a7,-422
80002684:	01808433          	add	s0,ra,s8
80002688:	019fe0b3          	or	ra,t6,s9
8000268c:	0000100f          	fence.i
80002690:	05950663          	beq	a0,s9,800026dc <sub_1_stack_p+0x988>
80002694:	01c45713          	srli	a4,s0,0x1c
80002698:	dd88a013          	slti	zero,a7,-552
8000269c:	01d09863          	bne	ra,t4,800026ac <sub_1_stack_p+0x958>
800026a0:	0072c133          	xor	sp,t0,t2
800026a4:	04d1e063          	bltu	gp,a3,800026e4 <sub_1_stack_p+0x990>
800026a8:	0140b7b3          	sltu	a5,ra,s4
800026ac:	0141adb3          	slt	s11,gp,s4
800026b0:	0140b7b3          	sltu	a5,ra,s4
800026b4:	00d09993          	slli	s3,ra,0xd
800026b8:	574a0113          	addi	sp,s4,1396
800026bc:	4158d193          	srai	gp,a7,0x15
800026c0:	0141adb3          	slt	s11,gp,s4
800026c4:	0072c133          	xor	sp,t0,t2
800026c8:	00d09993          	slli	s3,ra,0xd
800026cc:	01d09263          	bne	ra,t4,800026d0 <sub_1_stack_p+0x97c>
800026d0:	019fe0b3          	or	ra,t6,s9
800026d4:	41ae0833          	sub	a6,t3,s10
800026d8:	01431733          	sll	a4,t1,s4
800026dc:	0141adb3          	slt	s11,gp,s4
800026e0:	e5a8cb93          	xori	s7,a7,-422
800026e4:	4158d193          	srai	gp,a7,0x15
800026e8:	0141adb3          	slt	s11,gp,s4
800026ec:	00d09993          	slli	s3,ra,0xd
800026f0:	c66de993          	ori	s3,s11,-922
800026f4:	0072c133          	xor	sp,t0,t2
800026f8:	0000100f          	fence.i
800026fc:	01465bb3          	srl	s7,a2,s4
80002700:	c66de993          	ori	s3,s11,-922
80002704:	574a0113          	addi	sp,s4,1396
80002708:	0000100f          	fence.i
8000270c:	00000013          	nop
80002710:	4022ddb3          	sra	s11,t0,sp
80002714:	a08c68b7          	lui	a7,0xa08c6
80002718:	0072c133          	xor	sp,t0,t2
8000271c:	01537533          	and	a0,t1,s5
80002720:	0141adb3          	slt	s11,gp,s4
80002724:	41ae0833          	sub	a6,t3,s10
80002728:	01808433          	add	s0,ra,s8
8000272c:	e5e3fb93          	andi	s7,t2,-418
80002730:	dd88a013          	slti	zero,a7,-552
80002734:	dd88a013          	slti	zero,a7,-552
80002738:	bde33713          	sltiu	a4,t1,-1058
8000273c:	01465bb3          	srl	s7,a2,s4
80002740:	0000100f          	fence.i
80002744:	00d09993          	slli	s3,ra,0xd
80002748:	41ae0833          	sub	a6,t3,s10
8000274c:	c66de993          	ori	s3,s11,-922
80002750:	dd88a013          	slti	zero,a7,-552
80002754:	bde33713          	sltiu	a4,t1,-1058
80002758:	044b7263          	bgeu	s6,tp,8000279c <sub_1_stack_p+0xa48>
8000275c:	4022ddb3          	sra	s11,t0,sp
80002760:	dd88a013          	slti	zero,a7,-552
80002764:	bde33713          	sltiu	a4,t1,-1058
80002768:	bde33713          	sltiu	a4,t1,-1058
8000276c:	00d09993          	slli	s3,ra,0xd
80002770:	01808433          	add	s0,ra,s8
80002774:	0141adb3          	slt	s11,gp,s4
80002778:	0072c133          	xor	sp,t0,t2
8000277c:	01c45713          	srli	a4,s0,0x1c
80002780:	a08c68b7          	lui	a7,0xa08c6
80002784:	41ae0833          	sub	a6,t3,s10
80002788:	01c45713          	srli	a4,s0,0x1c
8000278c:	bde33713          	sltiu	a4,t1,-1058
80002790:	016fd263          	bge	t6,s6,80002794 <sub_1_stack_p+0xa40>
80002794:	0141adb3          	slt	s11,gp,s4
80002798:	024b7463          	bgeu	s6,tp,800027c0 <sub_1_stack_p+0xa6c>
8000279c:	0141adb3          	slt	s11,gp,s4
800027a0:	0507c263          	blt	a5,a6,800027e4 <sub_1_stack_p+0xa90>
800027a4:	c66de993          	ori	s3,s11,-922
800027a8:	036fda63          	bge	t6,s6,800027dc <sub_1_stack_p+0xa88>
800027ac:	0000100f          	fence.i
800027b0:	0141adb3          	slt	s11,gp,s4
800027b4:	024b7863          	bgeu	s6,tp,800027e4 <sub_1_stack_p+0xa90>
800027b8:	019fe0b3          	or	ra,t6,s9
800027bc:	01808433          	add	s0,ra,s8
800027c0:	e5e3fb93          	andi	s7,t2,-418
800027c4:	00d09993          	slli	s3,ra,0xd
800027c8:	0140b7b3          	sltu	a5,ra,s4
800027cc:	05950063          	beq	a0,s9,8000280c <sub_1_stack_p+0xab8>
800027d0:	0140b7b3          	sltu	a5,ra,s4
800027d4:	01808433          	add	s0,ra,s8
800027d8:	00000013          	nop
800027dc:	019fe0b3          	or	ra,t6,s9
800027e0:	056fd263          	bge	t6,s6,80002824 <sub_1_stack_p+0xad0>
800027e4:	0ff0000f          	fence
800027e8:	e5e3fb93          	andi	s7,t2,-418
800027ec:	03d09063          	bne	ra,t4,8000280c <sub_1_stack_p+0xab8>
800027f0:	4022ddb3          	sra	s11,t0,sp
800027f4:	dd88a013          	slti	zero,a7,-552
800027f8:	00d09993          	slli	s3,ra,0xd
800027fc:	00000013          	nop
80002800:	4022ddb3          	sra	s11,t0,sp
80002804:	00000013          	nop
80002808:	e5e3fb93          	andi	s7,t2,-418
8000280c:	0ff0000f          	fence
80002810:	c66de993          	ori	s3,s11,-922
80002814:	bde33713          	sltiu	a4,t1,-1058
80002818:	024b7663          	bgeu	s6,tp,80002844 <sub_1_stack_p+0xaf0>
8000281c:	01465bb3          	srl	s7,a2,s4
80002820:	e5e3fb93          	andi	s7,t2,-418
80002824:	0072c133          	xor	sp,t0,t2
80002828:	a08c68b7          	lui	a7,0xa08c6
8000282c:	0072c133          	xor	sp,t0,t2
80002830:	a08c68b7          	lui	a7,0xa08c6
80002834:	e5e3fb93          	andi	s7,t2,-418
80002838:	01537533          	and	a0,t1,s5
8000283c:	01808433          	add	s0,ra,s8
80002840:	0140b7b3          	sltu	a5,ra,s4
80002844:	e5e3fb93          	andi	s7,t2,-418
80002848:	e4ccbc97          	auipc	s9,0xe4ccb
8000284c:	0141adb3          	slt	s11,gp,s4
80002850:	0072c133          	xor	sp,t0,t2
80002854:	03950663          	beq	a0,s9,80002880 <sub_1_stack_p+0xb2c>
80002858:	0000100f          	fence.i
8000285c:	0507c463          	blt	a5,a6,800028a4 <sub_1_stack_p+0xb50>
80002860:	0000100f          	fence.i
80002864:	036fda63          	bge	t6,s6,80002898 <sub_1_stack_p+0xb44>
80002868:	bde33713          	sltiu	a4,t1,-1058
8000286c:	044b7663          	bgeu	s6,tp,800028b8 <sub_1_stack_p+0xb64>
80002870:	0ff0000f          	fence
80002874:	0000100f          	fence.i
80002878:	a08c68b7          	lui	a7,0xa08c6
8000287c:	01c45713          	srli	a4,s0,0x1c
80002880:	e5a8cb93          	xori	s7,a7,-422
80002884:	00d09993          	slli	s3,ra,0xd
80002888:	016fd263          	bge	t6,s6,8000288c <sub_1_stack_p+0xb38>
8000288c:	e4ccbc97          	auipc	s9,0xe4ccb
80002890:	00d09993          	slli	s3,ra,0xd
80002894:	0000100f          	fence.i
80002898:	019fe0b3          	or	ra,t6,s9
8000289c:	01c45713          	srli	a4,s0,0x1c
800028a0:	bde33713          	sltiu	a4,t1,-1058
800028a4:	41ae0833          	sub	a6,t3,s10
800028a8:	00000013          	nop
800028ac:	0072c133          	xor	sp,t0,t2
800028b0:	01537533          	and	a0,t1,s5
800028b4:	0307ce63          	blt	a5,a6,800028f0 <sub_1_stack_p+0xb9c>
800028b8:	41ae0833          	sub	a6,t3,s10
800028bc:	019fe0b3          	or	ra,t6,s9
800028c0:	dd88a013          	slti	zero,a7,-552
800028c4:	00d1e463          	bltu	gp,a3,800028cc <sub_1_stack_p+0xb78>
800028c8:	0140b7b3          	sltu	a5,ra,s4
800028cc:	01537533          	and	a0,t1,s5
800028d0:	00d1ea63          	bltu	gp,a3,800028e4 <sub_1_stack_p+0xb90>
800028d4:	dd88a013          	slti	zero,a7,-552
800028d8:	c66de993          	ori	s3,s11,-922
800028dc:	03d09a63          	bne	ra,t4,80002910 <sub_1_stack_p+0xbbc>
800028e0:	0140b7b3          	sltu	a5,ra,s4
800028e4:	05d09263          	bne	ra,t4,80002928 <sub_1_stack_p+0xbd4>
800028e8:	01d09c63          	bne	ra,t4,80002900 <sub_1_stack_p+0xbac>
800028ec:	01537533          	and	a0,t1,s5
800028f0:	0141adb3          	slt	s11,gp,s4
800028f4:	004b7863          	bgeu	s6,tp,80002904 <sub_1_stack_p+0xbb0>
800028f8:	4022ddb3          	sra	s11,t0,sp
800028fc:	0ff0000f          	fence
80002900:	41ae0833          	sub	a6,t3,s10
80002904:	05d09463          	bne	ra,t4,8000294c <sub_1_stack_p+0xbf8>
80002908:	574a0113          	addi	sp,s4,1396
8000290c:	01808433          	add	s0,ra,s8
80002910:	c66de993          	ori	s3,s11,-922
80002914:	4022ddb3          	sra	s11,t0,sp
80002918:	e5a8cb93          	xori	s7,a7,-422
8000291c:	e4ccbc97          	auipc	s9,0xe4ccb
80002920:	41ae0833          	sub	a6,t3,s10
80002924:	00000013          	nop
80002928:	c66de993          	ori	s3,s11,-922
8000292c:	574a0113          	addi	sp,s4,1396
80002930:	dd88a013          	slti	zero,a7,-552
80002934:	a08c68b7          	lui	a7,0xa08c6
80002938:	00d1e263          	bltu	gp,a3,8000293c <sub_1_stack_p+0xbe8>
8000293c:	01465bb3          	srl	s7,a2,s4
80002940:	e5e3fb93          	andi	s7,t2,-418
80002944:	0140b7b3          	sltu	a5,ra,s4
80002948:	036fde63          	bge	t6,s6,80002984 <sub_1_stack_p+0xc30>
8000294c:	0ff0000f          	fence
80002950:	4022ddb3          	sra	s11,t0,sp
80002954:	01465bb3          	srl	s7,a2,s4
80002958:	00d1e863          	bltu	gp,a3,80002968 <sub_1_stack_p+0xc14>
8000295c:	0072c133          	xor	sp,t0,t2
80002960:	bde33713          	sltiu	a4,t1,-1058
80002964:	019fe0b3          	or	ra,t6,s9
80002968:	01465bb3          	srl	s7,a2,s4
8000296c:	bde33713          	sltiu	a4,t1,-1058
80002970:	0ff0000f          	fence
80002974:	01465bb3          	srl	s7,a2,s4
80002978:	4158d193          	srai	gp,a7,0x15
8000297c:	004b7463          	bgeu	s6,tp,80002984 <sub_1_stack_p+0xc30>
80002980:	00000013          	nop
80002984:	bde33713          	sltiu	a4,t1,-1058
80002988:	00000013          	nop
8000298c:	41ae0833          	sub	a6,t3,s10
80002990:	01c45713          	srli	a4,s0,0x1c
80002994:	e4ccbc97          	auipc	s9,0xe4ccb
80002998:	e4ccbc97          	auipc	s9,0xe4ccb
8000299c:	056fd063          	bge	t6,s6,800029dc <sub_1_stack_p+0xc88>
800029a0:	4158d193          	srai	gp,a7,0x15
800029a4:	02d1e063          	bltu	gp,a3,800029c4 <sub_1_stack_p+0xc70>
800029a8:	019fe0b3          	or	ra,t6,s9
800029ac:	41ae0833          	sub	a6,t3,s10
800029b0:	0141adb3          	slt	s11,gp,s4
800029b4:	04d1e263          	bltu	gp,a3,800029f8 <sub_1_stack_p+0xca4>
800029b8:	41ae0833          	sub	a6,t3,s10
800029bc:	c66de993          	ori	s3,s11,-922
800029c0:	0072c133          	xor	sp,t0,t2
800029c4:	a08c68b7          	lui	a7,0xa08c6
800029c8:	036fda63          	bge	t6,s6,800029fc <sub_1_stack_p+0xca8>
800029cc:	bde33713          	sltiu	a4,t1,-1058
800029d0:	e5e3fb93          	andi	s7,t2,-418
800029d4:	a08c68b7          	lui	a7,0xa08c6
800029d8:	e4ccbc97          	auipc	s9,0xe4ccb
800029dc:	04d1e263          	bltu	gp,a3,80002a20 <sub_1_stack_p+0xccc>
800029e0:	01537533          	and	a0,t1,s5
800029e4:	4022ddb3          	sra	s11,t0,sp
800029e8:	e5e3fb93          	andi	s7,t2,-418
800029ec:	a08c68b7          	lui	a7,0xa08c6
800029f0:	01431733          	sll	a4,t1,s4
800029f4:	00d09993          	slli	s3,ra,0xd
800029f8:	01431733          	sll	a4,t1,s4
800029fc:	0ff0000f          	fence
80002a00:	a08c68b7          	lui	a7,0xa08c6
80002a04:	0000100f          	fence.i
80002a08:	41ae0833          	sub	a6,t3,s10
80002a0c:	e4ccbc97          	auipc	s9,0xe4ccb
80002a10:	0507c263          	blt	a5,a6,80002a54 <sub_1_stack_p+0xd00>
80002a14:	bde33713          	sltiu	a4,t1,-1058
80002a18:	0072c133          	xor	sp,t0,t2
80002a1c:	4022ddb3          	sra	s11,t0,sp
80002a20:	bde33713          	sltiu	a4,t1,-1058
80002a24:	01465bb3          	srl	s7,a2,s4
80002a28:	bde33713          	sltiu	a4,t1,-1058
80002a2c:	e5e3fb93          	andi	s7,t2,-418
80002a30:	0072c133          	xor	sp,t0,t2
80002a34:	01465bb3          	srl	s7,a2,s4
80002a38:	036fd063          	bge	t6,s6,80002a58 <sub_1_stack_p+0xd04>
80002a3c:	01431733          	sll	a4,t1,s4
80002a40:	e4ccbc97          	auipc	s9,0xe4ccb
80002a44:	a08c68b7          	lui	a7,0xa08c6
80002a48:	01950263          	beq	a0,s9,80002a4c <sub_1_stack_p+0xcf8>
80002a4c:	bde33713          	sltiu	a4,t1,-1058
80002a50:	e4ccbc97          	auipc	s9,0xe4ccb
80002a54:	01c45713          	srli	a4,s0,0x1c
80002a58:	c66de993          	ori	s3,s11,-922
80002a5c:	e5e3fb93          	andi	s7,t2,-418
80002a60:	01465bb3          	srl	s7,a2,s4
80002a64:	0507c063          	blt	a5,a6,80002aa4 <sub_1_stack_p+0xd50>
80002a68:	056fd663          	bge	t6,s6,80002ab4 <sub_1_stack_p+0xd60>
80002a6c:	41ae0833          	sub	a6,t3,s10
80002a70:	c66de993          	ori	s3,s11,-922
80002a74:	4022ddb3          	sra	s11,t0,sp
80002a78:	dd88a013          	slti	zero,a7,-552
80002a7c:	01431733          	sll	a4,t1,s4
80002a80:	c66de993          	ori	s3,s11,-922
80002a84:	a08c68b7          	lui	a7,0xa08c6
80002a88:	574a0113          	addi	sp,s4,1396
80002a8c:	01808433          	add	s0,ra,s8
80002a90:	024b7463          	bgeu	s6,tp,80002ab8 <sub_1_stack_p+0xd64>
80002a94:	574a0113          	addi	sp,s4,1396
80002a98:	4022ddb3          	sra	s11,t0,sp
80002a9c:	01c45713          	srli	a4,s0,0x1c
80002aa0:	04d1e463          	bltu	gp,a3,80002ae8 <sub_1_stack_p+0xd94>
80002aa4:	019fe0b3          	or	ra,t6,s9
80002aa8:	01808433          	add	s0,ra,s8
80002aac:	01537533          	and	a0,t1,s5
80002ab0:	01465bb3          	srl	s7,a2,s4
80002ab4:	0140b7b3          	sltu	a5,ra,s4
80002ab8:	41ae0833          	sub	a6,t3,s10
80002abc:	0000100f          	fence.i
80002ac0:	4022ddb3          	sra	s11,t0,sp
80002ac4:	4158d193          	srai	gp,a7,0x15
80002ac8:	004b7e63          	bgeu	s6,tp,80002ae4 <sub_1_stack_p+0xd90>
80002acc:	03950663          	beq	a0,s9,80002af8 <sub_1_stack_p+0xda4>
80002ad0:	a08c68b7          	lui	a7,0xa08c6
80002ad4:	e5a8cb93          	xori	s7,a7,-422
80002ad8:	0141adb3          	slt	s11,gp,s4
80002adc:	00000013          	nop
80002ae0:	4158d193          	srai	gp,a7,0x15
80002ae4:	574a0113          	addi	sp,s4,1396
80002ae8:	05950663          	beq	a0,s9,80002b34 <sub_1_stack_p+0xde0>
80002aec:	e5a8cb93          	xori	s7,a7,-422
80002af0:	0072c133          	xor	sp,t0,t2
80002af4:	e5e3fb93          	andi	s7,t2,-418
80002af8:	01c45713          	srli	a4,s0,0x1c
80002afc:	00000013          	nop
80002b00:	03d09a63          	bne	ra,t4,80002b34 <sub_1_stack_p+0xde0>
80002b04:	00000013          	nop
80002b08:	00d09993          	slli	s3,ra,0xd
80002b0c:	a08c68b7          	lui	a7,0xa08c6
80002b10:	4022ddb3          	sra	s11,t0,sp
80002b14:	02d1e863          	bltu	gp,a3,80002b44 <sub_1_stack_p+0xdf0>
80002b18:	0ff0000f          	fence
80002b1c:	00000013          	nop
80002b20:	01808433          	add	s0,ra,s8
80002b24:	0000100f          	fence.i
80002b28:	01d09263          	bne	ra,t4,80002b2c <sub_1_stack_p+0xdd8>
80002b2c:	0ff0000f          	fence
80002b30:	e4ccbc97          	auipc	s9,0xe4ccb
80002b34:	4022ddb3          	sra	s11,t0,sp
80002b38:	03d09663          	bne	ra,t4,80002b64 <sub_1_stack_p+0xe10>
80002b3c:	c66de993          	ori	s3,s11,-922
80002b40:	03950a63          	beq	a0,s9,80002b74 <sub_1_stack_p+0xe20>
80002b44:	4022ddb3          	sra	s11,t0,sp
80002b48:	4022ddb3          	sra	s11,t0,sp
80002b4c:	03d09663          	bne	ra,t4,80002b78 <sub_1_stack_p+0xe24>
80002b50:	01d09a63          	bne	ra,t4,80002b64 <sub_1_stack_p+0xe10>
80002b54:	01431733          	sll	a4,t1,s4
80002b58:	0000100f          	fence.i
80002b5c:	e5e3fb93          	andi	s7,t2,-418
80002b60:	01537533          	and	a0,t1,s5
80002b64:	04d1e263          	bltu	gp,a3,80002ba8 <sub_1_stack_p+0xe54>
80002b68:	e5e3fb93          	andi	s7,t2,-418
80002b6c:	0141adb3          	slt	s11,gp,s4
80002b70:	574a0113          	addi	sp,s4,1396
80002b74:	c66de993          	ori	s3,s11,-922
80002b78:	0000100f          	fence.i
80002b7c:	c66de993          	ori	s3,s11,-922
80002b80:	dd88a013          	slti	zero,a7,-552
80002b84:	574a0113          	addi	sp,s4,1396
80002b88:	01431733          	sll	a4,t1,s4
80002b8c:	01537533          	and	a0,t1,s5
80002b90:	0000100f          	fence.i
80002b94:	dd88a013          	slti	zero,a7,-552
80002b98:	01431733          	sll	a4,t1,s4
80002b9c:	574a0113          	addi	sp,s4,1396
80002ba0:	c66de993          	ori	s3,s11,-922
80002ba4:	4158d193          	srai	gp,a7,0x15
80002ba8:	01c45713          	srli	a4,s0,0x1c
80002bac:	4158d193          	srai	gp,a7,0x15
80002bb0:	4022ddb3          	sra	s11,t0,sp
80002bb4:	574a0113          	addi	sp,s4,1396
80002bb8:	00d09993          	slli	s3,ra,0xd
80002bbc:	00000013          	nop
80002bc0:	0140b7b3          	sltu	a5,ra,s4
80002bc4:	0072c133          	xor	sp,t0,t2
80002bc8:	056fd063          	bge	t6,s6,80002c08 <sub_1_stack_p+0xeb4>
80002bcc:	02d1e663          	bltu	gp,a3,80002bf8 <sub_1_stack_p+0xea4>
80002bd0:	01808433          	add	s0,ra,s8
80002bd4:	019fe0b3          	or	ra,t6,s9
80002bd8:	01465bb3          	srl	s7,a2,s4
80002bdc:	41ae0833          	sub	a6,t3,s10
80002be0:	056fd663          	bge	t6,s6,80002c2c <sub_1_stack_p+0xed8>
80002be4:	004b7863          	bgeu	s6,tp,80002bf4 <sub_1_stack_p+0xea0>
80002be8:	c66de993          	ori	s3,s11,-922
80002bec:	01d09e63          	bne	ra,t4,80002c08 <sub_1_stack_p+0xeb4>
80002bf0:	0ff0000f          	fence
80002bf4:	01431733          	sll	a4,t1,s4
80002bf8:	01431733          	sll	a4,t1,s4
80002bfc:	01537533          	and	a0,t1,s5
80002c00:	0000100f          	fence.i
80002c04:	dd88a013          	slti	zero,a7,-552
80002c08:	00000013          	nop
80002c0c:	01c45713          	srli	a4,s0,0x1c
80002c10:	0307c463          	blt	a5,a6,80002c38 <sub_1_stack_p+0xee4>
80002c14:	00d1ec63          	bltu	gp,a3,80002c2c <sub_1_stack_p+0xed8>
80002c18:	41ae0833          	sub	a6,t3,s10
80002c1c:	0141adb3          	slt	s11,gp,s4
80002c20:	e5a8cb93          	xori	s7,a7,-422
80002c24:	00d09993          	slli	s3,ra,0xd
80002c28:	019fe0b3          	or	ra,t6,s9
80002c2c:	0072c133          	xor	sp,t0,t2
80002c30:	4158d193          	srai	gp,a7,0x15
80002c34:	41ae0833          	sub	a6,t3,s10
80002c38:	00d09993          	slli	s3,ra,0xd
80002c3c:	bde33713          	sltiu	a4,t1,-1058
80002c40:	e4ccbc97          	auipc	s9,0xe4ccb
80002c44:	056fd463          	bge	t6,s6,80002c8c <sub_1_stack_p+0xf38>
80002c48:	0000100f          	fence.i
80002c4c:	0072c133          	xor	sp,t0,t2
80002c50:	dd88a013          	slti	zero,a7,-552
80002c54:	019fe0b3          	or	ra,t6,s9
80002c58:	bde33713          	sltiu	a4,t1,-1058
80002c5c:	c66de993          	ori	s3,s11,-922
80002c60:	00d09993          	slli	s3,ra,0xd
80002c64:	004b7a63          	bgeu	s6,tp,80002c78 <sub_1_stack_p+0xf24>
80002c68:	0141adb3          	slt	s11,gp,s4
80002c6c:	01537533          	and	a0,t1,s5
80002c70:	0000100f          	fence.i
80002c74:	574a0113          	addi	sp,s4,1396
80002c78:	dd88a013          	slti	zero,a7,-552
80002c7c:	e5e3fb93          	andi	s7,t2,-418
80002c80:	019fe0b3          	or	ra,t6,s9
80002c84:	0000100f          	fence.i
80002c88:	dd88a013          	slti	zero,a7,-552
80002c8c:	01808433          	add	s0,ra,s8
80002c90:	01c45713          	srli	a4,s0,0x1c
80002c94:	0ff0000f          	fence
80002c98:	019fe0b3          	or	ra,t6,s9
80002c9c:	03d09663          	bne	ra,t4,80002cc8 <sub_1_stack_p+0xf74>
80002ca0:	00d09993          	slli	s3,ra,0xd
80002ca4:	c66de993          	ori	s3,s11,-922
80002ca8:	0000100f          	fence.i
80002cac:	03d09e63          	bne	ra,t4,80002ce8 <sub_1_stack_p+0xf94>
80002cb0:	01808433          	add	s0,ra,s8
80002cb4:	0140b7b3          	sltu	a5,ra,s4
80002cb8:	0ff0000f          	fence
80002cbc:	05950263          	beq	a0,s9,80002d00 <sub_1_stack_p+0xfac>
80002cc0:	574a0113          	addi	sp,s4,1396
80002cc4:	036fd063          	bge	t6,s6,80002ce4 <sub_1_stack_p+0xf90>
80002cc8:	01537533          	and	a0,t1,s5
80002ccc:	016fd263          	bge	t6,s6,80002cd0 <sub_1_stack_p+0xf7c>
80002cd0:	0141adb3          	slt	s11,gp,s4
80002cd4:	01c45713          	srli	a4,s0,0x1c
80002cd8:	41ae0833          	sub	a6,t3,s10
80002cdc:	e5a8cb93          	xori	s7,a7,-422
80002ce0:	0072c133          	xor	sp,t0,t2
80002ce4:	0072c133          	xor	sp,t0,t2
80002ce8:	4022ddb3          	sra	s11,t0,sp
80002cec:	0140b7b3          	sltu	a5,ra,s4
80002cf0:	e4ccbc97          	auipc	s9,0xe4ccb
80002cf4:	0000100f          	fence.i
80002cf8:	e5a8cb93          	xori	s7,a7,-422
80002cfc:	e5e3fb93          	andi	s7,t2,-418
80002d00:	00d09993          	slli	s3,ra,0xd
80002d04:	01431733          	sll	a4,t1,s4
80002d08:	024b7a63          	bgeu	s6,tp,80002d3c <sub_1_stack_p+0xfe8>
80002d0c:	01465bb3          	srl	s7,a2,s4
80002d10:	e4ccbc97          	auipc	s9,0xe4ccb
80002d14:	00000013          	nop
80002d18:	e5e3fb93          	andi	s7,t2,-418
80002d1c:	01465bb3          	srl	s7,a2,s4
80002d20:	bde33713          	sltiu	a4,t1,-1058
80002d24:	bde33713          	sltiu	a4,t1,-1058
80002d28:	019fe0b3          	or	ra,t6,s9
80002d2c:	019fe0b3          	or	ra,t6,s9
80002d30:	01537533          	and	a0,t1,s5
80002d34:	024b7a63          	bgeu	s6,tp,80002d68 <sub_1_stack_p+0x1014>
80002d38:	0507c663          	blt	a5,a6,80002d84 <sub_1_stack_p+0x1030>
80002d3c:	036fd863          	bge	t6,s6,80002d6c <sub_1_stack_p+0x1018>
80002d40:	dd88a013          	slti	zero,a7,-552
80002d44:	e5a8cb93          	xori	s7,a7,-422
80002d48:	e4ccbc97          	auipc	s9,0xe4ccb
80002d4c:	01537533          	and	a0,t1,s5
80002d50:	a08c68b7          	lui	a7,0xa08c6
80002d54:	4158d193          	srai	gp,a7,0x15
80002d58:	044b7263          	bgeu	s6,tp,80002d9c <sub_1_stack_p+0x1048>
80002d5c:	0140b7b3          	sltu	a5,ra,s4
80002d60:	019fe0b3          	or	ra,t6,s9
80002d64:	0072c133          	xor	sp,t0,t2
80002d68:	e5a8cb93          	xori	s7,a7,-422
80002d6c:	a08c68b7          	lui	a7,0xa08c6
80002d70:	0ff0000f          	fence
80002d74:	01431733          	sll	a4,t1,s4
80002d78:	e4ccbc97          	auipc	s9,0xe4ccb
80002d7c:	01465bb3          	srl	s7,a2,s4
80002d80:	41ae0833          	sub	a6,t3,s10
80002d84:	01465bb3          	srl	s7,a2,s4
80002d88:	0141adb3          	slt	s11,gp,s4
80002d8c:	0072c133          	xor	sp,t0,t2
80002d90:	e4ccbc97          	auipc	s9,0xe4ccb
80002d94:	03950663          	beq	a0,s9,80002dc0 <sub_1_stack_p+0x106c>
80002d98:	4022ddb3          	sra	s11,t0,sp
80002d9c:	e5a8cb93          	xori	s7,a7,-422
80002da0:	019fe0b3          	or	ra,t6,s9
80002da4:	574a0113          	addi	sp,s4,1396
80002da8:	00d1e263          	bltu	gp,a3,80002dac <sub_1_stack_p+0x1058>
80002dac:	0ff0000f          	fence
80002db0:	0000100f          	fence.i
80002db4:	04d1e063          	bltu	gp,a3,80002df4 <sub_1_stack_p+0x10a0>
80002db8:	01431733          	sll	a4,t1,s4
80002dbc:	a08c68b7          	lui	a7,0xa08c6
80002dc0:	0000100f          	fence.i
80002dc4:	00d09993          	slli	s3,ra,0xd
80002dc8:	0107c263          	blt	a5,a6,80002dcc <sub_1_stack_p+0x1078>
80002dcc:	00d09993          	slli	s3,ra,0xd
80002dd0:	019fe0b3          	or	ra,t6,s9
80002dd4:	4022ddb3          	sra	s11,t0,sp
80002dd8:	4022ddb3          	sra	s11,t0,sp
80002ddc:	036fd063          	bge	t6,s6,80002dfc <sub_1_stack_p+0x10a8>
80002de0:	574a0113          	addi	sp,s4,1396
80002de4:	c66de993          	ori	s3,s11,-922
80002de8:	e4ccbc97          	auipc	s9,0xe4ccb
80002dec:	a08c68b7          	lui	a7,0xa08c6
80002df0:	05d09263          	bne	ra,t4,80002e34 <sub_1_stack_p+0x10e0>
80002df4:	0072c133          	xor	sp,t0,t2
80002df8:	e5e3fb93          	andi	s7,t2,-418
80002dfc:	4022ddb3          	sra	s11,t0,sp
80002e00:	00d09993          	slli	s3,ra,0xd
80002e04:	dd88a013          	slti	zero,a7,-552
80002e08:	0140b7b3          	sltu	a5,ra,s4
80002e0c:	04d1e463          	bltu	gp,a3,80002e54 <sub_1_stack_p+0x1100>
80002e10:	0000100f          	fence.i
80002e14:	01537533          	and	a0,t1,s5
80002e18:	bde33713          	sltiu	a4,t1,-1058
80002e1c:	00000013          	nop
80002e20:	0ff0000f          	fence
80002e24:	01431733          	sll	a4,t1,s4
80002e28:	e4ccbc97          	auipc	s9,0xe4ccb
80002e2c:	019fe0b3          	or	ra,t6,s9
80002e30:	01d09863          	bne	ra,t4,80002e40 <sub_1_stack_p+0x10ec>
80002e34:	01465bb3          	srl	s7,a2,s4
80002e38:	0000100f          	fence.i
80002e3c:	0140b7b3          	sltu	a5,ra,s4
80002e40:	0000100f          	fence.i
80002e44:	41ae0833          	sub	a6,t3,s10
80002e48:	01465bb3          	srl	s7,a2,s4
80002e4c:	01537533          	and	a0,t1,s5
80002e50:	0072c133          	xor	sp,t0,t2
80002e54:	0000100f          	fence.i
80002e58:	024b7a63          	bgeu	s6,tp,80002e8c <sub_1_stack_p+0x1138>
80002e5c:	4158d193          	srai	gp,a7,0x15
80002e60:	41ae0833          	sub	a6,t3,s10
80002e64:	01c45713          	srli	a4,s0,0x1c
80002e68:	019fe0b3          	or	ra,t6,s9
80002e6c:	e5a8cb93          	xori	s7,a7,-422
80002e70:	00000013          	nop
80002e74:	574a0113          	addi	sp,s4,1396
80002e78:	00000013          	nop
80002e7c:	01c45713          	srli	a4,s0,0x1c
80002e80:	0000100f          	fence.i
80002e84:	019fe0b3          	or	ra,t6,s9
80002e88:	dd88a013          	slti	zero,a7,-552
80002e8c:	e4ccbc97          	auipc	s9,0xe4ccb
80002e90:	01537533          	and	a0,t1,s5
80002e94:	056fd263          	bge	t6,s6,80002ed8 <sub_1_stack_p+0x1184>
80002e98:	004b7463          	bgeu	s6,tp,80002ea0 <sub_1_stack_p+0x114c>
80002e9c:	0307ca63          	blt	a5,a6,80002ed0 <sub_1_stack_p+0x117c>
80002ea0:	01808433          	add	s0,ra,s8
80002ea4:	c66de993          	ori	s3,s11,-922
80002ea8:	056fd263          	bge	t6,s6,80002eec <sub_1_stack_p+0x1198>
80002eac:	024b7863          	bgeu	s6,tp,80002edc <sub_1_stack_p+0x1188>
80002eb0:	01431733          	sll	a4,t1,s4
80002eb4:	4158d193          	srai	gp,a7,0x15
80002eb8:	4022ddb3          	sra	s11,t0,sp
80002ebc:	019fe0b3          	or	ra,t6,s9
80002ec0:	01465bb3          	srl	s7,a2,s4
80002ec4:	4022ddb3          	sra	s11,t0,sp
80002ec8:	04d1e063          	bltu	gp,a3,80002f08 <sub_1_stack_p+0x11b4>
80002ecc:	019fe0b3          	or	ra,t6,s9
80002ed0:	00d09993          	slli	s3,ra,0xd
80002ed4:	4158d193          	srai	gp,a7,0x15
80002ed8:	e5a8cb93          	xori	s7,a7,-422
80002edc:	e5a8cb93          	xori	s7,a7,-422
80002ee0:	e5a8cb93          	xori	s7,a7,-422
80002ee4:	05950263          	beq	a0,s9,80002f28 <sub_1_stack_p+0x11d4>
80002ee8:	0072c133          	xor	sp,t0,t2
80002eec:	0140b7b3          	sltu	a5,ra,s4
80002ef0:	01537533          	and	a0,t1,s5
80002ef4:	0ff0000f          	fence
80002ef8:	01537533          	and	a0,t1,s5
80002efc:	e4ccbc97          	auipc	s9,0xe4ccb
80002f00:	01465bb3          	srl	s7,a2,s4
80002f04:	004b7263          	bgeu	s6,tp,80002f08 <sub_1_stack_p+0x11b4>
80002f08:	4022ddb3          	sra	s11,t0,sp
80002f0c:	00d09993          	slli	s3,ra,0xd
80002f10:	0307ce63          	blt	a5,a6,80002f4c <sub_1_stack_p+0x11f8>
80002f14:	016fd463          	bge	t6,s6,80002f1c <sub_1_stack_p+0x11c8>
80002f18:	0141adb3          	slt	s11,gp,s4
80002f1c:	01431733          	sll	a4,t1,s4
80002f20:	01c45713          	srli	a4,s0,0x1c
80002f24:	01c45713          	srli	a4,s0,0x1c
80002f28:	4022ddb3          	sra	s11,t0,sp
80002f2c:	01431733          	sll	a4,t1,s4
80002f30:	016fd263          	bge	t6,s6,80002f34 <sub_1_stack_p+0x11e0>
80002f34:	e5e3fb93          	andi	s7,t2,-418
80002f38:	e5e3fb93          	andi	s7,t2,-418
80002f3c:	0141adb3          	slt	s11,gp,s4
80002f40:	0ff0000f          	fence
80002f44:	41ae0833          	sub	a6,t3,s10
80002f48:	0ff0000f          	fence
80002f4c:	00d09993          	slli	s3,ra,0xd
80002f50:	0000100f          	fence.i
80002f54:	05d09263          	bne	ra,t4,80002f98 <sub_1_stack_p+0x1244>
80002f58:	01431733          	sll	a4,t1,s4
80002f5c:	02d1ea63          	bltu	gp,a3,80002f90 <sub_1_stack_p+0x123c>
80002f60:	01465bb3          	srl	s7,a2,s4
80002f64:	0000100f          	fence.i
80002f68:	bde33713          	sltiu	a4,t1,-1058
80002f6c:	e4ccbc97          	auipc	s9,0xe4ccb
80002f70:	01c45713          	srli	a4,s0,0x1c
80002f74:	0141adb3          	slt	s11,gp,s4
80002f78:	e5e3fb93          	andi	s7,t2,-418
80002f7c:	01808433          	add	s0,ra,s8
80002f80:	0140b7b3          	sltu	a5,ra,s4
80002f84:	05d09463          	bne	ra,t4,80002fcc <sub_1_stack_p+0x1278>
80002f88:	0000100f          	fence.i
80002f8c:	4158d193          	srai	gp,a7,0x15
80002f90:	01431733          	sll	a4,t1,s4
80002f94:	a08c68b7          	lui	a7,0xa08c6
80002f98:	574a0113          	addi	sp,s4,1396
80002f9c:	4158d193          	srai	gp,a7,0x15
80002fa0:	e5a8cb93          	xori	s7,a7,-422
80002fa4:	41ae0833          	sub	a6,t3,s10
80002fa8:	01465bb3          	srl	s7,a2,s4
80002fac:	4158d193          	srai	gp,a7,0x15
80002fb0:	c66de993          	ori	s3,s11,-922
80002fb4:	01465bb3          	srl	s7,a2,s4
80002fb8:	004b7c63          	bgeu	s6,tp,80002fd0 <sub_1_stack_p+0x127c>
80002fbc:	41ae0833          	sub	a6,t3,s10
80002fc0:	01c45713          	srli	a4,s0,0x1c
80002fc4:	c66de993          	ori	s3,s11,-922
80002fc8:	01c45713          	srli	a4,s0,0x1c
80002fcc:	01c45713          	srli	a4,s0,0x1c
80002fd0:	01465bb3          	srl	s7,a2,s4
80002fd4:	0107ca63          	blt	a5,a6,80002fe8 <sub_1_stack_p+0x1294>
80002fd8:	dd88a013          	slti	zero,a7,-552
80002fdc:	4022ddb3          	sra	s11,t0,sp
80002fe0:	0507c663          	blt	a5,a6,8000302c <sub_1_stack_p+0x12d8>
80002fe4:	01808433          	add	s0,ra,s8
80002fe8:	00d09993          	slli	s3,ra,0xd
80002fec:	05d09663          	bne	ra,t4,80003038 <sub_1_stack_p+0x12e4>
80002ff0:	044b7063          	bgeu	s6,tp,80003030 <sub_1_stack_p+0x12dc>
80002ff4:	03d09463          	bne	ra,t4,8000301c <sub_1_stack_p+0x12c8>
80002ff8:	c66de993          	ori	s3,s11,-922
80002ffc:	e5a8cb93          	xori	s7,a7,-422
80003000:	e5e3fb93          	andi	s7,t2,-418
80003004:	01465bb3          	srl	s7,a2,s4
80003008:	004b7e63          	bgeu	s6,tp,80003024 <sub_1_stack_p+0x12d0>
8000300c:	e5a8cb93          	xori	s7,a7,-422
80003010:	0ff0000f          	fence
80003014:	01465bb3          	srl	s7,a2,s4
80003018:	00000013          	nop
8000301c:	01c45713          	srli	a4,s0,0x1c
80003020:	a08c68b7          	lui	a7,0xa08c6
80003024:	01808433          	add	s0,ra,s8
80003028:	dd88a013          	slti	zero,a7,-552
8000302c:	01465bb3          	srl	s7,a2,s4
80003030:	dd88a013          	slti	zero,a7,-552
80003034:	574a0113          	addi	sp,s4,1396
80003038:	c66de993          	ori	s3,s11,-922
8000303c:	0072c133          	xor	sp,t0,t2
80003040:	03950663          	beq	a0,s9,8000306c <sub_1_stack_p+0x1318>
80003044:	4022ddb3          	sra	s11,t0,sp
80003048:	0000100f          	fence.i
8000304c:	016fd863          	bge	t6,s6,8000305c <sub_1_stack_p+0x1308>
80003050:	4158d193          	srai	gp,a7,0x15
80003054:	a08c68b7          	lui	a7,0xa08c6
80003058:	01431733          	sll	a4,t1,s4
8000305c:	4022ddb3          	sra	s11,t0,sp
80003060:	a08c68b7          	lui	a7,0xa08c6
80003064:	019fe0b3          	or	ra,t6,s9
80003068:	41ae0833          	sub	a6,t3,s10
8000306c:	01c45713          	srli	a4,s0,0x1c
80003070:	0141adb3          	slt	s11,gp,s4
80003074:	01537533          	and	a0,t1,s5
80003078:	01465bb3          	srl	s7,a2,s4
8000307c:	019fe0b3          	or	ra,t6,s9
80003080:	01537533          	and	a0,t1,s5
80003084:	044b7263          	bgeu	s6,tp,800030c8 <sub_1_stack_p+0x1374>
80003088:	4158d193          	srai	gp,a7,0x15
8000308c:	016fd863          	bge	t6,s6,8000309c <sub_1_stack_p+0x1348>
80003090:	01465bb3          	srl	s7,a2,s4
80003094:	0140b7b3          	sltu	a5,ra,s4
80003098:	0000100f          	fence.i
8000309c:	dd88a013          	slti	zero,a7,-552
800030a0:	0000100f          	fence.i
800030a4:	01c45713          	srli	a4,s0,0x1c
800030a8:	0140b7b3          	sltu	a5,ra,s4
800030ac:	01431733          	sll	a4,t1,s4
800030b0:	01431733          	sll	a4,t1,s4
800030b4:	01537533          	and	a0,t1,s5
800030b8:	0107c263          	blt	a5,a6,800030bc <sub_1_stack_p+0x1368>
800030bc:	0072c133          	xor	sp,t0,t2
800030c0:	0000100f          	fence.i
800030c4:	02d1e663          	bltu	gp,a3,800030f0 <sub_1_stack_p+0x139c>
800030c8:	574a0113          	addi	sp,s4,1396
800030cc:	01431733          	sll	a4,t1,s4
800030d0:	4022ddb3          	sra	s11,t0,sp
800030d4:	e5e3fb93          	andi	s7,t2,-418
800030d8:	03950663          	beq	a0,s9,80003104 <sub_1_stack_p+0x13b0>
800030dc:	e5a8cb93          	xori	s7,a7,-422
800030e0:	c66de993          	ori	s3,s11,-922
800030e4:	044b7463          	bgeu	s6,tp,8000312c <sub_1_stack_p+0x13d8>
800030e8:	03950a63          	beq	a0,s9,8000311c <sub_1_stack_p+0x13c8>
800030ec:	036fd063          	bge	t6,s6,8000310c <sub_1_stack_p+0x13b8>
800030f0:	c66de993          	ori	s3,s11,-922
800030f4:	0140b7b3          	sltu	a5,ra,s4
800030f8:	dd88a013          	slti	zero,a7,-552
800030fc:	e4ccbc97          	auipc	s9,0xe4ccb
80003100:	bde33713          	sltiu	a4,t1,-1058
80003104:	01465bb3          	srl	s7,a2,s4
80003108:	41ae0833          	sub	a6,t3,s10
8000310c:	e5a8cb93          	xori	s7,a7,-422
80003110:	0072c133          	xor	sp,t0,t2
80003114:	c66de993          	ori	s3,s11,-922
80003118:	0072c133          	xor	sp,t0,t2
8000311c:	00000013          	nop
80003120:	0ff0000f          	fence
80003124:	bde33713          	sltiu	a4,t1,-1058
80003128:	03950063          	beq	a0,s9,80003148 <sub_1_stack_p+0x13f4>
8000312c:	01431733          	sll	a4,t1,s4
80003130:	024b7a63          	bgeu	s6,tp,80003164 <sub_1_stack_p+0x1410>
80003134:	00d09993          	slli	s3,ra,0xd
80003138:	01c45713          	srli	a4,s0,0x1c
8000313c:	e4ccbc97          	auipc	s9,0xe4ccb
80003140:	00d09993          	slli	s3,ra,0xd
80003144:	e5a8cb93          	xori	s7,a7,-422
80003148:	00000013          	nop
8000314c:	0307c663          	blt	a5,a6,80003178 <sub_1_stack_p+0x1424>
80003150:	03d09e63          	bne	ra,t4,8000318c <sub_1_stack_p+0x1438>
80003154:	016fd463          	bge	t6,s6,8000315c <sub_1_stack_p+0x1408>
80003158:	0000100f          	fence.i
8000315c:	01c45713          	srli	a4,s0,0x1c
80003160:	00d09993          	slli	s3,ra,0xd
80003164:	01950263          	beq	a0,s9,80003168 <sub_1_stack_p+0x1414>
80003168:	00000013          	nop
8000316c:	4158d193          	srai	gp,a7,0x15
80003170:	056fd063          	bge	t6,s6,800031b0 <sub_1_stack_p+0x145c>
80003174:	05950263          	beq	a0,s9,800031b8 <sub_1_stack_p+0x1464>
80003178:	01808433          	add	s0,ra,s8
8000317c:	019fe0b3          	or	ra,t6,s9
80003180:	0ff0000f          	fence
80003184:	03950063          	beq	a0,s9,800031a4 <sub_1_stack_p+0x1450>
80003188:	41ae0833          	sub	a6,t3,s10
8000318c:	019fe0b3          	or	ra,t6,s9
80003190:	01950a63          	beq	a0,s9,800031a4 <sub_1_stack_p+0x1450>
80003194:	019fe0b3          	or	ra,t6,s9
80003198:	4158d193          	srai	gp,a7,0x15
8000319c:	574a0113          	addi	sp,s4,1396
800031a0:	019fe0b3          	or	ra,t6,s9
800031a4:	04d1e263          	bltu	gp,a3,800031e8 <sub_1_stack_p+0x1494>
800031a8:	01c45713          	srli	a4,s0,0x1c
800031ac:	0ff0000f          	fence
800031b0:	00000013          	nop
800031b4:	e4ccbc97          	auipc	s9,0xe4ccb
800031b8:	dd88a013          	slti	zero,a7,-552
800031bc:	056fd663          	bge	t6,s6,80003208 <sub_1_stack_p+0x14b4>
800031c0:	00d1ec63          	bltu	gp,a3,800031d8 <sub_1_stack_p+0x1484>
800031c4:	4022ddb3          	sra	s11,t0,sp
800031c8:	00d09993          	slli	s3,ra,0xd
800031cc:	e5e3fb93          	andi	s7,t2,-418
800031d0:	4158d193          	srai	gp,a7,0x15
800031d4:	dd88a013          	slti	zero,a7,-552
800031d8:	01808433          	add	s0,ra,s8
800031dc:	01808433          	add	s0,ra,s8
800031e0:	41ae0833          	sub	a6,t3,s10
800031e4:	4022ddb3          	sra	s11,t0,sp
800031e8:	01537533          	and	a0,t1,s5
800031ec:	0000100f          	fence.i
800031f0:	01808433          	add	s0,ra,s8
800031f4:	0072c133          	xor	sp,t0,t2
800031f8:	e4ccbc97          	auipc	s9,0xe4ccb
800031fc:	0072c133          	xor	sp,t0,t2
80003200:	0140b7b3          	sltu	a5,ra,s4
80003204:	05d09263          	bne	ra,t4,80003248 <sub_1_stack_p+0x14f4>
80003208:	4158d193          	srai	gp,a7,0x15
8000320c:	4022ddb3          	sra	s11,t0,sp
80003210:	dd88a013          	slti	zero,a7,-552
80003214:	e5a8cb93          	xori	s7,a7,-422
80003218:	c66de993          	ori	s3,s11,-922
8000321c:	574a0113          	addi	sp,s4,1396
80003220:	01537533          	and	a0,t1,s5
80003224:	e5e3fb93          	andi	s7,t2,-418
80003228:	0307c463          	blt	a5,a6,80003250 <sub_1_stack_p+0x14fc>
8000322c:	0000100f          	fence.i
80003230:	03950663          	beq	a0,s9,8000325c <sub_1_stack_p+0x1508>
80003234:	019fe0b3          	or	ra,t6,s9
80003238:	0141adb3          	slt	s11,gp,s4
8000323c:	03d09863          	bne	ra,t4,8000326c <sub_1_stack_p+0x1518>
80003240:	044b7263          	bgeu	s6,tp,80003284 <sub_1_stack_p+0x1530>
80003244:	04d1e463          	bltu	gp,a3,8000328c <sub_1_stack_p+0x1538>
80003248:	01808433          	add	s0,ra,s8
8000324c:	0140b7b3          	sltu	a5,ra,s4
80003250:	a08c68b7          	lui	a7,0xa08c6
80003254:	0140b7b3          	sltu	a5,ra,s4
80003258:	004b7863          	bgeu	s6,tp,80003268 <sub_1_stack_p+0x1514>
8000325c:	01d09e63          	bne	ra,t4,80003278 <sub_1_stack_p+0x1524>
80003260:	dd88a013          	slti	zero,a7,-552
80003264:	4158d193          	srai	gp,a7,0x15
80003268:	01d09263          	bne	ra,t4,8000326c <sub_1_stack_p+0x1518>
8000326c:	4022ddb3          	sra	s11,t0,sp
80003270:	03950663          	beq	a0,s9,8000329c <sub_1_stack_p+0x1548>
80003274:	05d09663          	bne	ra,t4,800032c0 <sub_1_stack_p+0x156c>
80003278:	bde33713          	sltiu	a4,t1,-1058
8000327c:	024b7063          	bgeu	s6,tp,8000329c <sub_1_stack_p+0x1548>
80003280:	0072c133          	xor	sp,t0,t2
80003284:	0072c133          	xor	sp,t0,t2
80003288:	01537533          	and	a0,t1,s5
8000328c:	01465bb3          	srl	s7,a2,s4
80003290:	bde33713          	sltiu	a4,t1,-1058
80003294:	41ae0833          	sub	a6,t3,s10
80003298:	41ae0833          	sub	a6,t3,s10
8000329c:	01465bb3          	srl	s7,a2,s4
800032a0:	0072c133          	xor	sp,t0,t2
800032a4:	00d09993          	slli	s3,ra,0xd
800032a8:	024b7a63          	bgeu	s6,tp,800032dc <sub_1_stack_p+0x1588>
800032ac:	0ff0000f          	fence
800032b0:	01431733          	sll	a4,t1,s4
800032b4:	e4ccbc97          	auipc	s9,0xe4ccb
800032b8:	e4ccbc97          	auipc	s9,0xe4ccb
800032bc:	036fda63          	bge	t6,s6,800032f0 <sub_1_stack_p+0x159c>
800032c0:	00d09993          	slli	s3,ra,0xd
800032c4:	0140b7b3          	sltu	a5,ra,s4
800032c8:	bde33713          	sltiu	a4,t1,-1058
800032cc:	0000100f          	fence.i
800032d0:	4158d193          	srai	gp,a7,0x15
800032d4:	e5e3fb93          	andi	s7,t2,-418
800032d8:	01537533          	and	a0,t1,s5
800032dc:	e4ccbc97          	auipc	s9,0xe4ccb
800032e0:	01537533          	and	a0,t1,s5
800032e4:	574a0113          	addi	sp,s4,1396
800032e8:	0ff0000f          	fence
800032ec:	01465bb3          	srl	s7,a2,s4
800032f0:	01465bb3          	srl	s7,a2,s4
800032f4:	01950863          	beq	a0,s9,80003304 <sub_1_stack_p+0x15b0>
800032f8:	01808433          	add	s0,ra,s8
800032fc:	bde33713          	sltiu	a4,t1,-1058
80003300:	01431733          	sll	a4,t1,s4
80003304:	4022ddb3          	sra	s11,t0,sp
80003308:	056fd463          	bge	t6,s6,80003350 <sub_1_stack_p+0x15fc>
8000330c:	41ae0833          	sub	a6,t3,s10
80003310:	0140b7b3          	sltu	a5,ra,s4
80003314:	044b7063          	bgeu	s6,tp,80003354 <sub_1_stack_p+0x1600>
80003318:	a08c68b7          	lui	a7,0xa08c6
8000331c:	01950263          	beq	a0,s9,80003320 <sub_1_stack_p+0x15cc>
80003320:	00000013          	nop
80003324:	0141adb3          	slt	s11,gp,s4
80003328:	bde33713          	sltiu	a4,t1,-1058
8000332c:	0140b7b3          	sltu	a5,ra,s4
80003330:	c66de993          	ori	s3,s11,-922
80003334:	0ff0000f          	fence
80003338:	016fde63          	bge	t6,s6,80003354 <sub_1_stack_p+0x1600>
8000333c:	01c45713          	srli	a4,s0,0x1c
80003340:	c66de993          	ori	s3,s11,-922
80003344:	0ff0000f          	fence
80003348:	e5e3fb93          	andi	s7,t2,-418
8000334c:	01431733          	sll	a4,t1,s4
80003350:	dd88a013          	slti	zero,a7,-552
80003354:	01808433          	add	s0,ra,s8
80003358:	0000100f          	fence.i
8000335c:	0140b7b3          	sltu	a5,ra,s4
80003360:	bde33713          	sltiu	a4,t1,-1058
80003364:	4158d193          	srai	gp,a7,0x15
80003368:	00d1ec63          	bltu	gp,a3,80003380 <sub_1_stack_p+0x162c>
8000336c:	019fe0b3          	or	ra,t6,s9
80003370:	01537533          	and	a0,t1,s5
80003374:	0140b7b3          	sltu	a5,ra,s4
80003378:	02d1ee63          	bltu	gp,a3,800033b4 <sub_1_stack_p+0x1660>
8000337c:	4022ddb3          	sra	s11,t0,sp
80003380:	bde33713          	sltiu	a4,t1,-1058
80003384:	00d09993          	slli	s3,ra,0xd
80003388:	01465bb3          	srl	s7,a2,s4
8000338c:	056fd263          	bge	t6,s6,800033d0 <sub_1_stack_p+0x167c>
80003390:	0507c063          	blt	a5,a6,800033d0 <sub_1_stack_p+0x167c>
80003394:	e5e3fb93          	andi	s7,t2,-418
80003398:	41ae0833          	sub	a6,t3,s10
8000339c:	4022ddb3          	sra	s11,t0,sp
800033a0:	004b7863          	bgeu	s6,tp,800033b0 <sub_1_stack_p+0x165c>
800033a4:	0ff0000f          	fence
800033a8:	a08c68b7          	lui	a7,0xa08c6
800033ac:	00d09993          	slli	s3,ra,0xd
800033b0:	a08c68b7          	lui	a7,0xa08c6
800033b4:	019fe0b3          	or	ra,t6,s9
800033b8:	dd88a013          	slti	zero,a7,-552
800033bc:	02d1e663          	bltu	gp,a3,800033e8 <sub_1_stack_p+0x1694>
800033c0:	e5e3fb93          	andi	s7,t2,-418
800033c4:	01431733          	sll	a4,t1,s4
800033c8:	0507c263          	blt	a5,a6,8000340c <sub_1_stack_p+0x16b8>
800033cc:	bde33713          	sltiu	a4,t1,-1058
800033d0:	01c45713          	srli	a4,s0,0x1c
800033d4:	036fd663          	bge	t6,s6,80003400 <sub_1_stack_p+0x16ac>
800033d8:	c66de993          	ori	s3,s11,-922
800033dc:	05950263          	beq	a0,s9,80003420 <sub_1_stack_p+0x16cc>
800033e0:	024b7a63          	bgeu	s6,tp,80003414 <sub_1_stack_p+0x16c0>
800033e4:	4158d193          	srai	gp,a7,0x15
800033e8:	05950663          	beq	a0,s9,80003434 <sub_1_stack_p+0x16e0>
800033ec:	01c45713          	srli	a4,s0,0x1c
800033f0:	019fe0b3          	or	ra,t6,s9
800033f4:	574a0113          	addi	sp,s4,1396
800033f8:	01465bb3          	srl	s7,a2,s4
800033fc:	bde33713          	sltiu	a4,t1,-1058
80003400:	0140b7b3          	sltu	a5,ra,s4
80003404:	01d09463          	bne	ra,t4,8000340c <sub_1_stack_p+0x16b8>
80003408:	01431733          	sll	a4,t1,s4
8000340c:	0072c133          	xor	sp,t0,t2
80003410:	bde33713          	sltiu	a4,t1,-1058
80003414:	e5e3fb93          	andi	s7,t2,-418
80003418:	a08c68b7          	lui	a7,0xa08c6
8000341c:	01431733          	sll	a4,t1,s4
80003420:	00d09993          	slli	s3,ra,0xd
80003424:	0000100f          	fence.i
80003428:	0140b7b3          	sltu	a5,ra,s4
8000342c:	024b7863          	bgeu	s6,tp,8000345c <sub_1_stack_p+0x1708>
80003430:	01537533          	and	a0,t1,s5
80003434:	01950263          	beq	a0,s9,80003438 <sub_1_stack_p+0x16e4>
80003438:	01c45713          	srli	a4,s0,0x1c
8000343c:	41ae0833          	sub	a6,t3,s10
80003440:	03d09463          	bne	ra,t4,80003468 <sub_1_stack_p+0x1714>
80003444:	00d09993          	slli	s3,ra,0xd
80003448:	0ff0000f          	fence
8000344c:	0072c133          	xor	sp,t0,t2
80003450:	e5e3fb93          	andi	s7,t2,-418
80003454:	05950063          	beq	a0,s9,80003494 <sub_1_stack_p+0x1740>
80003458:	05950463          	beq	a0,s9,800034a0 <sub_1_stack_p+0x174c>
8000345c:	0141adb3          	slt	s11,gp,s4
80003460:	01950263          	beq	a0,s9,80003464 <sub_1_stack_p+0x1710>
80003464:	e5a8cb93          	xori	s7,a7,-422
80003468:	01465bb3          	srl	s7,a2,s4
8000346c:	00d09993          	slli	s3,ra,0xd
80003470:	574a0113          	addi	sp,s4,1396
80003474:	03d09a63          	bne	ra,t4,800034a8 <sub_1_stack_p+0x1754>
80003478:	01465bb3          	srl	s7,a2,s4
8000347c:	bde33713          	sltiu	a4,t1,-1058
80003480:	01465bb3          	srl	s7,a2,s4
80003484:	a08c68b7          	lui	a7,0xa08c6
80003488:	05d09263          	bne	ra,t4,800034cc <sub_1_stack_p+0x1778>
8000348c:	a08c68b7          	lui	a7,0xa08c6
80003490:	019fe0b3          	or	ra,t6,s9
80003494:	e5e3fb93          	andi	s7,t2,-418
80003498:	01431733          	sll	a4,t1,s4
8000349c:	01465bb3          	srl	s7,a2,s4
800034a0:	044b7663          	bgeu	s6,tp,800034ec <sub_1_stack_p+0x1798>
800034a4:	41ae0833          	sub	a6,t3,s10
800034a8:	016fda63          	bge	t6,s6,800034bc <sub_1_stack_p+0x1768>
800034ac:	03950063          	beq	a0,s9,800034cc <sub_1_stack_p+0x1778>
800034b0:	0107c263          	blt	a5,a6,800034b4 <sub_1_stack_p+0x1760>
800034b4:	574a0113          	addi	sp,s4,1396
800034b8:	e5a8cb93          	xori	s7,a7,-422
800034bc:	41ae0833          	sub	a6,t3,s10
800034c0:	0072c133          	xor	sp,t0,t2
800034c4:	a08c68b7          	lui	a7,0xa08c6
800034c8:	0000100f          	fence.i
800034cc:	0000100f          	fence.i
800034d0:	01d09863          	bne	ra,t4,800034e0 <sub_1_stack_p+0x178c>
800034d4:	dd88a013          	slti	zero,a7,-552
800034d8:	4022ddb3          	sra	s11,t0,sp
800034dc:	bde33713          	sltiu	a4,t1,-1058
800034e0:	574a0113          	addi	sp,s4,1396
800034e4:	c66de993          	ori	s3,s11,-922
800034e8:	41ae0833          	sub	a6,t3,s10
800034ec:	4022ddb3          	sra	s11,t0,sp
800034f0:	574a0113          	addi	sp,s4,1396
800034f4:	41ae0833          	sub	a6,t3,s10
800034f8:	e4ccbc97          	auipc	s9,0xe4ccb
800034fc:	01465bb3          	srl	s7,a2,s4
80003500:	05d09463          	bne	ra,t4,80003548 <sub_1_stack_p+0x17f4>
80003504:	01808433          	add	s0,ra,s8
80003508:	4022ddb3          	sra	s11,t0,sp
8000350c:	03d09a63          	bne	ra,t4,80003540 <sub_1_stack_p+0x17ec>
80003510:	574a0113          	addi	sp,s4,1396
80003514:	01c45713          	srli	a4,s0,0x1c
80003518:	0ff0000f          	fence
8000351c:	a08c68b7          	lui	a7,0xa08c6
80003520:	03d09663          	bne	ra,t4,8000354c <sub_1_stack_p+0x17f8>
80003524:	01537533          	and	a0,t1,s5
80003528:	00d09993          	slli	s3,ra,0xd
8000352c:	4158d193          	srai	gp,a7,0x15
80003530:	01465bb3          	srl	s7,a2,s4
80003534:	01537533          	and	a0,t1,s5
80003538:	0000100f          	fence.i
8000353c:	01c45713          	srli	a4,s0,0x1c
80003540:	e5a8cb93          	xori	s7,a7,-422
80003544:	00d09993          	slli	s3,ra,0xd
80003548:	41ae0833          	sub	a6,t3,s10
8000354c:	41ae0833          	sub	a6,t3,s10
80003550:	bde33713          	sltiu	a4,t1,-1058
80003554:	0072c133          	xor	sp,t0,t2
80003558:	e4ccbc97          	auipc	s9,0xe4ccb
8000355c:	01c45713          	srli	a4,s0,0x1c
80003560:	024b7063          	bgeu	s6,tp,80003580 <sub_1_stack_p+0x182c>
80003564:	01950863          	beq	a0,s9,80003574 <sub_1_stack_p+0x1820>
80003568:	dd88a013          	slti	zero,a7,-552
8000356c:	00000013          	nop
80003570:	a08c68b7          	lui	a7,0xa08c6
80003574:	e5e3fb93          	andi	s7,t2,-418
80003578:	a08c68b7          	lui	a7,0xa08c6
8000357c:	0000100f          	fence.i
80003580:	4022ddb3          	sra	s11,t0,sp
80003584:	0507c463          	blt	a5,a6,800035cc <sub_1_stack_p+0x1878>
80003588:	0307c663          	blt	a5,a6,800035b4 <sub_1_stack_p+0x1860>
8000358c:	41ae0833          	sub	a6,t3,s10
80003590:	03d09a63          	bne	ra,t4,800035c4 <sub_1_stack_p+0x1870>
80003594:	e5a8cb93          	xori	s7,a7,-422
80003598:	01537533          	and	a0,t1,s5
8000359c:	dd88a013          	slti	zero,a7,-552
800035a0:	0000100f          	fence.i
800035a4:	0ff0000f          	fence
800035a8:	01465bb3          	srl	s7,a2,s4
800035ac:	0141adb3          	slt	s11,gp,s4
800035b0:	01537533          	and	a0,t1,s5
800035b4:	e5a8cb93          	xori	s7,a7,-422
800035b8:	00d09993          	slli	s3,ra,0xd
800035bc:	004b7263          	bgeu	s6,tp,800035c0 <sub_1_stack_p+0x186c>
800035c0:	bde33713          	sltiu	a4,t1,-1058
800035c4:	0141adb3          	slt	s11,gp,s4
800035c8:	0141adb3          	slt	s11,gp,s4
800035cc:	03950063          	beq	a0,s9,800035ec <sub_1_stack_p+0x1898>
800035d0:	016fdc63          	bge	t6,s6,800035e8 <sub_1_stack_p+0x1894>
800035d4:	4022ddb3          	sra	s11,t0,sp
800035d8:	e5e3fb93          	andi	s7,t2,-418
800035dc:	01808433          	add	s0,ra,s8
800035e0:	0072c133          	xor	sp,t0,t2
800035e4:	03950463          	beq	a0,s9,8000360c <sub_1_stack_p+0x18b8>
800035e8:	044b7663          	bgeu	s6,tp,80003634 <sub_1_stack_p+0x18e0>
800035ec:	00000013          	nop
800035f0:	e4ccbc97          	auipc	s9,0xe4ccb
800035f4:	01465bb3          	srl	s7,a2,s4
800035f8:	01537533          	and	a0,t1,s5
800035fc:	4022ddb3          	sra	s11,t0,sp
80003600:	0307ca63          	blt	a5,a6,80003634 <sub_1_stack_p+0x18e0>
80003604:	01d09263          	bne	ra,t4,80003608 <sub_1_stack_p+0x18b4>
80003608:	056fd663          	bge	t6,s6,80003654 <sub_1_stack_p+0x1900>
8000360c:	a08c68b7          	lui	a7,0xa08c6
80003610:	01465bb3          	srl	s7,a2,s4
80003614:	04d1e063          	bltu	gp,a3,80003654 <sub_1_stack_p+0x1900>
80003618:	01537533          	and	a0,t1,s5
8000361c:	574a0113          	addi	sp,s4,1396
80003620:	574a0113          	addi	sp,s4,1396
80003624:	e5a8cb93          	xori	s7,a7,-422
80003628:	01808433          	add	s0,ra,s8
8000362c:	0072c133          	xor	sp,t0,t2
80003630:	00d09993          	slli	s3,ra,0xd
80003634:	02d1e663          	bltu	gp,a3,80003660 <sub_1_stack_p+0x190c>
80003638:	05950263          	beq	a0,s9,8000367c <sub_1_stack_p+0x1928>
8000363c:	e4ccbc97          	auipc	s9,0xe4ccb
80003640:	0ff0000f          	fence
80003644:	e5a8cb93          	xori	s7,a7,-422
80003648:	c66de993          	ori	s3,s11,-922
8000364c:	0ff0000f          	fence
80003650:	0141adb3          	slt	s11,gp,s4
80003654:	0140b7b3          	sltu	a5,ra,s4
80003658:	4158d193          	srai	gp,a7,0x15
8000365c:	a08c68b7          	lui	a7,0xa08c6
80003660:	e5a8cb93          	xori	s7,a7,-422
80003664:	a08c68b7          	lui	a7,0xa08c6
80003668:	01c45713          	srli	a4,s0,0x1c
8000366c:	00000013          	nop
80003670:	c66de993          	ori	s3,s11,-922
80003674:	00d09993          	slli	s3,ra,0xd
80003678:	0141adb3          	slt	s11,gp,s4
8000367c:	4022ddb3          	sra	s11,t0,sp
80003680:	c66de993          	ori	s3,s11,-922
80003684:	0107ca63          	blt	a5,a6,80003698 <sub_1_stack_p+0x1944>
80003688:	e4ccbc97          	auipc	s9,0xe4ccb
8000368c:	019fe0b3          	or	ra,t6,s9
80003690:	574a0113          	addi	sp,s4,1396
80003694:	0107c463          	blt	a5,a6,8000369c <sub_1_stack_p+0x1948>
80003698:	0307c063          	blt	a5,a6,800036b8 <sub_1_stack_p+0x1964>
8000369c:	01431733          	sll	a4,t1,s4
800036a0:	01465bb3          	srl	s7,a2,s4
800036a4:	03d09663          	bne	ra,t4,800036d0 <sub_1_stack_p+0x197c>
800036a8:	004b7863          	bgeu	s6,tp,800036b8 <sub_1_stack_p+0x1964>
800036ac:	00000013          	nop
800036b0:	01431733          	sll	a4,t1,s4
800036b4:	e4ccbc97          	auipc	s9,0xe4ccb
800036b8:	41ae0833          	sub	a6,t3,s10
800036bc:	00000013          	nop
800036c0:	e5e3fb93          	andi	s7,t2,-418
800036c4:	0ff0000f          	fence
800036c8:	0141adb3          	slt	s11,gp,s4
800036cc:	056fd263          	bge	t6,s6,80003710 <sub_1_stack_p+0x19bc>
800036d0:	c66de993          	ori	s3,s11,-922
800036d4:	e5e3fb93          	andi	s7,t2,-418
800036d8:	e5a8cb93          	xori	s7,a7,-422
800036dc:	004b7263          	bgeu	s6,tp,800036e0 <sub_1_stack_p+0x198c>
800036e0:	0072c133          	xor	sp,t0,t2
800036e4:	41ae0833          	sub	a6,t3,s10
800036e8:	00d09993          	slli	s3,ra,0xd
800036ec:	0ff0000f          	fence
800036f0:	4158d193          	srai	gp,a7,0x15
800036f4:	e4ccbc97          	auipc	s9,0xe4ccb
800036f8:	01431733          	sll	a4,t1,s4
800036fc:	a08c68b7          	lui	a7,0xa08c6
80003700:	01950e63          	beq	a0,s9,8000371c <sub_1_stack_p+0x19c8>
80003704:	bde33713          	sltiu	a4,t1,-1058
80003708:	01c45713          	srli	a4,s0,0x1c
8000370c:	574a0113          	addi	sp,s4,1396
80003710:	0000100f          	fence.i
80003714:	e5e3fb93          	andi	s7,t2,-418
80003718:	41ae0833          	sub	a6,t3,s10
8000371c:	574a0113          	addi	sp,s4,1396
80003720:	4158d193          	srai	gp,a7,0x15
80003724:	bde33713          	sltiu	a4,t1,-1058
80003728:	0000100f          	fence.i
8000372c:	0000100f          	fence.i
80003730:	00000013          	nop
80003734:	0072c133          	xor	sp,t0,t2
80003738:	574a0113          	addi	sp,s4,1396
8000373c:	019fe0b3          	or	ra,t6,s9
80003740:	019fe0b3          	or	ra,t6,s9
80003744:	a08c68b7          	lui	a7,0xa08c6
80003748:	0140b7b3          	sltu	a5,ra,s4
8000374c:	0507c063          	blt	a5,a6,8000378c <sub_1_stack_p+0x1a38>
80003750:	0140b7b3          	sltu	a5,ra,s4
80003754:	e5e3fb93          	andi	s7,t2,-418
80003758:	e4ccbc97          	auipc	s9,0xe4ccb
8000375c:	00000013          	nop
80003760:	574a0113          	addi	sp,s4,1396
80003764:	0000100f          	fence.i
80003768:	00000013          	nop
8000376c:	4022ddb3          	sra	s11,t0,sp
80003770:	00d09993          	slli	s3,ra,0xd
80003774:	01537533          	and	a0,t1,s5
80003778:	e5a8cb93          	xori	s7,a7,-422
8000377c:	01465bb3          	srl	s7,a2,s4
80003780:	4022ddb3          	sra	s11,t0,sp
80003784:	0141adb3          	slt	s11,gp,s4
80003788:	05950263          	beq	a0,s9,800037cc <sub_1_stack_p+0x1a78>
8000378c:	01537533          	and	a0,t1,s5
80003790:	0000100f          	fence.i
80003794:	02d1ee63          	bltu	gp,a3,800037d0 <sub_1_stack_p+0x1a7c>
80003798:	0000100f          	fence.i
8000379c:	0072c133          	xor	sp,t0,t2
800037a0:	41ae0833          	sub	a6,t3,s10
800037a4:	04d1e463          	bltu	gp,a3,800037ec <sub_1_stack_p+0x1a98>
800037a8:	e4ccbc97          	auipc	s9,0xe4ccb
800037ac:	4022ddb3          	sra	s11,t0,sp
800037b0:	574a0113          	addi	sp,s4,1396
800037b4:	05950263          	beq	a0,s9,800037f8 <sub_1_stack_p+0x1aa4>
800037b8:	01808433          	add	s0,ra,s8
800037bc:	0140b7b3          	sltu	a5,ra,s4
800037c0:	4158d193          	srai	gp,a7,0x15
800037c4:	0ff0000f          	fence
800037c8:	036fd863          	bge	t6,s6,800037f8 <sub_1_stack_p+0x1aa4>
800037cc:	01c45713          	srli	a4,s0,0x1c
800037d0:	4022ddb3          	sra	s11,t0,sp
800037d4:	e5e3fb93          	andi	s7,t2,-418
800037d8:	dd88a013          	slti	zero,a7,-552
800037dc:	0072c133          	xor	sp,t0,t2
800037e0:	00000013          	nop
800037e4:	01808433          	add	s0,ra,s8
800037e8:	4022ddb3          	sra	s11,t0,sp
800037ec:	00000013          	nop
800037f0:	01431733          	sll	a4,t1,s4
800037f4:	01537533          	and	a0,t1,s5
800037f8:	4158d193          	srai	gp,a7,0x15
800037fc:	0140b7b3          	sltu	a5,ra,s4
80003800:	e4ccbc97          	auipc	s9,0xe4ccb
80003804:	0141adb3          	slt	s11,gp,s4
80003808:	41ae0833          	sub	a6,t3,s10
8000380c:	dd88a013          	slti	zero,a7,-552
80003810:	03950a63          	beq	a0,s9,80003844 <sub_1_stack_p+0x1af0>
80003814:	4022ddb3          	sra	s11,t0,sp
80003818:	016fd463          	bge	t6,s6,80003820 <sub_1_stack_p+0x1acc>
8000381c:	01808433          	add	s0,ra,s8
80003820:	e5a8cb93          	xori	s7,a7,-422
80003824:	c66de993          	ori	s3,s11,-922
80003828:	00d1e863          	bltu	gp,a3,80003838 <sub_1_stack_p+0x1ae4>
8000382c:	4158d193          	srai	gp,a7,0x15
80003830:	01537533          	and	a0,t1,s5
80003834:	bde33713          	sltiu	a4,t1,-1058
80003838:	0ff0000f          	fence
8000383c:	0ff0000f          	fence
80003840:	a08c68b7          	lui	a7,0xa08c6
80003844:	01465bb3          	srl	s7,a2,s4
80003848:	a08c68b7          	lui	a7,0xa08c6
8000384c:	01431733          	sll	a4,t1,s4
80003850:	4022ddb3          	sra	s11,t0,sp
80003854:	01950263          	beq	a0,s9,80003858 <sub_1_stack_p+0x1b04>
80003858:	00000013          	nop
8000385c:	01431733          	sll	a4,t1,s4
80003860:	00d09993          	slli	s3,ra,0xd
80003864:	574a0113          	addi	sp,s4,1396
80003868:	0000100f          	fence.i
8000386c:	dd88a013          	slti	zero,a7,-552
80003870:	c66de993          	ori	s3,s11,-922
80003874:	4022ddb3          	sra	s11,t0,sp
80003878:	e5e3fb93          	andi	s7,t2,-418
8000387c:	e5a8cb93          	xori	s7,a7,-422
80003880:	01808433          	add	s0,ra,s8
80003884:	dd88a013          	slti	zero,a7,-552
80003888:	574a0113          	addi	sp,s4,1396
8000388c:	dd88a013          	slti	zero,a7,-552
80003890:	0072c133          	xor	sp,t0,t2
80003894:	024b7e63          	bgeu	s6,tp,800038d0 <sub_1_stack_p+0x1b7c>
80003898:	00d1e863          	bltu	gp,a3,800038a8 <sub_1_stack_p+0x1b54>
8000389c:	41ae0833          	sub	a6,t3,s10
800038a0:	01465bb3          	srl	s7,a2,s4
800038a4:	00d09993          	slli	s3,ra,0xd
800038a8:	574a0113          	addi	sp,s4,1396
800038ac:	574a0113          	addi	sp,s4,1396
800038b0:	e5e3fb93          	andi	s7,t2,-418
800038b4:	0140b7b3          	sltu	a5,ra,s4
800038b8:	574a0113          	addi	sp,s4,1396
800038bc:	01808433          	add	s0,ra,s8
800038c0:	019fe0b3          	or	ra,t6,s9
800038c4:	044b7463          	bgeu	s6,tp,8000390c <sub_1_stack_p+0x1bb8>
800038c8:	056fd063          	bge	t6,s6,80003908 <sub_1_stack_p+0x1bb4>
800038cc:	dd88a013          	slti	zero,a7,-552
800038d0:	bde33713          	sltiu	a4,t1,-1058
800038d4:	0ff0000f          	fence
800038d8:	4022ddb3          	sra	s11,t0,sp
800038dc:	0072c133          	xor	sp,t0,t2
800038e0:	03950663          	beq	a0,s9,8000390c <sub_1_stack_p+0x1bb8>
800038e4:	0307c063          	blt	a5,a6,80003904 <sub_1_stack_p+0x1bb0>
800038e8:	00000013          	nop
800038ec:	01537533          	and	a0,t1,s5
800038f0:	0072c133          	xor	sp,t0,t2
800038f4:	01808433          	add	s0,ra,s8
800038f8:	00d09993          	slli	s3,ra,0xd
800038fc:	0000100f          	fence.i
80003900:	dd88a013          	slti	zero,a7,-552
80003904:	e4ccbc97          	auipc	s9,0xe4ccb
80003908:	044b7263          	bgeu	s6,tp,8000394c <sub_1_stack_p+0x1bf8>
8000390c:	019fe0b3          	or	ra,t6,s9
80003910:	01537533          	and	a0,t1,s5
80003914:	a08c68b7          	lui	a7,0xa08c6
80003918:	03950a63          	beq	a0,s9,8000394c <sub_1_stack_p+0x1bf8>
8000391c:	e4ccbc97          	auipc	s9,0xe4ccb
80003920:	e5e3fb93          	andi	s7,t2,-418
80003924:	c66de993          	ori	s3,s11,-922
80003928:	02d1ea63          	bltu	gp,a3,8000395c <sub_1_stack_p+0x1c08>
8000392c:	036fd663          	bge	t6,s6,80003958 <sub_1_stack_p+0x1c04>
80003930:	0507c263          	blt	a5,a6,80003974 <sub_1_stack_p+0x1c20>
80003934:	e5e3fb93          	andi	s7,t2,-418
80003938:	0107ca63          	blt	a5,a6,8000394c <sub_1_stack_p+0x1bf8>
8000393c:	0141adb3          	slt	s11,gp,s4
80003940:	bde33713          	sltiu	a4,t1,-1058
80003944:	036fd463          	bge	t6,s6,8000396c <sub_1_stack_p+0x1c18>
80003948:	01808433          	add	s0,ra,s8
8000394c:	e5e3fb93          	andi	s7,t2,-418
80003950:	dd88a013          	slti	zero,a7,-552
80003954:	e5e3fb93          	andi	s7,t2,-418
80003958:	574a0113          	addi	sp,s4,1396
8000395c:	01537533          	and	a0,t1,s5
80003960:	e4ccbc97          	auipc	s9,0xe4ccb
80003964:	4022ddb3          	sra	s11,t0,sp
80003968:	e5e3fb93          	andi	s7,t2,-418
8000396c:	03950663          	beq	a0,s9,80003998 <sub_1_stack_p+0x1c44>
80003970:	0507c263          	blt	a5,a6,800039b4 <sub_1_stack_p+0x1c60>
80003974:	019fe0b3          	or	ra,t6,s9
80003978:	0140b7b3          	sltu	a5,ra,s4
8000397c:	e4ccbc97          	auipc	s9,0xe4ccb
80003980:	574a0113          	addi	sp,s4,1396
80003984:	dd88a013          	slti	zero,a7,-552
80003988:	bde33713          	sltiu	a4,t1,-1058
8000398c:	e5a8cb93          	xori	s7,a7,-422
80003990:	41ae0833          	sub	a6,t3,s10
80003994:	4022ddb3          	sra	s11,t0,sp
80003998:	a08c68b7          	lui	a7,0xa08c6
8000399c:	0072c133          	xor	sp,t0,t2
800039a0:	019fe0b3          	or	ra,t6,s9
800039a4:	a08c68b7          	lui	a7,0xa08c6
800039a8:	02d1e863          	bltu	gp,a3,800039d8 <sub_1_stack_p+0x1c84>
800039ac:	01431733          	sll	a4,t1,s4
800039b0:	41ae0833          	sub	a6,t3,s10
800039b4:	01465bb3          	srl	s7,a2,s4
800039b8:	0000100f          	fence.i
800039bc:	4158d193          	srai	gp,a7,0x15
800039c0:	01950263          	beq	a0,s9,800039c4 <sub_1_stack_p+0x1c70>
800039c4:	0140b7b3          	sltu	a5,ra,s4
800039c8:	0140b7b3          	sltu	a5,ra,s4
800039cc:	01537533          	and	a0,t1,s5
800039d0:	044b7263          	bgeu	s6,tp,80003a14 <sub_1_stack_p+0x1cc0>
800039d4:	e5a8cb93          	xori	s7,a7,-422
800039d8:	bde33713          	sltiu	a4,t1,-1058
800039dc:	019fe0b3          	or	ra,t6,s9
800039e0:	01465bb3          	srl	s7,a2,s4
800039e4:	0ff0000f          	fence
800039e8:	019fe0b3          	or	ra,t6,s9
800039ec:	00000013          	nop
800039f0:	0140b7b3          	sltu	a5,ra,s4
800039f4:	056fd063          	bge	t6,s6,80003a34 <sub_1_stack_p+0x1ce0>
800039f8:	01c45713          	srli	a4,s0,0x1c
800039fc:	03d09a63          	bne	ra,t4,80003a30 <sub_1_stack_p+0x1cdc>
80003a00:	4022ddb3          	sra	s11,t0,sp
80003a04:	dd88a013          	slti	zero,a7,-552
80003a08:	01537533          	and	a0,t1,s5
80003a0c:	00000013          	nop
80003a10:	e4ccbc97          	auipc	s9,0xe4ccb
80003a14:	01431733          	sll	a4,t1,s4
80003a18:	0ff0000f          	fence
80003a1c:	05d09663          	bne	ra,t4,80003a68 <sub_1_stack_p+0x1d14>
80003a20:	0ff0000f          	fence
80003a24:	01431733          	sll	a4,t1,s4
80003a28:	03d09063          	bne	ra,t4,80003a48 <sub_1_stack_p+0x1cf4>
80003a2c:	4158d193          	srai	gp,a7,0x15
80003a30:	0140b7b3          	sltu	a5,ra,s4
80003a34:	0507c463          	blt	a5,a6,80003a7c <sub_1_stack_p+0x1d28>
80003a38:	41ae0833          	sub	a6,t3,s10
80003a3c:	01d09c63          	bne	ra,t4,80003a54 <sub_1_stack_p+0x1d00>
80003a40:	0ff0000f          	fence
80003a44:	a08c68b7          	lui	a7,0xa08c6
80003a48:	e4ccbc97          	auipc	s9,0xe4ccb
80003a4c:	0072c133          	xor	sp,t0,t2
80003a50:	e4ccbc97          	auipc	s9,0xe4ccb
80003a54:	019fe0b3          	or	ra,t6,s9
80003a58:	01537533          	and	a0,t1,s5
80003a5c:	00000013          	nop
80003a60:	0000100f          	fence.i
80003a64:	e5a8cb93          	xori	s7,a7,-422
80003a68:	0ff0000f          	fence
80003a6c:	574a0113          	addi	sp,s4,1396
80003a70:	01431733          	sll	a4,t1,s4
80003a74:	c66de993          	ori	s3,s11,-922
80003a78:	41ae0833          	sub	a6,t3,s10
80003a7c:	e5a8cb93          	xori	s7,a7,-422
80003a80:	e5e3fb93          	andi	s7,t2,-418
80003a84:	01808433          	add	s0,ra,s8
80003a88:	01537533          	and	a0,t1,s5
80003a8c:	0ff0000f          	fence
80003a90:	41ae0833          	sub	a6,t3,s10
80003a94:	e5e3fb93          	andi	s7,t2,-418
80003a98:	a08c68b7          	lui	a7,0xa08c6
80003a9c:	0ff0000f          	fence
80003aa0:	574a0113          	addi	sp,s4,1396
80003aa4:	e5a8cb93          	xori	s7,a7,-422
80003aa8:	0000100f          	fence.i
80003aac:	bde33713          	sltiu	a4,t1,-1058
80003ab0:	574a0113          	addi	sp,s4,1396
80003ab4:	0141adb3          	slt	s11,gp,s4
80003ab8:	00000013          	nop
80003abc:	574a0113          	addi	sp,s4,1396
80003ac0:	01950263          	beq	a0,s9,80003ac4 <sub_1_stack_p+0x1d70>
80003ac4:	e5e3fb93          	andi	s7,t2,-418
80003ac8:	04d1e663          	bltu	gp,a3,80003b14 <sub_1_stack_p+0x1dc0>
80003acc:	e4ccbc97          	auipc	s9,0xe4ccb
80003ad0:	dd88a013          	slti	zero,a7,-552
80003ad4:	00d09993          	slli	s3,ra,0xd
80003ad8:	00d1ee63          	bltu	gp,a3,80003af4 <sub_1_stack_p+0x1da0>
80003adc:	e4ccbc97          	auipc	s9,0xe4ccb
80003ae0:	0140b7b3          	sltu	a5,ra,s4
80003ae4:	0072c133          	xor	sp,t0,t2
80003ae8:	bde33713          	sltiu	a4,t1,-1058
80003aec:	036fd663          	bge	t6,s6,80003b18 <sub_1_stack_p+0x1dc4>
80003af0:	0ff0000f          	fence
80003af4:	01537533          	and	a0,t1,s5
80003af8:	e4ccbc97          	auipc	s9,0xe4ccb
80003afc:	03950a63          	beq	a0,s9,80003b30 <sub_1_stack_p+0x1ddc>
80003b00:	04d1e263          	bltu	gp,a3,80003b44 <sub_1_stack_p+0x1df0>
80003b04:	e5a8cb93          	xori	s7,a7,-422
80003b08:	01950a63          	beq	a0,s9,80003b1c <sub_1_stack_p+0x1dc8>
80003b0c:	01537533          	and	a0,t1,s5
80003b10:	01537533          	and	a0,t1,s5
80003b14:	e5a8cb93          	xori	s7,a7,-422
80003b18:	056fd263          	bge	t6,s6,80003b5c <sub_1_stack_p+0x1e08>
80003b1c:	00d1e863          	bltu	gp,a3,80003b2c <sub_1_stack_p+0x1dd8>
80003b20:	00000013          	nop
80003b24:	a08c68b7          	lui	a7,0xa08c6
80003b28:	e5a8cb93          	xori	s7,a7,-422
80003b2c:	05950263          	beq	a0,s9,80003b70 <sub_1_stack_p+0x1e1c>
80003b30:	036fd863          	bge	t6,s6,80003b60 <sub_1_stack_p+0x1e0c>
80003b34:	e4ccbc97          	auipc	s9,0xe4ccb
80003b38:	bde33713          	sltiu	a4,t1,-1058
80003b3c:	01537533          	and	a0,t1,s5
80003b40:	0072c133          	xor	sp,t0,t2
80003b44:	0000100f          	fence.i
80003b48:	4158d193          	srai	gp,a7,0x15
80003b4c:	01808433          	add	s0,ra,s8
80003b50:	e4ccbc97          	auipc	s9,0xe4ccb
80003b54:	574a0113          	addi	sp,s4,1396
80003b58:	0507c663          	blt	a5,a6,80003ba4 <sub_1_stack_p+0x1e50>
80003b5c:	01465bb3          	srl	s7,a2,s4
80003b60:	0507c663          	blt	a5,a6,80003bac <sub_1_stack_p+0x1e58>
80003b64:	e4ccbc97          	auipc	s9,0xe4ccb
80003b68:	0000100f          	fence.i
80003b6c:	00000013          	nop
80003b70:	0ff0000f          	fence
80003b74:	e5e3fb93          	andi	s7,t2,-418
80003b78:	01537533          	and	a0,t1,s5
80003b7c:	dd88a013          	slti	zero,a7,-552
80003b80:	04d1e463          	bltu	gp,a3,80003bc8 <sub_1_stack_p+0x1e74>
80003b84:	0107c263          	blt	a5,a6,80003b88 <sub_1_stack_p+0x1e34>
80003b88:	04d1e063          	bltu	gp,a3,80003bc8 <sub_1_stack_p+0x1e74>
80003b8c:	0140b7b3          	sltu	a5,ra,s4
80003b90:	01465bb3          	srl	s7,a2,s4
80003b94:	e5a8cb93          	xori	s7,a7,-422
80003b98:	019fe0b3          	or	ra,t6,s9
80003b9c:	01431733          	sll	a4,t1,s4
80003ba0:	dd88a013          	slti	zero,a7,-552
80003ba4:	e5a8cb93          	xori	s7,a7,-422
80003ba8:	01808433          	add	s0,ra,s8
80003bac:	00d09993          	slli	s3,ra,0xd
80003bb0:	01431733          	sll	a4,t1,s4
80003bb4:	01465bb3          	srl	s7,a2,s4
80003bb8:	4022ddb3          	sra	s11,t0,sp
80003bbc:	01c45713          	srli	a4,s0,0x1c
80003bc0:	e5e3fb93          	andi	s7,t2,-418
80003bc4:	41ae0833          	sub	a6,t3,s10
80003bc8:	016fd463          	bge	t6,s6,80003bd0 <sub_1_stack_p+0x1e7c>
80003bcc:	a08c68b7          	lui	a7,0xa08c6
80003bd0:	0072c133          	xor	sp,t0,t2
80003bd4:	03d09663          	bne	ra,t4,80003c00 <sub_1_stack_p+0x1eac>
80003bd8:	01465bb3          	srl	s7,a2,s4
80003bdc:	019fe0b3          	or	ra,t6,s9
80003be0:	00d09993          	slli	s3,ra,0xd
80003be4:	574a0113          	addi	sp,s4,1396
80003be8:	bde33713          	sltiu	a4,t1,-1058
80003bec:	0140b7b3          	sltu	a5,ra,s4
80003bf0:	0ff0000f          	fence
80003bf4:	01c45713          	srli	a4,s0,0x1c
80003bf8:	4022ddb3          	sra	s11,t0,sp
80003bfc:	0072c133          	xor	sp,t0,t2
80003c00:	e4ccbc97          	auipc	s9,0xe4ccb
80003c04:	a08c68b7          	lui	a7,0xa08c6
80003c08:	0ff0000f          	fence
80003c0c:	4022ddb3          	sra	s11,t0,sp
80003c10:	dd88a013          	slti	zero,a7,-552
80003c14:	00000013          	nop
80003c18:	0000100f          	fence.i
80003c1c:	036fd063          	bge	t6,s6,80003c3c <sub_1_stack_p+0x1ee8>
80003c20:	0072c133          	xor	sp,t0,t2
80003c24:	0140b7b3          	sltu	a5,ra,s4
80003c28:	a08c68b7          	lui	a7,0xa08c6
80003c2c:	e5a8cb93          	xori	s7,a7,-422
80003c30:	04d1e463          	bltu	gp,a3,80003c78 <sub_1_stack_p+0x1f24>
80003c34:	036fd463          	bge	t6,s6,80003c5c <sub_1_stack_p+0x1f08>
80003c38:	e5e3fb93          	andi	s7,t2,-418
80003c3c:	0141adb3          	slt	s11,gp,s4
80003c40:	01431733          	sll	a4,t1,s4
80003c44:	0ff0000f          	fence
80003c48:	036fda63          	bge	t6,s6,80003c7c <sub_1_stack_p+0x1f28>
80003c4c:	01431733          	sll	a4,t1,s4
80003c50:	0141adb3          	slt	s11,gp,s4
80003c54:	01465bb3          	srl	s7,a2,s4
80003c58:	0507c063          	blt	a5,a6,80003c98 <sub_1_stack_p+0x1f44>
80003c5c:	e5e3fb93          	andi	s7,t2,-418
80003c60:	a08c68b7          	lui	a7,0xa08c6
80003c64:	574a0113          	addi	sp,s4,1396
80003c68:	574a0113          	addi	sp,s4,1396
80003c6c:	bde33713          	sltiu	a4,t1,-1058
80003c70:	01465bb3          	srl	s7,a2,s4
80003c74:	00000013          	nop
80003c78:	0000100f          	fence.i
80003c7c:	0140b7b3          	sltu	a5,ra,s4
80003c80:	4022ddb3          	sra	s11,t0,sp
80003c84:	01431733          	sll	a4,t1,s4
80003c88:	574a0113          	addi	sp,s4,1396
80003c8c:	0000100f          	fence.i
80003c90:	e5a8cb93          	xori	s7,a7,-422
80003c94:	0000100f          	fence.i
80003c98:	05950263          	beq	a0,s9,80003cdc <sub_1_stack_p+0x1f88>
80003c9c:	019fe0b3          	or	ra,t6,s9
80003ca0:	e5e3fb93          	andi	s7,t2,-418
80003ca4:	01465bb3          	srl	s7,a2,s4
80003ca8:	01808433          	add	s0,ra,s8
80003cac:	01465bb3          	srl	s7,a2,s4
80003cb0:	036fd663          	bge	t6,s6,80003cdc <sub_1_stack_p+0x1f88>
80003cb4:	0000100f          	fence.i
80003cb8:	0107c263          	blt	a5,a6,80003cbc <sub_1_stack_p+0x1f68>
80003cbc:	01537533          	and	a0,t1,s5
80003cc0:	4022ddb3          	sra	s11,t0,sp
80003cc4:	0141adb3          	slt	s11,gp,s4
80003cc8:	0141adb3          	slt	s11,gp,s4
80003ccc:	004b7863          	bgeu	s6,tp,80003cdc <sub_1_stack_p+0x1f88>
80003cd0:	01465bb3          	srl	s7,a2,s4
80003cd4:	4022ddb3          	sra	s11,t0,sp
80003cd8:	01465bb3          	srl	s7,a2,s4
80003cdc:	0141adb3          	slt	s11,gp,s4
80003ce0:	0ff0000f          	fence
80003ce4:	4158d193          	srai	gp,a7,0x15
80003ce8:	e5a8cb93          	xori	s7,a7,-422
80003cec:	01d09c63          	bne	ra,t4,80003d04 <sub_1_stack_p+0x1fb0>
80003cf0:	e5a8cb93          	xori	s7,a7,-422
80003cf4:	0ff0000f          	fence
80003cf8:	e5a8cb93          	xori	s7,a7,-422
80003cfc:	0141adb3          	slt	s11,gp,s4
80003d00:	0000100f          	fence.i
80003d04:	0307c063          	blt	a5,a6,80003d24 <sub_1_stack_p+0x1fd0>
80003d08:	0ff0000f          	fence
80003d0c:	00d09993          	slli	s3,ra,0xd
80003d10:	0140b7b3          	sltu	a5,ra,s4
80003d14:	019fe0b3          	or	ra,t6,s9
80003d18:	574a0113          	addi	sp,s4,1396
80003d1c:	a08c68b7          	lui	a7,0xa08c6
80003d20:	574a0113          	addi	sp,s4,1396
80003d24:	0ff0000f          	fence
80003d28:	01431733          	sll	a4,t1,s4
80003d2c:	0072c133          	xor	sp,t0,t2
80003d30:	e4ccbc97          	auipc	s9,0xe4ccb
80003d34:	0000100f          	fence.i
80003d38:	4158d193          	srai	gp,a7,0x15
80003d3c:	01950263          	beq	a0,s9,80003d40 <sub_1_stack_p+0x1fec>
80003d40:	e5e3fb93          	andi	s7,t2,-418
80003d44:	0ff0000f          	fence
80003d48:	0072c133          	xor	sp,t0,t2
80003d4c:	00d09993          	slli	s3,ra,0xd
80003d50:	0ff0000f          	fence
80003d54:	004b7e63          	bgeu	s6,tp,80003d70 <sub_1_stack_p+0x201c>
80003d58:	a08c68b7          	lui	a7,0xa08c6
80003d5c:	0307ca63          	blt	a5,a6,80003d90 <sub_1_stack_p+0x203c>
80003d60:	0307ce63          	blt	a5,a6,80003d9c <sub_1_stack_p+0x2048>
80003d64:	01808433          	add	s0,ra,s8
80003d68:	016fd863          	bge	t6,s6,80003d78 <sub_1_stack_p+0x2024>
80003d6c:	01808433          	add	s0,ra,s8
80003d70:	bde33713          	sltiu	a4,t1,-1058
80003d74:	574a0113          	addi	sp,s4,1396
80003d78:	41ae0833          	sub	a6,t3,s10
80003d7c:	044b7263          	bgeu	s6,tp,80003dc0 <sub_1_stack_p+0x206c>
80003d80:	01431733          	sll	a4,t1,s4
80003d84:	01537533          	and	a0,t1,s5
80003d88:	01c45713          	srli	a4,s0,0x1c
80003d8c:	0140b7b3          	sltu	a5,ra,s4
80003d90:	019fe0b3          	or	ra,t6,s9
80003d94:	c66de993          	ori	s3,s11,-922
80003d98:	41ae0833          	sub	a6,t3,s10
80003d9c:	41ae0833          	sub	a6,t3,s10
80003da0:	e5e3fb93          	andi	s7,t2,-418
80003da4:	00000013          	nop
80003da8:	0140b7b3          	sltu	a5,ra,s4
80003dac:	e5e3fb93          	andi	s7,t2,-418
80003db0:	0ff0000f          	fence
80003db4:	0072c133          	xor	sp,t0,t2
80003db8:	00000013          	nop
80003dbc:	019fe0b3          	or	ra,t6,s9
80003dc0:	01d09863          	bne	ra,t4,80003dd0 <sub_1_stack_p+0x207c>
80003dc4:	01808433          	add	s0,ra,s8
80003dc8:	c66de993          	ori	s3,s11,-922
80003dcc:	a08c68b7          	lui	a7,0xa08c6
80003dd0:	056fd063          	bge	t6,s6,80003e10 <sub_1_stack_p+0x20bc>
80003dd4:	016fdc63          	bge	t6,s6,80003dec <sub_1_stack_p+0x2098>
80003dd8:	e4ccbc97          	auipc	s9,0xe4ccb
80003ddc:	574a0113          	addi	sp,s4,1396
80003de0:	e5e3fb93          	andi	s7,t2,-418
80003de4:	0140b7b3          	sltu	a5,ra,s4
80003de8:	0140b7b3          	sltu	a5,ra,s4
80003dec:	0107ca63          	blt	a5,a6,80003e00 <sub_1_stack_p+0x20ac>
80003df0:	02d1e663          	bltu	gp,a3,80003e1c <sub_1_stack_p+0x20c8>
80003df4:	01808433          	add	s0,ra,s8
80003df8:	05950263          	beq	a0,s9,80003e3c <sub_1_stack_p+0x20e8>
80003dfc:	4022ddb3          	sra	s11,t0,sp
80003e00:	01537533          	and	a0,t1,s5
80003e04:	c66de993          	ori	s3,s11,-922
80003e08:	03d09063          	bne	ra,t4,80003e28 <sub_1_stack_p+0x20d4>
80003e0c:	02d1e663          	bltu	gp,a3,80003e38 <sub_1_stack_p+0x20e4>
80003e10:	e5e3fb93          	andi	s7,t2,-418
80003e14:	01537533          	and	a0,t1,s5
80003e18:	c66de993          	ori	s3,s11,-922
80003e1c:	01431733          	sll	a4,t1,s4
80003e20:	00d09993          	slli	s3,ra,0xd
80003e24:	a08c68b7          	lui	a7,0xa08c6
80003e28:	0140b7b3          	sltu	a5,ra,s4
80003e2c:	4158d193          	srai	gp,a7,0x15
80003e30:	00000013          	nop
80003e34:	01465bb3          	srl	s7,a2,s4
80003e38:	0072c133          	xor	sp,t0,t2
80003e3c:	574a0113          	addi	sp,s4,1396
80003e40:	019fe0b3          	or	ra,t6,s9
80003e44:	01d09e63          	bne	ra,t4,80003e60 <sub_1_stack_p+0x210c>
80003e48:	0ff0000f          	fence
80003e4c:	024b7a63          	bgeu	s6,tp,80003e80 <sub_1_stack_p+0x212c>
80003e50:	0072c133          	xor	sp,t0,t2
80003e54:	00d1e263          	bltu	gp,a3,80003e58 <sub_1_stack_p+0x2104>
80003e58:	0507c263          	blt	a5,a6,80003e9c <sub_1_stack_p+0x2148>
80003e5c:	dd88a013          	slti	zero,a7,-552
80003e60:	bde33713          	sltiu	a4,t1,-1058
80003e64:	574a0113          	addi	sp,s4,1396
80003e68:	0141adb3          	slt	s11,gp,s4
80003e6c:	0141adb3          	slt	s11,gp,s4
80003e70:	03950063          	beq	a0,s9,80003e90 <sub_1_stack_p+0x213c>
80003e74:	e5e3fb93          	andi	s7,t2,-418
80003e78:	e5a8cb93          	xori	s7,a7,-422
80003e7c:	c66de993          	ori	s3,s11,-922
80003e80:	01431733          	sll	a4,t1,s4
80003e84:	e5e3fb93          	andi	s7,t2,-418
80003e88:	0140b7b3          	sltu	a5,ra,s4
80003e8c:	e4ccbc97          	auipc	s9,0xe4ccb
80003e90:	01431733          	sll	a4,t1,s4
80003e94:	0140b7b3          	sltu	a5,ra,s4
80003e98:	00d09993          	slli	s3,ra,0xd
80003e9c:	01950463          	beq	a0,s9,80003ea4 <sub_1_stack_p+0x2150>
80003ea0:	e5e3fb93          	andi	s7,t2,-418
80003ea4:	41ae0833          	sub	a6,t3,s10
80003ea8:	01c45713          	srli	a4,s0,0x1c
80003eac:	036fda63          	bge	t6,s6,80003ee0 <sub_1_stack_p+0x218c>
80003eb0:	0140b7b3          	sltu	a5,ra,s4
80003eb4:	01431733          	sll	a4,t1,s4
80003eb8:	019fe0b3          	or	ra,t6,s9
80003ebc:	0307c863          	blt	a5,a6,80003eec <sub_1_stack_p+0x2198>
80003ec0:	0507c263          	blt	a5,a6,80003f04 <sub_1_stack_p+0x21b0>
80003ec4:	4158d193          	srai	gp,a7,0x15
80003ec8:	00000013          	nop
80003ecc:	01465bb3          	srl	s7,a2,s4
80003ed0:	0ff0000f          	fence
80003ed4:	0000100f          	fence.i
80003ed8:	01950263          	beq	a0,s9,80003edc <sub_1_stack_p+0x2188>
80003edc:	574a0113          	addi	sp,s4,1396
80003ee0:	e4ccbc97          	auipc	s9,0xe4ccb
80003ee4:	03950a63          	beq	a0,s9,80003f18 <sub_1_stack_p+0x21c4>
80003ee8:	019fe0b3          	or	ra,t6,s9
80003eec:	01c45713          	srli	a4,s0,0x1c
80003ef0:	01808433          	add	s0,ra,s8
80003ef4:	4158d193          	srai	gp,a7,0x15
80003ef8:	0072c133          	xor	sp,t0,t2
80003efc:	03d09e63          	bne	ra,t4,80003f38 <sub_1_stack_p+0x21e4>
80003f00:	0507c663          	blt	a5,a6,80003f4c <sub_1_stack_p+0x21f8>
80003f04:	e5a8cb93          	xori	s7,a7,-422
80003f08:	05950463          	beq	a0,s9,80003f50 <sub_1_stack_p+0x21fc>
80003f0c:	019fe0b3          	or	ra,t6,s9
80003f10:	01c45713          	srli	a4,s0,0x1c
80003f14:	01465bb3          	srl	s7,a2,s4
80003f18:	e5e3fb93          	andi	s7,t2,-418
80003f1c:	00d09993          	slli	s3,ra,0xd
80003f20:	4158d193          	srai	gp,a7,0x15
80003f24:	00000013          	nop
80003f28:	019fe0b3          	or	ra,t6,s9
80003f2c:	e4ccbc97          	auipc	s9,0xe4ccb
80003f30:	01d09263          	bne	ra,t4,80003f34 <sub_1_stack_p+0x21e0>
80003f34:	00d09993          	slli	s3,ra,0xd
80003f38:	0507c463          	blt	a5,a6,80003f80 <sub_1_stack_p+0x222c>
80003f3c:	e5e3fb93          	andi	s7,t2,-418
80003f40:	c66de993          	ori	s3,s11,-922
80003f44:	4022ddb3          	sra	s11,t0,sp
80003f48:	e5e3fb93          	andi	s7,t2,-418
80003f4c:	05d09063          	bne	ra,t4,80003f8c <sub_1_stack_p+0x2238>
80003f50:	a08c68b7          	lui	a7,0xa08c6
80003f54:	4158d193          	srai	gp,a7,0x15
80003f58:	0141adb3          	slt	s11,gp,s4
80003f5c:	41ae0833          	sub	a6,t3,s10
80003f60:	4158d193          	srai	gp,a7,0x15
80003f64:	0ff0000f          	fence
80003f68:	a08c68b7          	lui	a7,0xa08c6
80003f6c:	0140b7b3          	sltu	a5,ra,s4
80003f70:	a08c68b7          	lui	a7,0xa08c6
80003f74:	036fd463          	bge	t6,s6,80003f9c <sub_1_stack_p+0x2248>
80003f78:	dd88a013          	slti	zero,a7,-552
80003f7c:	00d09993          	slli	s3,ra,0xd
80003f80:	03d09663          	bne	ra,t4,80003fac <sub_1_stack_p+0x2258>
80003f84:	574a0113          	addi	sp,s4,1396
80003f88:	05d09663          	bne	ra,t4,80003fd4 <sub_1_stack_p+0x2280>
80003f8c:	01d09263          	bne	ra,t4,80003f90 <sub_1_stack_p+0x223c>
80003f90:	4022ddb3          	sra	s11,t0,sp
80003f94:	dd88a013          	slti	zero,a7,-552
80003f98:	4022ddb3          	sra	s11,t0,sp
80003f9c:	bde33713          	sltiu	a4,t1,-1058
80003fa0:	41ae0833          	sub	a6,t3,s10
80003fa4:	4022ddb3          	sra	s11,t0,sp
80003fa8:	dd88a013          	slti	zero,a7,-552
80003fac:	01537533          	and	a0,t1,s5
80003fb0:	01950863          	beq	a0,s9,80003fc0 <sub_1_stack_p+0x226c>
80003fb4:	4022ddb3          	sra	s11,t0,sp
80003fb8:	01537533          	and	a0,t1,s5
80003fbc:	01537533          	and	a0,t1,s5
80003fc0:	01431733          	sll	a4,t1,s4
80003fc4:	574a0113          	addi	sp,s4,1396
80003fc8:	01537533          	and	a0,t1,s5
80003fcc:	02d1ee63          	bltu	gp,a3,80004008 <sub_1_stack_p+0x22b4>
80003fd0:	a08c68b7          	lui	a7,0xa08c6
80003fd4:	00d1ee63          	bltu	gp,a3,80003ff0 <sub_1_stack_p+0x229c>
80003fd8:	dd88a013          	slti	zero,a7,-552
80003fdc:	dd88a013          	slti	zero,a7,-552
80003fe0:	e5e3fb93          	andi	s7,t2,-418
80003fe4:	0000100f          	fence.i
80003fe8:	056fd263          	bge	t6,s6,8000402c <sub_1_stack_p+0x22d8>
80003fec:	0ff0000f          	fence
80003ff0:	0ff0000f          	fence
80003ff4:	e5a8cb93          	xori	s7,a7,-422
80003ff8:	03950663          	beq	a0,s9,80004024 <sub_1_stack_p+0x22d0>
80003ffc:	01537533          	and	a0,t1,s5
80004000:	0141adb3          	slt	s11,gp,s4
80004004:	c66de993          	ori	s3,s11,-922
80004008:	0140b7b3          	sltu	a5,ra,s4
8000400c:	00000013          	nop
80004010:	574a0113          	addi	sp,s4,1396
80004014:	004b7463          	bgeu	s6,tp,8000401c <sub_1_stack_p+0x22c8>
80004018:	4158d193          	srai	gp,a7,0x15
8000401c:	00d09993          	slli	s3,ra,0xd
80004020:	01c45713          	srli	a4,s0,0x1c
80004024:	00d09993          	slli	s3,ra,0xd
80004028:	04d1e263          	bltu	gp,a3,8000406c <sub_1_stack_p+0x2318>
8000402c:	0000100f          	fence.i
80004030:	a08c68b7          	lui	a7,0xa08c6
80004034:	03950063          	beq	a0,s9,80004054 <sub_1_stack_p+0x2300>
80004038:	03d09063          	bne	ra,t4,80004058 <sub_1_stack_p+0x2304>
8000403c:	0ff0000f          	fence
80004040:	01808433          	add	s0,ra,s8
80004044:	0140b7b3          	sltu	a5,ra,s4
80004048:	024b7463          	bgeu	s6,tp,80004070 <sub_1_stack_p+0x231c>
8000404c:	0072c133          	xor	sp,t0,t2
80004050:	dd88a013          	slti	zero,a7,-552
80004054:	00000013          	nop
80004058:	00000013          	nop
8000405c:	0ff0000f          	fence
80004060:	e5e3fb93          	andi	s7,t2,-418
80004064:	c66de993          	ori	s3,s11,-922
80004068:	e4ccbc97          	auipc	s9,0xe4ccb
8000406c:	41ae0833          	sub	a6,t3,s10
80004070:	02d1ea63          	bltu	gp,a3,800040a4 <sub_1_stack_p+0x2350>
80004074:	019fe0b3          	or	ra,t6,s9
80004078:	dd88a013          	slti	zero,a7,-552
8000407c:	574a0113          	addi	sp,s4,1396
80004080:	0ff0000f          	fence
80004084:	0072c133          	xor	sp,t0,t2
80004088:	01808433          	add	s0,ra,s8
8000408c:	41ae0833          	sub	a6,t3,s10
80004090:	0141adb3          	slt	s11,gp,s4
80004094:	41ae0833          	sub	a6,t3,s10
80004098:	0072c133          	xor	sp,t0,t2
8000409c:	41ae0833          	sub	a6,t3,s10
800040a0:	4022ddb3          	sra	s11,t0,sp
800040a4:	01808433          	add	s0,ra,s8
800040a8:	00000013          	nop
800040ac:	e4ccbc97          	auipc	s9,0xe4ccb
800040b0:	e4ccbc97          	auipc	s9,0xe4ccb
800040b4:	e5e3fb93          	andi	s7,t2,-418
800040b8:	036fd863          	bge	t6,s6,800040e8 <sub_1_stack_p+0x2394>
800040bc:	bde33713          	sltiu	a4,t1,-1058
800040c0:	0072c133          	xor	sp,t0,t2
800040c4:	bde33713          	sltiu	a4,t1,-1058
800040c8:	05950463          	beq	a0,s9,80004110 <sub_1_stack_p+0x23bc>
800040cc:	e5e3fb93          	andi	s7,t2,-418
800040d0:	0072c133          	xor	sp,t0,t2
800040d4:	0ff0000f          	fence
800040d8:	01537533          	and	a0,t1,s5
800040dc:	05d09063          	bne	ra,t4,8000411c <sub_1_stack_p+0x23c8>
800040e0:	c66de993          	ori	s3,s11,-922
800040e4:	01465bb3          	srl	s7,a2,s4
800040e8:	01c45713          	srli	a4,s0,0x1c
800040ec:	004b7c63          	bgeu	s6,tp,80004104 <sub_1_stack_p+0x23b0>
800040f0:	01465bb3          	srl	s7,a2,s4
800040f4:	bde33713          	sltiu	a4,t1,-1058
800040f8:	dd88a013          	slti	zero,a7,-552
800040fc:	41ae0833          	sub	a6,t3,s10
80004100:	4022ddb3          	sra	s11,t0,sp
80004104:	dd88a013          	slti	zero,a7,-552
80004108:	0ff0000f          	fence
8000410c:	0072c133          	xor	sp,t0,t2
80004110:	4158d193          	srai	gp,a7,0x15
80004114:	e5e3fb93          	andi	s7,t2,-418
80004118:	03d09663          	bne	ra,t4,80004144 <sub_1_stack_p+0x23f0>
8000411c:	05950263          	beq	a0,s9,80004160 <sub_1_stack_p+0x240c>
80004120:	04d1e063          	bltu	gp,a3,80004160 <sub_1_stack_p+0x240c>
80004124:	574a0113          	addi	sp,s4,1396
80004128:	c66de993          	ori	s3,s11,-922
8000412c:	0141adb3          	slt	s11,gp,s4
80004130:	e5e3fb93          	andi	s7,t2,-418
80004134:	0507c663          	blt	a5,a6,80004180 <sub_1_stack_p+0x242c>
80004138:	024b7663          	bgeu	s6,tp,80004164 <sub_1_stack_p+0x2410>
8000413c:	01465bb3          	srl	s7,a2,s4
80004140:	e4ccbc97          	auipc	s9,0xe4ccb
80004144:	4158d193          	srai	gp,a7,0x15
80004148:	00d09993          	slli	s3,ra,0xd
8000414c:	05950463          	beq	a0,s9,80004194 <sub_1_stack_p+0x2440>
80004150:	036fda63          	bge	t6,s6,80004184 <sub_1_stack_p+0x2430>
80004154:	4022ddb3          	sra	s11,t0,sp
80004158:	0140b7b3          	sltu	a5,ra,s4
8000415c:	01431733          	sll	a4,t1,s4
80004160:	c66de993          	ori	s3,s11,-922
80004164:	c66de993          	ori	s3,s11,-922
80004168:	a08c68b7          	lui	a7,0xa08c6
8000416c:	4022ddb3          	sra	s11,t0,sp
80004170:	574a0113          	addi	sp,s4,1396
80004174:	01465bb3          	srl	s7,a2,s4
80004178:	a08c68b7          	lui	a7,0xa08c6
8000417c:	05950263          	beq	a0,s9,800041c0 <sub_1_stack_p+0x246c>
80004180:	0072c133          	xor	sp,t0,t2
80004184:	0107c863          	blt	a5,a6,80004194 <sub_1_stack_p+0x2440>
80004188:	4158d193          	srai	gp,a7,0x15
8000418c:	01465bb3          	srl	s7,a2,s4
80004190:	a08c68b7          	lui	a7,0xa08c6
80004194:	41ae0833          	sub	a6,t3,s10
80004198:	41ae0833          	sub	a6,t3,s10
8000419c:	e5e3fb93          	andi	s7,t2,-418
800041a0:	00000013          	nop
800041a4:	00000013          	nop
800041a8:	00d09993          	slli	s3,ra,0xd
800041ac:	03d09a63          	bne	ra,t4,800041e0 <sub_1_stack_p+0x248c>
800041b0:	01d09263          	bne	ra,t4,800041b4 <sub_1_stack_p+0x2460>
800041b4:	05d09663          	bne	ra,t4,80004200 <sub_1_stack_p+0x24ac>
800041b8:	e5a8cb93          	xori	s7,a7,-422
800041bc:	0000100f          	fence.i
800041c0:	0107ca63          	blt	a5,a6,800041d4 <sub_1_stack_p+0x2480>
800041c4:	01537533          	and	a0,t1,s5
800041c8:	574a0113          	addi	sp,s4,1396
800041cc:	41ae0833          	sub	a6,t3,s10
800041d0:	01950263          	beq	a0,s9,800041d4 <sub_1_stack_p+0x2480>
800041d4:	a08c68b7          	lui	a7,0xa08c6
800041d8:	4022ddb3          	sra	s11,t0,sp
800041dc:	0141adb3          	slt	s11,gp,s4
800041e0:	01950a63          	beq	a0,s9,800041f4 <sub_1_stack_p+0x24a0>
800041e4:	0ff0000f          	fence
800041e8:	0141adb3          	slt	s11,gp,s4
800041ec:	01537533          	and	a0,t1,s5
800041f0:	4158d193          	srai	gp,a7,0x15
800041f4:	04d1e663          	bltu	gp,a3,80004240 <sub_1_stack_p+0x24ec>
800041f8:	01431733          	sll	a4,t1,s4
800041fc:	00000013          	nop
80004200:	00d09993          	slli	s3,ra,0xd
80004204:	01537533          	and	a0,t1,s5
80004208:	0141adb3          	slt	s11,gp,s4
8000420c:	01c45713          	srli	a4,s0,0x1c
80004210:	0000100f          	fence.i
80004214:	e5e3fb93          	andi	s7,t2,-418
80004218:	e4ccbc97          	auipc	s9,0xe4ccb
8000421c:	01431733          	sll	a4,t1,s4
80004220:	0072c133          	xor	sp,t0,t2
80004224:	e5a8cb93          	xori	s7,a7,-422
80004228:	e5e3fb93          	andi	s7,t2,-418
8000422c:	4158d193          	srai	gp,a7,0x15
80004230:	01537533          	and	a0,t1,s5
80004234:	05d09463          	bne	ra,t4,8000427c <sub_1_stack_p+0x2528>
80004238:	02d1ea63          	bltu	gp,a3,8000426c <sub_1_stack_p+0x2518>
8000423c:	0ff0000f          	fence
80004240:	0ff0000f          	fence
80004244:	e5e3fb93          	andi	s7,t2,-418
80004248:	044b7663          	bgeu	s6,tp,80004294 <sub_1_stack_p+0x2540>
8000424c:	4022ddb3          	sra	s11,t0,sp
80004250:	bde33713          	sltiu	a4,t1,-1058
80004254:	0ff0000f          	fence
80004258:	0ff0000f          	fence
8000425c:	01950863          	beq	a0,s9,8000426c <sub_1_stack_p+0x2518>
80004260:	01c45713          	srli	a4,s0,0x1c
80004264:	c66de993          	ori	s3,s11,-922
80004268:	4022ddb3          	sra	s11,t0,sp
8000426c:	00d09993          	slli	s3,ra,0xd
80004270:	4022ddb3          	sra	s11,t0,sp
80004274:	e5e3fb93          	andi	s7,t2,-418
80004278:	4158d193          	srai	gp,a7,0x15
8000427c:	e5a8cb93          	xori	s7,a7,-422
80004280:	00000013          	nop
80004284:	04d1e263          	bltu	gp,a3,800042c8 <sub_1_stack_p+0x2574>
80004288:	05d09463          	bne	ra,t4,800042d0 <sub_1_stack_p+0x257c>
8000428c:	c66de993          	ori	s3,s11,-922
80004290:	574a0113          	addi	sp,s4,1396
80004294:	02d1ee63          	bltu	gp,a3,800042d0 <sub_1_stack_p+0x257c>
80004298:	e5e3fb93          	andi	s7,t2,-418
8000429c:	e4ccbc97          	auipc	s9,0xe4ccb
800042a0:	0307c063          	blt	a5,a6,800042c0 <sub_1_stack_p+0x256c>
800042a4:	0ff0000f          	fence
800042a8:	056fd263          	bge	t6,s6,800042ec <sub_1_stack_p+0x2598>
800042ac:	02d1e063          	bltu	gp,a3,800042cc <sub_1_stack_p+0x2578>
800042b0:	0ff0000f          	fence
800042b4:	01465bb3          	srl	s7,a2,s4
800042b8:	bde33713          	sltiu	a4,t1,-1058
800042bc:	0307ca63          	blt	a5,a6,800042f0 <sub_1_stack_p+0x259c>
800042c0:	0ff0000f          	fence
800042c4:	bde33713          	sltiu	a4,t1,-1058
800042c8:	41ae0833          	sub	a6,t3,s10
800042cc:	4022ddb3          	sra	s11,t0,sp
800042d0:	01537533          	and	a0,t1,s5
800042d4:	574a0113          	addi	sp,s4,1396
800042d8:	0140b7b3          	sltu	a5,ra,s4
800042dc:	574a0113          	addi	sp,s4,1396
800042e0:	c66de993          	ori	s3,s11,-922
800042e4:	4022ddb3          	sra	s11,t0,sp
800042e8:	4022ddb3          	sra	s11,t0,sp
800042ec:	0ff0000f          	fence
800042f0:	e4ccbc97          	auipc	s9,0xe4ccb
800042f4:	01431733          	sll	a4,t1,s4
800042f8:	016fd263          	bge	t6,s6,800042fc <sub_1_stack_p+0x25a8>
800042fc:	4022ddb3          	sra	s11,t0,sp
80004300:	019fe0b3          	or	ra,t6,s9
80004304:	01465bb3          	srl	s7,a2,s4
80004308:	036fda63          	bge	t6,s6,8000433c <sub_1_stack_p+0x25e8>
8000430c:	e4ccbc97          	auipc	s9,0xe4ccb
80004310:	574a0113          	addi	sp,s4,1396
80004314:	bde33713          	sltiu	a4,t1,-1058
80004318:	41ae0833          	sub	a6,t3,s10
8000431c:	574a0113          	addi	sp,s4,1396
80004320:	0ff0000f          	fence
80004324:	01950e63          	beq	a0,s9,80004340 <sub_1_stack_p+0x25ec>
80004328:	a08c68b7          	lui	a7,0xa08c6
8000432c:	00000013          	nop
80004330:	0000100f          	fence.i
80004334:	0000100f          	fence.i
80004338:	016fd263          	bge	t6,s6,8000433c <sub_1_stack_p+0x25e8>
8000433c:	4022ddb3          	sra	s11,t0,sp
80004340:	41ae0833          	sub	a6,t3,s10
80004344:	0140b7b3          	sltu	a5,ra,s4
80004348:	4022ddb3          	sra	s11,t0,sp
8000434c:	dd88a013          	slti	zero,a7,-552
80004350:	019fe0b3          	or	ra,t6,s9
80004354:	01c45713          	srli	a4,s0,0x1c
80004358:	03950663          	beq	a0,s9,80004384 <sub_1_stack_p+0x2630>
8000435c:	01431733          	sll	a4,t1,s4
80004360:	4022ddb3          	sra	s11,t0,sp
80004364:	00d1e263          	bltu	gp,a3,80004368 <sub_1_stack_p+0x2614>
80004368:	01537533          	and	a0,t1,s5
8000436c:	dd88a013          	slti	zero,a7,-552
80004370:	0072c133          	xor	sp,t0,t2
80004374:	e4ccbc97          	auipc	s9,0xe4ccb
80004378:	c66de993          	ori	s3,s11,-922
8000437c:	e4ccbc97          	auipc	s9,0xe4ccb
80004380:	05d09263          	bne	ra,t4,800043c4 <sub_1_stack_p+0x2670>
80004384:	01465bb3          	srl	s7,a2,s4
80004388:	02d1e663          	bltu	gp,a3,800043b4 <sub_1_stack_p+0x2660>
8000438c:	01808433          	add	s0,ra,s8
80004390:	00d09993          	slli	s3,ra,0xd
80004394:	0072c133          	xor	sp,t0,t2
80004398:	019fe0b3          	or	ra,t6,s9
8000439c:	574a0113          	addi	sp,s4,1396
800043a0:	02d1e863          	bltu	gp,a3,800043d0 <sub_1_stack_p+0x267c>
800043a4:	bde33713          	sltiu	a4,t1,-1058
800043a8:	e5a8cb93          	xori	s7,a7,-422
800043ac:	04d1e063          	bltu	gp,a3,800043ec <sub_1_stack_p+0x2698>
800043b0:	0000100f          	fence.i
800043b4:	05d09263          	bne	ra,t4,800043f8 <sub_1_stack_p+0x26a4>
800043b8:	e5a8cb93          	xori	s7,a7,-422
800043bc:	01537533          	and	a0,t1,s5
800043c0:	bde33713          	sltiu	a4,t1,-1058
800043c4:	00d09993          	slli	s3,ra,0xd
800043c8:	bde33713          	sltiu	a4,t1,-1058
800043cc:	0000100f          	fence.i
800043d0:	0ff0000f          	fence
800043d4:	41ae0833          	sub	a6,t3,s10
800043d8:	01950c63          	beq	a0,s9,800043f0 <sub_1_stack_p+0x269c>
800043dc:	c66de993          	ori	s3,s11,-922
800043e0:	a08c68b7          	lui	a7,0xa08c6
800043e4:	0140b7b3          	sltu	a5,ra,s4
800043e8:	00000013          	nop
800043ec:	4158d193          	srai	gp,a7,0x15
800043f0:	01465bb3          	srl	s7,a2,s4
800043f4:	e5e3fb93          	andi	s7,t2,-418
800043f8:	01431733          	sll	a4,t1,s4
800043fc:	019fe0b3          	or	ra,t6,s9
80004400:	036fd463          	bge	t6,s6,80004428 <sub_1_stack_p+0x26d4>
80004404:	4022ddb3          	sra	s11,t0,sp
80004408:	019fe0b3          	or	ra,t6,s9
8000440c:	bde33713          	sltiu	a4,t1,-1058
80004410:	e4ccbc97          	auipc	s9,0xe4ccb
80004414:	00d09993          	slli	s3,ra,0xd
80004418:	e4ccbc97          	auipc	s9,0xe4ccb
8000441c:	0140b7b3          	sltu	a5,ra,s4
80004420:	e5a8cb93          	xori	s7,a7,-422
80004424:	01431733          	sll	a4,t1,s4
80004428:	4158d193          	srai	gp,a7,0x15
8000442c:	0000100f          	fence.i
80004430:	00d09993          	slli	s3,ra,0xd
80004434:	01537533          	and	a0,t1,s5
80004438:	574a0113          	addi	sp,s4,1396
8000443c:	4022ddb3          	sra	s11,t0,sp
80004440:	41ae0833          	sub	a6,t3,s10
80004444:	dd88a013          	slti	zero,a7,-552
80004448:	0140b7b3          	sltu	a5,ra,s4
8000444c:	01808433          	add	s0,ra,s8
80004450:	00000013          	nop
80004454:	024b7663          	bgeu	s6,tp,80004480 <sub_1_stack_p+0x272c>
80004458:	c66de993          	ori	s3,s11,-922
8000445c:	574a0113          	addi	sp,s4,1396
80004460:	01c45713          	srli	a4,s0,0x1c
80004464:	dd88a013          	slti	zero,a7,-552
80004468:	056fd063          	bge	t6,s6,800044a8 <sub_1_stack_p+0x2754>
8000446c:	41ae0833          	sub	a6,t3,s10
80004470:	00d1e863          	bltu	gp,a3,80004480 <sub_1_stack_p+0x272c>
80004474:	01537533          	and	a0,t1,s5
80004478:	00d09993          	slli	s3,ra,0xd
8000447c:	e5a8cb93          	xori	s7,a7,-422
80004480:	01465bb3          	srl	s7,a2,s4
80004484:	01d09463          	bne	ra,t4,8000448c <sub_1_stack_p+0x2738>
80004488:	dd88a013          	slti	zero,a7,-552
8000448c:	0072c133          	xor	sp,t0,t2
80004490:	00000013          	nop
80004494:	0ff0000f          	fence
80004498:	01431733          	sll	a4,t1,s4
8000449c:	01537533          	and	a0,t1,s5
800044a0:	01950863          	beq	a0,s9,800044b0 <sub_1_stack_p+0x275c>
800044a4:	4158d193          	srai	gp,a7,0x15
800044a8:	c66de993          	ori	s3,s11,-922
800044ac:	e4ccbc97          	auipc	s9,0xe4ccb
800044b0:	01950263          	beq	a0,s9,800044b4 <sub_1_stack_p+0x2760>
800044b4:	01c45713          	srli	a4,s0,0x1c
800044b8:	0000100f          	fence.i
800044bc:	0140b7b3          	sltu	a5,ra,s4
800044c0:	e5a8cb93          	xori	s7,a7,-422
800044c4:	01537533          	and	a0,t1,s5
800044c8:	0141adb3          	slt	s11,gp,s4
800044cc:	01431733          	sll	a4,t1,s4
800044d0:	01537533          	and	a0,t1,s5
800044d4:	bde33713          	sltiu	a4,t1,-1058
800044d8:	c66de993          	ori	s3,s11,-922
800044dc:	bde33713          	sltiu	a4,t1,-1058
800044e0:	0072c133          	xor	sp,t0,t2
800044e4:	03950a63          	beq	a0,s9,80004518 <sub_1_stack_p+0x27c4>
800044e8:	dd88a013          	slti	zero,a7,-552
800044ec:	00000013          	nop
800044f0:	0ff0000f          	fence
800044f4:	01c45713          	srli	a4,s0,0x1c
800044f8:	01808433          	add	s0,ra,s8
800044fc:	0000100f          	fence.i
80004500:	4158d193          	srai	gp,a7,0x15
80004504:	01537533          	and	a0,t1,s5
80004508:	01c45713          	srli	a4,s0,0x1c
8000450c:	0141adb3          	slt	s11,gp,s4
80004510:	e5e3fb93          	andi	s7,t2,-418
80004514:	01537533          	and	a0,t1,s5
80004518:	03950663          	beq	a0,s9,80004544 <sub_1_stack_p+0x27f0>
8000451c:	e5a8cb93          	xori	s7,a7,-422
80004520:	0ff0000f          	fence
80004524:	4022ddb3          	sra	s11,t0,sp
80004528:	036fd063          	bge	t6,s6,80004548 <sub_1_stack_p+0x27f4>
8000452c:	0000100f          	fence.i
80004530:	a08c68b7          	lui	a7,0xa08c6
80004534:	01d09a63          	bne	ra,t4,80004548 <sub_1_stack_p+0x27f4>
80004538:	01431733          	sll	a4,t1,s4
8000453c:	03950a63          	beq	a0,s9,80004570 <sub_1_stack_p+0x281c>
80004540:	a08c68b7          	lui	a7,0xa08c6
80004544:	019fe0b3          	or	ra,t6,s9
80004548:	01431733          	sll	a4,t1,s4
8000454c:	bde33713          	sltiu	a4,t1,-1058
80004550:	41ae0833          	sub	a6,t3,s10
80004554:	024b7463          	bgeu	s6,tp,8000457c <sub_1_stack_p+0x2828>
80004558:	0140b7b3          	sltu	a5,ra,s4
8000455c:	0140b7b3          	sltu	a5,ra,s4
80004560:	c66de993          	ori	s3,s11,-922
80004564:	0072c133          	xor	sp,t0,t2
80004568:	0141adb3          	slt	s11,gp,s4
8000456c:	574a0113          	addi	sp,s4,1396
80004570:	e4ccbc97          	auipc	s9,0xe4ccb
80004574:	4158d193          	srai	gp,a7,0x15
80004578:	0141adb3          	slt	s11,gp,s4
8000457c:	05d09263          	bne	ra,t4,800045c0 <sub_1_stack_p+0x286c>
80004580:	4022ddb3          	sra	s11,t0,sp
80004584:	0107c863          	blt	a5,a6,80004594 <sub_1_stack_p+0x2840>
80004588:	e4ccbc97          	auipc	s9,0xe4ccb
8000458c:	01431733          	sll	a4,t1,s4
80004590:	e4ccbc97          	auipc	s9,0xe4ccb
80004594:	00000013          	nop
80004598:	0507c463          	blt	a5,a6,800045e0 <sub_1_stack_p+0x288c>
8000459c:	c66de993          	ori	s3,s11,-922
800045a0:	0072c133          	xor	sp,t0,t2
800045a4:	01537533          	and	a0,t1,s5
800045a8:	0ff0000f          	fence
800045ac:	e5a8cb93          	xori	s7,a7,-422
800045b0:	01808433          	add	s0,ra,s8
800045b4:	01431733          	sll	a4,t1,s4
800045b8:	00d09993          	slli	s3,ra,0xd
800045bc:	044b7663          	bgeu	s6,tp,80004608 <sub_1_stack_p+0x28b4>
800045c0:	03950e63          	beq	a0,s9,800045fc <sub_1_stack_p+0x28a8>
800045c4:	bde33713          	sltiu	a4,t1,-1058
800045c8:	01c45713          	srli	a4,s0,0x1c
800045cc:	01950c63          	beq	a0,s9,800045e4 <sub_1_stack_p+0x2890>
800045d0:	0140b7b3          	sltu	a5,ra,s4
800045d4:	0ff0000f          	fence
800045d8:	e4ccbc97          	auipc	s9,0xe4ccb
800045dc:	4158d193          	srai	gp,a7,0x15
800045e0:	01431733          	sll	a4,t1,s4
800045e4:	0141adb3          	slt	s11,gp,s4
800045e8:	574a0113          	addi	sp,s4,1396
800045ec:	4158d193          	srai	gp,a7,0x15
800045f0:	0141adb3          	slt	s11,gp,s4
800045f4:	01c45713          	srli	a4,s0,0x1c
800045f8:	01431733          	sll	a4,t1,s4
800045fc:	01431733          	sll	a4,t1,s4
80004600:	01808433          	add	s0,ra,s8
80004604:	0141adb3          	slt	s11,gp,s4
80004608:	0ff0000f          	fence
8000460c:	04d1e663          	bltu	gp,a3,80004658 <sub_1_stack_p+0x2904>
80004610:	00d09993          	slli	s3,ra,0xd
80004614:	41ae0833          	sub	a6,t3,s10
80004618:	a08c68b7          	lui	a7,0xa08c6
8000461c:	01808433          	add	s0,ra,s8
80004620:	036fd663          	bge	t6,s6,8000464c <sub_1_stack_p+0x28f8>
80004624:	0072c133          	xor	sp,t0,t2
80004628:	01431733          	sll	a4,t1,s4
8000462c:	00d09993          	slli	s3,ra,0xd
80004630:	0107c463          	blt	a5,a6,80004638 <sub_1_stack_p+0x28e4>
80004634:	01c45713          	srli	a4,s0,0x1c
80004638:	574a0113          	addi	sp,s4,1396
8000463c:	01431733          	sll	a4,t1,s4
80004640:	4022ddb3          	sra	s11,t0,sp
80004644:	03d09863          	bne	ra,t4,80004674 <sub_1_stack_p+0x2920>
80004648:	bde33713          	sltiu	a4,t1,-1058
8000464c:	02d1ea63          	bltu	gp,a3,80004680 <sub_1_stack_p+0x292c>
80004650:	e4ccbc97          	auipc	s9,0xe4ccb
80004654:	c66de993          	ori	s3,s11,-922
80004658:	00d09993          	slli	s3,ra,0xd
8000465c:	019fe0b3          	or	ra,t6,s9
80004660:	004b7263          	bgeu	s6,tp,80004664 <sub_1_stack_p+0x2910>
80004664:	0141adb3          	slt	s11,gp,s4
80004668:	0140b7b3          	sltu	a5,ra,s4
8000466c:	0141adb3          	slt	s11,gp,s4
80004670:	e4ccbc97          	auipc	s9,0xe4ccb
80004674:	01c45713          	srli	a4,s0,0x1c
80004678:	04d1e263          	bltu	gp,a3,800046bc <sub_1_stack_p+0x2968>
8000467c:	dd88a013          	slti	zero,a7,-552
80004680:	4022ddb3          	sra	s11,t0,sp
80004684:	019fe0b3          	or	ra,t6,s9
80004688:	41ae0833          	sub	a6,t3,s10
8000468c:	bde33713          	sltiu	a4,t1,-1058
80004690:	c66de993          	ori	s3,s11,-922
80004694:	01465bb3          	srl	s7,a2,s4
80004698:	dd88a013          	slti	zero,a7,-552
8000469c:	04d1e263          	bltu	gp,a3,800046e0 <sub_1_stack_p+0x298c>
800046a0:	0072c133          	xor	sp,t0,t2
800046a4:	0140b7b3          	sltu	a5,ra,s4
800046a8:	4022ddb3          	sra	s11,t0,sp
800046ac:	01465bb3          	srl	s7,a2,s4
800046b0:	01d09e63          	bne	ra,t4,800046cc <sub_1_stack_p+0x2978>
800046b4:	01465bb3          	srl	s7,a2,s4
800046b8:	4158d193          	srai	gp,a7,0x15
800046bc:	0141adb3          	slt	s11,gp,s4
800046c0:	01537533          	and	a0,t1,s5
800046c4:	0141adb3          	slt	s11,gp,s4
800046c8:	00d09993          	slli	s3,ra,0xd
800046cc:	574a0113          	addi	sp,s4,1396
800046d0:	4158d193          	srai	gp,a7,0x15
800046d4:	e4ccbc97          	auipc	s9,0xe4ccb
800046d8:	41ae0833          	sub	a6,t3,s10
800046dc:	41ae0833          	sub	a6,t3,s10
800046e0:	c66de993          	ori	s3,s11,-922
800046e4:	c66de993          	ori	s3,s11,-922
800046e8:	0000100f          	fence.i
800046ec:	01537533          	and	a0,t1,s5
800046f0:	019fe0b3          	or	ra,t6,s9
800046f4:	c66de993          	ori	s3,s11,-922
800046f8:	03950063          	beq	a0,s9,80004718 <sub_1_stack_p+0x29c4>
800046fc:	0000100f          	fence.i
80004700:	0140b7b3          	sltu	a5,ra,s4
80004704:	574a0113          	addi	sp,s4,1396
80004708:	019fe0b3          	or	ra,t6,s9
8000470c:	01950e63          	beq	a0,s9,80004728 <sub_1_stack_p+0x29d4>
80004710:	01950c63          	beq	a0,s9,80004728 <sub_1_stack_p+0x29d4>
80004714:	004b7a63          	bgeu	s6,tp,80004728 <sub_1_stack_p+0x29d4>
80004718:	0ff0000f          	fence
8000471c:	019fe0b3          	or	ra,t6,s9
80004720:	e4ccbc97          	auipc	s9,0xe4ccb
80004724:	004b7263          	bgeu	s6,tp,80004728 <sub_1_stack_p+0x29d4>
80004728:	0ff0000f          	fence
8000472c:	018084b3          	add	s1,ra,s8
80004730:	00d09a13          	slli	s4,ra,0xd
80004734:	4158d213          	srai	tp,a7,0x15
80004738:	0072c1b3          	xor	gp,t0,t2
8000473c:	0072c1b3          	xor	gp,t0,t2
80004740:	00432083          	lw	ra,4(t1)
80004744:	0140b833          	sltu	a6,ra,s4
80004748:	dd88a013          	slti	zero,a7,-552
8000474c:	00c30313          	addi	t1,t1,12
80004750:	e5a8cc13          	xori	s8,a7,-422
80004754:	0ff0000f          	fence
80004758:	00008813          	mv	a6,ra
8000475c:	00080867          	jalr	a6,a6

80004760 <sub_3>:
80004760:	e4ccbd17          	auipc	s10,0xe4ccb
80004764:	01d09663          	bne	ra,t4,80004770 <sub_3_stack_p>
80004768:	c66dea13          	ori	s4,s11,-922
8000476c:	01c45793          	srli	a5,s0,0x1c

80004770 <sub_3_stack_p>:
80004770:	fc030313          	addi	t1,t1,-64
80004774:	00132223          	sw	ra,4(t1)
80004778:	4158d213          	srai	tp,a7,0x15
8000477c:	a08c68b7          	lui	a7,0xa08c6
80004780:	c66de993          	ori	s3,s11,-922
80004784:	bde33713          	sltiu	a4,t1,-1058
80004788:	01465bb3          	srl	s7,a2,s4
8000478c:	4022ddb3          	sra	s11,t0,sp
80004790:	0000100f          	fence.i
80004794:	e4ccbc97          	auipc	s9,0xe4ccb
80004798:	036fde63          	bge	t6,s6,800047d4 <sub_3_stack_p+0x64>
8000479c:	03950463          	beq	a0,s9,800047c4 <sub_3_stack_p+0x54>
800047a0:	e4ccbc97          	auipc	s9,0xe4ccb
800047a4:	4158d193          	srai	gp,a7,0x15
800047a8:	4158d193          	srai	gp,a7,0x15
800047ac:	00d09993          	slli	s3,ra,0xd
800047b0:	0140b7b3          	sltu	a5,ra,s4
800047b4:	03950263          	beq	a0,s9,800047d8 <sub_3_stack_p+0x68>
800047b8:	0072c133          	xor	sp,t0,t2
800047bc:	a08c68b7          	lui	a7,0xa08c6
800047c0:	00000013          	nop
800047c4:	01808433          	add	s0,ra,s8
800047c8:	4022ddb3          	sra	s11,t0,sp
800047cc:	4022ddb3          	sra	s11,t0,sp
800047d0:	4022ddb3          	sra	s11,t0,sp
800047d4:	02d1e063          	bltu	gp,a3,800047f4 <sub_3_stack_p+0x84>
800047d8:	e5e3fb93          	andi	s7,t2,-418
800047dc:	e5e3fb93          	andi	s7,t2,-418
800047e0:	03d09863          	bne	ra,t4,80004810 <sub_3_stack_p+0xa0>
800047e4:	574a0113          	addi	sp,s4,1396
800047e8:	0000100f          	fence.i
800047ec:	019fe0b3          	or	ra,t6,s9
800047f0:	4022ddb3          	sra	s11,t0,sp
800047f4:	c66de993          	ori	s3,s11,-922
800047f8:	01465bb3          	srl	s7,a2,s4
800047fc:	a08c68b7          	lui	a7,0xa08c6
80004800:	c66de993          	ori	s3,s11,-922
80004804:	4158d193          	srai	gp,a7,0x15
80004808:	00d1e663          	bltu	gp,a3,80004814 <sub_3_stack_p+0xa4>
8000480c:	01431733          	sll	a4,t1,s4
80004810:	41ae0833          	sub	a6,t3,s10
80004814:	01c45713          	srli	a4,s0,0x1c
80004818:	bde33713          	sltiu	a4,t1,-1058
8000481c:	4022ddb3          	sra	s11,t0,sp
80004820:	a08c68b7          	lui	a7,0xa08c6
80004824:	004b7263          	bgeu	s6,tp,80004828 <sub_3_stack_p+0xb8>
80004828:	0ff0000f          	fence
8000482c:	bde33713          	sltiu	a4,t1,-1058
80004830:	01d09663          	bne	ra,t4,8000483c <sub_3_stack_p+0xcc>
80004834:	0ff0000f          	fence
80004838:	c66de993          	ori	s3,s11,-922
8000483c:	0072c133          	xor	sp,t0,t2
80004840:	0000100f          	fence.i
80004844:	044b7463          	bgeu	s6,tp,8000488c <sub_3_stack_p+0x11c>
80004848:	01c45713          	srli	a4,s0,0x1c
8000484c:	574a0113          	addi	sp,s4,1396
80004850:	056fd663          	bge	t6,s6,8000489c <sub_3_stack_p+0x12c>
80004854:	0141adb3          	slt	s11,gp,s4
80004858:	00d09993          	slli	s3,ra,0xd
8000485c:	01808433          	add	s0,ra,s8
80004860:	0507c063          	blt	a5,a6,800048a0 <sub_3_stack_p+0x130>
80004864:	e5e3fb93          	andi	s7,t2,-418
80004868:	4022ddb3          	sra	s11,t0,sp
8000486c:	c66de993          	ori	s3,s11,-922
80004870:	0141adb3          	slt	s11,gp,s4
80004874:	0000100f          	fence.i
80004878:	01950463          	beq	a0,s9,80004880 <sub_3_stack_p+0x110>
8000487c:	01c45713          	srli	a4,s0,0x1c
80004880:	019fe0b3          	or	ra,t6,s9
80004884:	a08c68b7          	lui	a7,0xa08c6
80004888:	41ae0833          	sub	a6,t3,s10
8000488c:	01465bb3          	srl	s7,a2,s4
80004890:	019fe0b3          	or	ra,t6,s9
80004894:	0107c263          	blt	a5,a6,80004898 <sub_3_stack_p+0x128>
80004898:	02d1e263          	bltu	gp,a3,800048bc <sub_3_stack_p+0x14c>
8000489c:	e5e3fb93          	andi	s7,t2,-418
800048a0:	0107c863          	blt	a5,a6,800048b0 <sub_3_stack_p+0x140>
800048a4:	00d1ee63          	bltu	gp,a3,800048c0 <sub_3_stack_p+0x150>
800048a8:	01c45713          	srli	a4,s0,0x1c
800048ac:	0307ca63          	blt	a5,a6,800048e0 <sub_3_stack_p+0x170>
800048b0:	01465bb3          	srl	s7,a2,s4
800048b4:	024b7c63          	bgeu	s6,tp,800048ec <sub_3_stack_p+0x17c>
800048b8:	41ae0833          	sub	a6,t3,s10
800048bc:	bde33713          	sltiu	a4,t1,-1058
800048c0:	a08c68b7          	lui	a7,0xa08c6
800048c4:	01537533          	and	a0,t1,s5
800048c8:	019fe0b3          	or	ra,t6,s9
800048cc:	bde33713          	sltiu	a4,t1,-1058
800048d0:	03d09863          	bne	ra,t4,80004900 <sub_3_stack_p+0x190>
800048d4:	01431733          	sll	a4,t1,s4
800048d8:	e4ccbc97          	auipc	s9,0xe4ccb
800048dc:	024b7a63          	bgeu	s6,tp,80004910 <sub_3_stack_p+0x1a0>
800048e0:	dd88a013          	slti	zero,a7,-552
800048e4:	01537533          	and	a0,t1,s5
800048e8:	4022ddb3          	sra	s11,t0,sp
800048ec:	00d09993          	slli	s3,ra,0xd
800048f0:	0141adb3          	slt	s11,gp,s4
800048f4:	044b7063          	bgeu	s6,tp,80004934 <sub_3_stack_p+0x1c4>
800048f8:	01c45713          	srli	a4,s0,0x1c
800048fc:	01d09863          	bne	ra,t4,8000490c <sub_3_stack_p+0x19c>
80004900:	019fe0b3          	or	ra,t6,s9
80004904:	0072c133          	xor	sp,t0,t2
80004908:	41ae0833          	sub	a6,t3,s10
8000490c:	01537533          	and	a0,t1,s5
80004910:	00d09993          	slli	s3,ra,0xd
80004914:	01c45713          	srli	a4,s0,0x1c
80004918:	41ae0833          	sub	a6,t3,s10
8000491c:	0141adb3          	slt	s11,gp,s4
80004920:	0072c133          	xor	sp,t0,t2
80004924:	c66de993          	ori	s3,s11,-922
80004928:	01950e63          	beq	a0,s9,80004944 <sub_3_stack_p+0x1d4>
8000492c:	0507c063          	blt	a5,a6,8000496c <sub_3_stack_p+0x1fc>
80004930:	0141adb3          	slt	s11,gp,s4
80004934:	a08c68b7          	lui	a7,0xa08c6
80004938:	41ae0833          	sub	a6,t3,s10
8000493c:	01808433          	add	s0,ra,s8
80004940:	574a0113          	addi	sp,s4,1396
80004944:	574a0113          	addi	sp,s4,1396
80004948:	00d09993          	slli	s3,ra,0xd
8000494c:	01465bb3          	srl	s7,a2,s4
80004950:	05d09863          	bne	ra,t4,800049a0 <sub_3_stack_p+0x230>
80004954:	01465bb3          	srl	s7,a2,s4
80004958:	01465bb3          	srl	s7,a2,s4
8000495c:	a08c68b7          	lui	a7,0xa08c6
80004960:	e5a8cb93          	xori	s7,a7,-422
80004964:	0307c463          	blt	a5,a6,8000498c <sub_3_stack_p+0x21c>
80004968:	e5e3fb93          	andi	s7,t2,-418
8000496c:	00d1ea63          	bltu	gp,a3,80004980 <sub_3_stack_p+0x210>
80004970:	0072c133          	xor	sp,t0,t2
80004974:	a08c68b7          	lui	a7,0xa08c6
80004978:	dd88a013          	slti	zero,a7,-552
8000497c:	05950463          	beq	a0,s9,800049c4 <sub_3_stack_p+0x254>
80004980:	41ae0833          	sub	a6,t3,s10
80004984:	01537533          	and	a0,t1,s5
80004988:	0000100f          	fence.i
8000498c:	01c45713          	srli	a4,s0,0x1c
80004990:	01d09a63          	bne	ra,t4,800049a4 <sub_3_stack_p+0x234>
80004994:	e5e3fb93          	andi	s7,t2,-418
80004998:	01808433          	add	s0,ra,s8
8000499c:	01c45713          	srli	a4,s0,0x1c
800049a0:	4158d193          	srai	gp,a7,0x15
800049a4:	41ae0833          	sub	a6,t3,s10
800049a8:	01537533          	and	a0,t1,s5
800049ac:	01d09e63          	bne	ra,t4,800049c8 <sub_3_stack_p+0x258>
800049b0:	05d09063          	bne	ra,t4,800049f0 <sub_3_stack_p+0x280>
800049b4:	01465bb3          	srl	s7,a2,s4
800049b8:	bde33713          	sltiu	a4,t1,-1058
800049bc:	00000013          	nop
800049c0:	044b7063          	bgeu	s6,tp,80004a00 <sub_3_stack_p+0x290>
800049c4:	02d1e463          	bltu	gp,a3,800049ec <sub_3_stack_p+0x27c>
800049c8:	00d1e263          	bltu	gp,a3,800049cc <sub_3_stack_p+0x25c>
800049cc:	01c45713          	srli	a4,s0,0x1c
800049d0:	41ae0833          	sub	a6,t3,s10
800049d4:	4158d193          	srai	gp,a7,0x15
800049d8:	a08c68b7          	lui	a7,0xa08c6
800049dc:	00d09993          	slli	s3,ra,0xd
800049e0:	00000013          	nop
800049e4:	01950463          	beq	a0,s9,800049ec <sub_3_stack_p+0x27c>
800049e8:	4158d193          	srai	gp,a7,0x15
800049ec:	01808433          	add	s0,ra,s8
800049f0:	01808433          	add	s0,ra,s8
800049f4:	0072c133          	xor	sp,t0,t2
800049f8:	01c45713          	srli	a4,s0,0x1c
800049fc:	4022ddb3          	sra	s11,t0,sp
80004a00:	024b7263          	bgeu	s6,tp,80004a24 <sub_3_stack_p+0x2b4>
80004a04:	0ff0000f          	fence
80004a08:	4158d193          	srai	gp,a7,0x15
80004a0c:	01537533          	and	a0,t1,s5
80004a10:	036fdc63          	bge	t6,s6,80004a48 <sub_3_stack_p+0x2d8>
80004a14:	4022ddb3          	sra	s11,t0,sp
80004a18:	e4ccbc97          	auipc	s9,0xe4ccb
80004a1c:	4158d193          	srai	gp,a7,0x15
80004a20:	01431733          	sll	a4,t1,s4
80004a24:	01808433          	add	s0,ra,s8
80004a28:	0107ce63          	blt	a5,a6,80004a44 <sub_3_stack_p+0x2d4>
80004a2c:	41ae0833          	sub	a6,t3,s10
80004a30:	bde33713          	sltiu	a4,t1,-1058
80004a34:	a08c68b7          	lui	a7,0xa08c6
80004a38:	036fd063          	bge	t6,s6,80004a58 <sub_3_stack_p+0x2e8>
80004a3c:	c66de993          	ori	s3,s11,-922
80004a40:	01c45713          	srli	a4,s0,0x1c
80004a44:	00000013          	nop
80004a48:	0107ca63          	blt	a5,a6,80004a5c <sub_3_stack_p+0x2ec>
80004a4c:	02d1ea63          	bltu	gp,a3,80004a80 <sub_3_stack_p+0x310>
80004a50:	03d09a63          	bne	ra,t4,80004a84 <sub_3_stack_p+0x314>
80004a54:	00000013          	nop
80004a58:	00d1e863          	bltu	gp,a3,80004a68 <sub_3_stack_p+0x2f8>
80004a5c:	dd88a013          	slti	zero,a7,-552
80004a60:	01465bb3          	srl	s7,a2,s4
80004a64:	01537533          	and	a0,t1,s5
80004a68:	0140b7b3          	sltu	a5,ra,s4
80004a6c:	01465bb3          	srl	s7,a2,s4
80004a70:	03d09863          	bne	ra,t4,80004aa0 <sub_3_stack_p+0x330>
80004a74:	01808433          	add	s0,ra,s8
80004a78:	e5a8cb93          	xori	s7,a7,-422
80004a7c:	dd88a013          	slti	zero,a7,-552
80004a80:	e5e3fb93          	andi	s7,t2,-418
80004a84:	0ff0000f          	fence
80004a88:	004b7a63          	bgeu	s6,tp,80004a9c <sub_3_stack_p+0x32c>
80004a8c:	0140b7b3          	sltu	a5,ra,s4
80004a90:	4158d193          	srai	gp,a7,0x15
80004a94:	0507c863          	blt	a5,a6,80004ae4 <sub_3_stack_p+0x374>
80004a98:	019fe0b3          	or	ra,t6,s9
80004a9c:	4022ddb3          	sra	s11,t0,sp
80004aa0:	00000013          	nop
80004aa4:	00000013          	nop
80004aa8:	00000013          	nop
80004aac:	4158d193          	srai	gp,a7,0x15
80004ab0:	0000100f          	fence.i
80004ab4:	c66de993          	ori	s3,s11,-922
80004ab8:	41ae0833          	sub	a6,t3,s10
80004abc:	00000013          	nop
80004ac0:	0072c133          	xor	sp,t0,t2
80004ac4:	0507c463          	blt	a5,a6,80004b0c <sub_3_stack_p+0x39c>
80004ac8:	c66de993          	ori	s3,s11,-922
80004acc:	bde33713          	sltiu	a4,t1,-1058
80004ad0:	e5e3fb93          	andi	s7,t2,-418
80004ad4:	03950463          	beq	a0,s9,80004afc <sub_3_stack_p+0x38c>
80004ad8:	0000100f          	fence.i
80004adc:	01537533          	and	a0,t1,s5
80004ae0:	00d1e663          	bltu	gp,a3,80004aec <sub_3_stack_p+0x37c>
80004ae4:	e5a8cb93          	xori	s7,a7,-422
80004ae8:	01808433          	add	s0,ra,s8
80004aec:	004b7263          	bgeu	s6,tp,80004af0 <sub_3_stack_p+0x380>
80004af0:	01808433          	add	s0,ra,s8
80004af4:	01465bb3          	srl	s7,a2,s4
80004af8:	004b7863          	bgeu	s6,tp,80004b08 <sub_3_stack_p+0x398>
80004afc:	01537533          	and	a0,t1,s5
80004b00:	e5e3fb93          	andi	s7,t2,-418
80004b04:	bde33713          	sltiu	a4,t1,-1058
80004b08:	01c45713          	srli	a4,s0,0x1c
80004b0c:	c66de993          	ori	s3,s11,-922
80004b10:	e4ccbc97          	auipc	s9,0xe4ccb
80004b14:	c66de993          	ori	s3,s11,-922
80004b18:	0141adb3          	slt	s11,gp,s4
80004b1c:	01431733          	sll	a4,t1,s4
80004b20:	01c45713          	srli	a4,s0,0x1c
80004b24:	0140b7b3          	sltu	a5,ra,s4
80004b28:	c66de993          	ori	s3,s11,-922
80004b2c:	e4ccbc97          	auipc	s9,0xe4ccb
80004b30:	0141adb3          	slt	s11,gp,s4
80004b34:	bde33713          	sltiu	a4,t1,-1058
80004b38:	01808433          	add	s0,ra,s8
80004b3c:	00000013          	nop
80004b40:	e5a8cb93          	xori	s7,a7,-422
80004b44:	01c45713          	srli	a4,s0,0x1c
80004b48:	e5e3fb93          	andi	s7,t2,-418
80004b4c:	01808433          	add	s0,ra,s8
80004b50:	00d1e663          	bltu	gp,a3,80004b5c <sub_3_stack_p+0x3ec>
80004b54:	01537533          	and	a0,t1,s5
80004b58:	e5e3fb93          	andi	s7,t2,-418
80004b5c:	03d09e63          	bne	ra,t4,80004b98 <sub_3_stack_p+0x428>
80004b60:	e4ccbc97          	auipc	s9,0xe4ccb
80004b64:	05d09463          	bne	ra,t4,80004bac <sub_3_stack_p+0x43c>
80004b68:	a08c68b7          	lui	a7,0xa08c6
80004b6c:	c66de993          	ori	s3,s11,-922
80004b70:	4022ddb3          	sra	s11,t0,sp
80004b74:	01537533          	and	a0,t1,s5
80004b78:	01950e63          	beq	a0,s9,80004b94 <sub_3_stack_p+0x424>
80004b7c:	dd88a013          	slti	zero,a7,-552
80004b80:	4022ddb3          	sra	s11,t0,sp
80004b84:	e5a8cb93          	xori	s7,a7,-422
80004b88:	0141adb3          	slt	s11,gp,s4
80004b8c:	05950063          	beq	a0,s9,80004bcc <sub_3_stack_p+0x45c>
80004b90:	00d09993          	slli	s3,ra,0xd
80004b94:	024b7263          	bgeu	s6,tp,80004bb8 <sub_3_stack_p+0x448>
80004b98:	c66de993          	ori	s3,s11,-922
80004b9c:	dd88a013          	slti	zero,a7,-552
80004ba0:	41ae0833          	sub	a6,t3,s10
80004ba4:	bde33713          	sltiu	a4,t1,-1058
80004ba8:	574a0113          	addi	sp,s4,1396
80004bac:	0307c863          	blt	a5,a6,80004bdc <sub_3_stack_p+0x46c>
80004bb0:	01537533          	and	a0,t1,s5
80004bb4:	0507c663          	blt	a5,a6,80004c00 <sub_3_stack_p+0x490>
80004bb8:	e4ccbc97          	auipc	s9,0xe4ccb
80004bbc:	bde33713          	sltiu	a4,t1,-1058
80004bc0:	00d09993          	slli	s3,ra,0xd
80004bc4:	01537533          	and	a0,t1,s5
80004bc8:	e5e3fb93          	andi	s7,t2,-418
80004bcc:	01431733          	sll	a4,t1,s4
80004bd0:	4022ddb3          	sra	s11,t0,sp
80004bd4:	a08c68b7          	lui	a7,0xa08c6
80004bd8:	0141adb3          	slt	s11,gp,s4
80004bdc:	01465bb3          	srl	s7,a2,s4
80004be0:	00000013          	nop
80004be4:	41ae0833          	sub	a6,t3,s10
80004be8:	01431733          	sll	a4,t1,s4
80004bec:	019fe0b3          	or	ra,t6,s9
80004bf0:	00d09993          	slli	s3,ra,0xd
80004bf4:	574a0113          	addi	sp,s4,1396
80004bf8:	41ae0833          	sub	a6,t3,s10
80004bfc:	dd88a013          	slti	zero,a7,-552
80004c00:	4022ddb3          	sra	s11,t0,sp
80004c04:	574a0113          	addi	sp,s4,1396
80004c08:	41ae0833          	sub	a6,t3,s10
80004c0c:	00d09993          	slli	s3,ra,0xd
80004c10:	e5a8cb93          	xori	s7,a7,-422
80004c14:	016fde63          	bge	t6,s6,80004c30 <sub_3_stack_p+0x4c0>
80004c18:	01465bb3          	srl	s7,a2,s4
80004c1c:	01c45713          	srli	a4,s0,0x1c
80004c20:	0140b7b3          	sltu	a5,ra,s4
80004c24:	4158d193          	srai	gp,a7,0x15
80004c28:	01808433          	add	s0,ra,s8
80004c2c:	4022ddb3          	sra	s11,t0,sp
80004c30:	01808433          	add	s0,ra,s8
80004c34:	0107c263          	blt	a5,a6,80004c38 <sub_3_stack_p+0x4c8>
80004c38:	019fe0b3          	or	ra,t6,s9
80004c3c:	05d09863          	bne	ra,t4,80004c8c <sub_3_stack_p+0x51c>
80004c40:	016fd863          	bge	t6,s6,80004c50 <sub_3_stack_p+0x4e0>
80004c44:	574a0113          	addi	sp,s4,1396
80004c48:	01950e63          	beq	a0,s9,80004c64 <sub_3_stack_p+0x4f4>
80004c4c:	056fd663          	bge	t6,s6,80004c98 <sub_3_stack_p+0x528>
80004c50:	e5e3fb93          	andi	s7,t2,-418
80004c54:	41ae0833          	sub	a6,t3,s10
80004c58:	4158d193          	srai	gp,a7,0x15
80004c5c:	a08c68b7          	lui	a7,0xa08c6
80004c60:	01d09663          	bne	ra,t4,80004c6c <sub_3_stack_p+0x4fc>
80004c64:	01465bb3          	srl	s7,a2,s4
80004c68:	01c45713          	srli	a4,s0,0x1c
80004c6c:	056fd063          	bge	t6,s6,80004cac <sub_3_stack_p+0x53c>
80004c70:	41ae0833          	sub	a6,t3,s10
80004c74:	c66de993          	ori	s3,s11,-922
80004c78:	0000100f          	fence.i
80004c7c:	0ff0000f          	fence
80004c80:	01c45713          	srli	a4,s0,0x1c
80004c84:	01950463          	beq	a0,s9,80004c8c <sub_3_stack_p+0x51c>
80004c88:	00d1ea63          	bltu	gp,a3,80004c9c <sub_3_stack_p+0x52c>
80004c8c:	e4ccbc97          	auipc	s9,0xe4ccb
80004c90:	bde33713          	sltiu	a4,t1,-1058
80004c94:	036fd863          	bge	t6,s6,80004cc4 <sub_3_stack_p+0x554>
80004c98:	e5a8cb93          	xori	s7,a7,-422
80004c9c:	004b7e63          	bgeu	s6,tp,80004cb8 <sub_3_stack_p+0x548>
80004ca0:	004b7263          	bgeu	s6,tp,80004ca4 <sub_3_stack_p+0x534>
80004ca4:	01808433          	add	s0,ra,s8
80004ca8:	4158d193          	srai	gp,a7,0x15
80004cac:	bde33713          	sltiu	a4,t1,-1058
80004cb0:	dd88a013          	slti	zero,a7,-552
80004cb4:	01465bb3          	srl	s7,a2,s4
80004cb8:	dd88a013          	slti	zero,a7,-552
80004cbc:	01808433          	add	s0,ra,s8
80004cc0:	01431733          	sll	a4,t1,s4
80004cc4:	e5a8cb93          	xori	s7,a7,-422
80004cc8:	0ff0000f          	fence
80004ccc:	0141adb3          	slt	s11,gp,s4
80004cd0:	dd88a013          	slti	zero,a7,-552
80004cd4:	01808433          	add	s0,ra,s8
80004cd8:	e5e3fb93          	andi	s7,t2,-418
80004cdc:	4022ddb3          	sra	s11,t0,sp
80004ce0:	c66de993          	ori	s3,s11,-922
80004ce4:	0140b7b3          	sltu	a5,ra,s4
80004ce8:	01537533          	and	a0,t1,s5
80004cec:	41ae0833          	sub	a6,t3,s10
80004cf0:	03d09463          	bne	ra,t4,80004d18 <sub_3_stack_p+0x5a8>
80004cf4:	01465bb3          	srl	s7,a2,s4
80004cf8:	41ae0833          	sub	a6,t3,s10
80004cfc:	03d09a63          	bne	ra,t4,80004d30 <sub_3_stack_p+0x5c0>
80004d00:	bde33713          	sltiu	a4,t1,-1058
80004d04:	0ff0000f          	fence
80004d08:	dd88a013          	slti	zero,a7,-552
80004d0c:	4158d193          	srai	gp,a7,0x15
80004d10:	004b7663          	bgeu	s6,tp,80004d1c <sub_3_stack_p+0x5ac>
80004d14:	03950863          	beq	a0,s9,80004d44 <sub_3_stack_p+0x5d4>
80004d18:	bde33713          	sltiu	a4,t1,-1058
80004d1c:	0000100f          	fence.i
80004d20:	c66de993          	ori	s3,s11,-922
80004d24:	41ae0833          	sub	a6,t3,s10
80004d28:	03d09263          	bne	ra,t4,80004d4c <sub_3_stack_p+0x5dc>
80004d2c:	056fd063          	bge	t6,s6,80004d6c <sub_3_stack_p+0x5fc>
80004d30:	03950a63          	beq	a0,s9,80004d64 <sub_3_stack_p+0x5f4>
80004d34:	0072c133          	xor	sp,t0,t2
80004d38:	4158d193          	srai	gp,a7,0x15
80004d3c:	00d09993          	slli	s3,ra,0xd
80004d40:	0141adb3          	slt	s11,gp,s4
80004d44:	03d09263          	bne	ra,t4,80004d68 <sub_3_stack_p+0x5f8>
80004d48:	00000013          	nop
80004d4c:	574a0113          	addi	sp,s4,1396
80004d50:	00000013          	nop
80004d54:	01808433          	add	s0,ra,s8
80004d58:	0507c063          	blt	a5,a6,80004d98 <sub_3_stack_p+0x628>
80004d5c:	c66de993          	ori	s3,s11,-922
80004d60:	41ae0833          	sub	a6,t3,s10
80004d64:	e4ccbc97          	auipc	s9,0xe4ccb
80004d68:	00d09993          	slli	s3,ra,0xd
80004d6c:	0072c133          	xor	sp,t0,t2
80004d70:	019fe0b3          	or	ra,t6,s9
80004d74:	a08c68b7          	lui	a7,0xa08c6
80004d78:	0ff0000f          	fence
80004d7c:	0072c133          	xor	sp,t0,t2
80004d80:	02d1e063          	bltu	gp,a3,80004da0 <sub_3_stack_p+0x630>
80004d84:	a08c68b7          	lui	a7,0xa08c6
80004d88:	4022ddb3          	sra	s11,t0,sp
80004d8c:	01537533          	and	a0,t1,s5
80004d90:	01808433          	add	s0,ra,s8
80004d94:	00000013          	nop
80004d98:	01537533          	and	a0,t1,s5
80004d9c:	036fdc63          	bge	t6,s6,80004dd4 <sub_3_stack_p+0x664>
80004da0:	e5e3fb93          	andi	s7,t2,-418
80004da4:	00000013          	nop
80004da8:	0107ce63          	blt	a5,a6,80004dc4 <sub_3_stack_p+0x654>
80004dac:	01537533          	and	a0,t1,s5
80004db0:	0072c133          	xor	sp,t0,t2
80004db4:	01c45713          	srli	a4,s0,0x1c
80004db8:	41ae0833          	sub	a6,t3,s10
80004dbc:	01c45713          	srli	a4,s0,0x1c
80004dc0:	e5e3fb93          	andi	s7,t2,-418
80004dc4:	01808433          	add	s0,ra,s8
80004dc8:	0ff0000f          	fence
80004dcc:	01465bb3          	srl	s7,a2,s4
80004dd0:	4158d193          	srai	gp,a7,0x15
80004dd4:	00000013          	nop
80004dd8:	01537533          	and	a0,t1,s5
80004ddc:	0ff0000f          	fence
80004de0:	0140b7b3          	sltu	a5,ra,s4
80004de4:	0ff0000f          	fence
80004de8:	03d09e63          	bne	ra,t4,80004e24 <sub_3_stack_p+0x6b4>
80004dec:	e4ccbc97          	auipc	s9,0xe4ccb
80004df0:	0141adb3          	slt	s11,gp,s4
80004df4:	4158d193          	srai	gp,a7,0x15
80004df8:	bde33713          	sltiu	a4,t1,-1058
80004dfc:	0140b7b3          	sltu	a5,ra,s4
80004e00:	01465bb3          	srl	s7,a2,s4
80004e04:	00d09993          	slli	s3,ra,0xd
80004e08:	00000013          	nop
80004e0c:	e5e3fb93          	andi	s7,t2,-418
80004e10:	0ff0000f          	fence
80004e14:	0ff0000f          	fence
80004e18:	019fe0b3          	or	ra,t6,s9
80004e1c:	e5a8cb93          	xori	s7,a7,-422
80004e20:	4022ddb3          	sra	s11,t0,sp
80004e24:	024b7463          	bgeu	s6,tp,80004e4c <sub_3_stack_p+0x6dc>
80004e28:	c66de993          	ori	s3,s11,-922
80004e2c:	01537533          	and	a0,t1,s5
80004e30:	00000013          	nop
80004e34:	044b7463          	bgeu	s6,tp,80004e7c <sub_3_stack_p+0x70c>
80004e38:	c66de993          	ori	s3,s11,-922
80004e3c:	01d09863          	bne	ra,t4,80004e4c <sub_3_stack_p+0x6dc>
80004e40:	e5a8cb93          	xori	s7,a7,-422
80004e44:	05d09463          	bne	ra,t4,80004e8c <sub_3_stack_p+0x71c>
80004e48:	e4ccbc97          	auipc	s9,0xe4ccb
80004e4c:	019fe0b3          	or	ra,t6,s9
80004e50:	016fda63          	bge	t6,s6,80004e64 <sub_3_stack_p+0x6f4>
80004e54:	056fd463          	bge	t6,s6,80004e9c <sub_3_stack_p+0x72c>
80004e58:	01465bb3          	srl	s7,a2,s4
80004e5c:	a08c68b7          	lui	a7,0xa08c6
80004e60:	0072c133          	xor	sp,t0,t2
80004e64:	dd88a013          	slti	zero,a7,-552
80004e68:	00d09993          	slli	s3,ra,0xd
80004e6c:	0ff0000f          	fence
80004e70:	0141adb3          	slt	s11,gp,s4
80004e74:	bde33713          	sltiu	a4,t1,-1058
80004e78:	41ae0833          	sub	a6,t3,s10
80004e7c:	4022ddb3          	sra	s11,t0,sp
80004e80:	4022ddb3          	sra	s11,t0,sp
80004e84:	e5e3fb93          	andi	s7,t2,-418
80004e88:	bde33713          	sltiu	a4,t1,-1058
80004e8c:	04d1e063          	bltu	gp,a3,80004ecc <sub_3_stack_p+0x75c>
80004e90:	a08c68b7          	lui	a7,0xa08c6
80004e94:	0000100f          	fence.i
80004e98:	e5a8cb93          	xori	s7,a7,-422
80004e9c:	01431733          	sll	a4,t1,s4
80004ea0:	004b7e63          	bgeu	s6,tp,80004ebc <sub_3_stack_p+0x74c>
80004ea4:	01808433          	add	s0,ra,s8
80004ea8:	01c45713          	srli	a4,s0,0x1c
80004eac:	0307cc63          	blt	a5,a6,80004ee4 <sub_3_stack_p+0x774>
80004eb0:	0ff0000f          	fence
80004eb4:	0072c133          	xor	sp,t0,t2
80004eb8:	02d1e863          	bltu	gp,a3,80004ee8 <sub_3_stack_p+0x778>
80004ebc:	01950663          	beq	a0,s9,80004ec8 <sub_3_stack_p+0x758>
80004ec0:	bde33713          	sltiu	a4,t1,-1058
80004ec4:	4158d193          	srai	gp,a7,0x15
80004ec8:	01431733          	sll	a4,t1,s4
80004ecc:	41ae0833          	sub	a6,t3,s10
80004ed0:	0307c863          	blt	a5,a6,80004f00 <sub_3_stack_p+0x790>
80004ed4:	0000100f          	fence.i
80004ed8:	00d1e663          	bltu	gp,a3,80004ee4 <sub_3_stack_p+0x774>
80004edc:	0000100f          	fence.i
80004ee0:	a08c68b7          	lui	a7,0xa08c6
80004ee4:	01465bb3          	srl	s7,a2,s4
80004ee8:	00000013          	nop
80004eec:	0ff0000f          	fence
80004ef0:	04d1e663          	bltu	gp,a3,80004f3c <sub_3_stack_p+0x7cc>
80004ef4:	4158d193          	srai	gp,a7,0x15
80004ef8:	00000013          	nop
80004efc:	004b7a63          	bgeu	s6,tp,80004f10 <sub_3_stack_p+0x7a0>
80004f00:	4158d193          	srai	gp,a7,0x15
80004f04:	01431733          	sll	a4,t1,s4
80004f08:	0140b7b3          	sltu	a5,ra,s4
80004f0c:	41ae0833          	sub	a6,t3,s10
80004f10:	01537533          	and	a0,t1,s5
80004f14:	dd88a013          	slti	zero,a7,-552
80004f18:	0141adb3          	slt	s11,gp,s4
80004f1c:	0141adb3          	slt	s11,gp,s4
80004f20:	03950e63          	beq	a0,s9,80004f5c <sub_3_stack_p+0x7ec>
80004f24:	0000100f          	fence.i
80004f28:	016fde63          	bge	t6,s6,80004f44 <sub_3_stack_p+0x7d4>
80004f2c:	00000013          	nop
80004f30:	019fe0b3          	or	ra,t6,s9
80004f34:	01950a63          	beq	a0,s9,80004f48 <sub_3_stack_p+0x7d8>
80004f38:	0140b7b3          	sltu	a5,ra,s4
80004f3c:	0107c263          	blt	a5,a6,80004f40 <sub_3_stack_p+0x7d0>
80004f40:	01c45713          	srli	a4,s0,0x1c
80004f44:	01431733          	sll	a4,t1,s4
80004f48:	01808433          	add	s0,ra,s8
80004f4c:	a08c68b7          	lui	a7,0xa08c6
80004f50:	dd88a013          	slti	zero,a7,-552
80004f54:	0000100f          	fence.i
80004f58:	41ae0833          	sub	a6,t3,s10
80004f5c:	00000013          	nop
80004f60:	574a0113          	addi	sp,s4,1396
80004f64:	01465bb3          	srl	s7,a2,s4
80004f68:	0000100f          	fence.i
80004f6c:	4158d193          	srai	gp,a7,0x15
80004f70:	05950463          	beq	a0,s9,80004fb8 <sub_3_stack_p+0x848>
80004f74:	e4ccbc97          	auipc	s9,0xe4ccb
80004f78:	019fe0b3          	or	ra,t6,s9
80004f7c:	01808433          	add	s0,ra,s8
80004f80:	02d1ea63          	bltu	gp,a3,80004fb4 <sub_3_stack_p+0x844>
80004f84:	01465bb3          	srl	s7,a2,s4
80004f88:	a08c68b7          	lui	a7,0xa08c6
80004f8c:	01808433          	add	s0,ra,s8
80004f90:	00d1e463          	bltu	gp,a3,80004f98 <sub_3_stack_p+0x828>
80004f94:	01537533          	and	a0,t1,s5
80004f98:	0307c463          	blt	a5,a6,80004fc0 <sub_3_stack_p+0x850>
80004f9c:	0000100f          	fence.i
80004fa0:	c66de993          	ori	s3,s11,-922
80004fa4:	01808433          	add	s0,ra,s8
80004fa8:	00000013          	nop
80004fac:	a08c68b7          	lui	a7,0xa08c6
80004fb0:	dd88a013          	slti	zero,a7,-552
80004fb4:	00000013          	nop
80004fb8:	016fd863          	bge	t6,s6,80004fc8 <sub_3_stack_p+0x858>
80004fbc:	a08c68b7          	lui	a7,0xa08c6
80004fc0:	01808433          	add	s0,ra,s8
80004fc4:	01537533          	and	a0,t1,s5
80004fc8:	00d1e863          	bltu	gp,a3,80004fd8 <sub_3_stack_p+0x868>
80004fcc:	4158d193          	srai	gp,a7,0x15
80004fd0:	024b7463          	bgeu	s6,tp,80004ff8 <sub_3_stack_p+0x888>
80004fd4:	016fde63          	bge	t6,s6,80004ff0 <sub_3_stack_p+0x880>
80004fd8:	00000013          	nop
80004fdc:	036fd263          	bge	t6,s6,80005000 <sub_3_stack_p+0x890>
80004fe0:	01808433          	add	s0,ra,s8
80004fe4:	e4ccbc97          	auipc	s9,0xe4ccb
80004fe8:	0140b7b3          	sltu	a5,ra,s4
80004fec:	01431733          	sll	a4,t1,s4
80004ff0:	01808433          	add	s0,ra,s8
80004ff4:	dd88a013          	slti	zero,a7,-552
80004ff8:	05d09063          	bne	ra,t4,80005038 <sub_3_stack_p+0x8c8>
80004ffc:	a08c68b7          	lui	a7,0xa08c6
80005000:	0141adb3          	slt	s11,gp,s4
80005004:	05d09063          	bne	ra,t4,80005044 <sub_3_stack_p+0x8d4>
80005008:	016fd263          	bge	t6,s6,8000500c <sub_3_stack_p+0x89c>
8000500c:	0000100f          	fence.i
80005010:	e4ccbc97          	auipc	s9,0xe4ccb
80005014:	0000100f          	fence.i
80005018:	a08c68b7          	lui	a7,0xa08c6
8000501c:	0140b7b3          	sltu	a5,ra,s4
80005020:	0141adb3          	slt	s11,gp,s4
80005024:	bde33713          	sltiu	a4,t1,-1058
80005028:	4022ddb3          	sra	s11,t0,sp
8000502c:	0141adb3          	slt	s11,gp,s4
80005030:	dd88a013          	slti	zero,a7,-552
80005034:	00000013          	nop
80005038:	02d1e063          	bltu	gp,a3,80005058 <sub_3_stack_p+0x8e8>
8000503c:	0000100f          	fence.i
80005040:	019fe0b3          	or	ra,t6,s9
80005044:	bde33713          	sltiu	a4,t1,-1058
80005048:	574a0113          	addi	sp,s4,1396
8000504c:	e5a8cb93          	xori	s7,a7,-422
80005050:	0ff0000f          	fence
80005054:	00d09993          	slli	s3,ra,0xd
80005058:	574a0113          	addi	sp,s4,1396
8000505c:	03d09a63          	bne	ra,t4,80005090 <sub_3_stack_p+0x920>
80005060:	c66de993          	ori	s3,s11,-922
80005064:	056fd863          	bge	t6,s6,800050b4 <sub_3_stack_p+0x944>
80005068:	bde33713          	sltiu	a4,t1,-1058
8000506c:	02d1e263          	bltu	gp,a3,80005090 <sub_3_stack_p+0x920>
80005070:	dd88a013          	slti	zero,a7,-552
80005074:	024b7863          	bgeu	s6,tp,800050a4 <sub_3_stack_p+0x934>
80005078:	00000013          	nop
8000507c:	574a0113          	addi	sp,s4,1396
80005080:	03d09263          	bne	ra,t4,800050a4 <sub_3_stack_p+0x934>
80005084:	01431733          	sll	a4,t1,s4
80005088:	03d09463          	bne	ra,t4,800050b0 <sub_3_stack_p+0x940>
8000508c:	01c45713          	srli	a4,s0,0x1c
80005090:	056fd063          	bge	t6,s6,800050d0 <sub_3_stack_p+0x960>
80005094:	019fe0b3          	or	ra,t6,s9
80005098:	bde33713          	sltiu	a4,t1,-1058
8000509c:	a08c68b7          	lui	a7,0xa08c6
800050a0:	0000100f          	fence.i
800050a4:	c66de993          	ori	s3,s11,-922
800050a8:	0141adb3          	slt	s11,gp,s4
800050ac:	c66de993          	ori	s3,s11,-922
800050b0:	bde33713          	sltiu	a4,t1,-1058
800050b4:	c66de993          	ori	s3,s11,-922
800050b8:	41ae0833          	sub	a6,t3,s10
800050bc:	0140b7b3          	sltu	a5,ra,s4
800050c0:	0141adb3          	slt	s11,gp,s4
800050c4:	0141adb3          	slt	s11,gp,s4
800050c8:	024b7c63          	bgeu	s6,tp,80005100 <sub_3_stack_p+0x990>
800050cc:	00d09993          	slli	s3,ra,0xd
800050d0:	4022ddb3          	sra	s11,t0,sp
800050d4:	019fe0b3          	or	ra,t6,s9
800050d8:	00000013          	nop
800050dc:	0000100f          	fence.i
800050e0:	00000013          	nop
800050e4:	0140b7b3          	sltu	a5,ra,s4
800050e8:	a08c68b7          	lui	a7,0xa08c6
800050ec:	01950463          	beq	a0,s9,800050f4 <sub_3_stack_p+0x984>
800050f0:	00000013          	nop
800050f4:	4022ddb3          	sra	s11,t0,sp
800050f8:	01d09863          	bne	ra,t4,80005108 <sub_3_stack_p+0x998>
800050fc:	02d1e263          	bltu	gp,a3,80005120 <sub_3_stack_p+0x9b0>
80005100:	01808433          	add	s0,ra,s8
80005104:	0141adb3          	slt	s11,gp,s4
80005108:	e5e3fb93          	andi	s7,t2,-418
8000510c:	bde33713          	sltiu	a4,t1,-1058
80005110:	02d1ea63          	bltu	gp,a3,80005144 <sub_3_stack_p+0x9d4>
80005114:	a08c68b7          	lui	a7,0xa08c6
80005118:	01c45713          	srli	a4,s0,0x1c
8000511c:	0072c133          	xor	sp,t0,t2
80005120:	e5a8cb93          	xori	s7,a7,-422
80005124:	019fe0b3          	or	ra,t6,s9
80005128:	01431733          	sll	a4,t1,s4
8000512c:	574a0113          	addi	sp,s4,1396
80005130:	00d1ea63          	bltu	gp,a3,80005144 <sub_3_stack_p+0x9d4>
80005134:	00d09993          	slli	s3,ra,0xd
80005138:	016fd863          	bge	t6,s6,80005148 <sub_3_stack_p+0x9d8>
8000513c:	574a0113          	addi	sp,s4,1396
80005140:	01431733          	sll	a4,t1,s4
80005144:	05d09663          	bne	ra,t4,80005190 <sub_3_stack_p+0xa20>
80005148:	00d09993          	slli	s3,ra,0xd
8000514c:	01950663          	beq	a0,s9,80005158 <sub_3_stack_p+0x9e8>
80005150:	e5a8cb93          	xori	s7,a7,-422
80005154:	0ff0000f          	fence
80005158:	41ae0833          	sub	a6,t3,s10
8000515c:	a08c68b7          	lui	a7,0xa08c6
80005160:	574a0113          	addi	sp,s4,1396
80005164:	574a0113          	addi	sp,s4,1396
80005168:	0141adb3          	slt	s11,gp,s4
8000516c:	01808433          	add	s0,ra,s8
80005170:	01808433          	add	s0,ra,s8
80005174:	01808433          	add	s0,ra,s8
80005178:	0ff0000f          	fence
8000517c:	036fd863          	bge	t6,s6,800051ac <sub_3_stack_p+0xa3c>
80005180:	03950a63          	beq	a0,s9,800051b4 <sub_3_stack_p+0xa44>
80005184:	01d09a63          	bne	ra,t4,80005198 <sub_3_stack_p+0xa28>
80005188:	01465bb3          	srl	s7,a2,s4
8000518c:	01950e63          	beq	a0,s9,800051a8 <sub_3_stack_p+0xa38>
80005190:	00d1e263          	bltu	gp,a3,80005194 <sub_3_stack_p+0xa24>
80005194:	574a0113          	addi	sp,s4,1396
80005198:	e4ccbc97          	auipc	s9,0xe4ccb
8000519c:	4022ddb3          	sra	s11,t0,sp
800051a0:	574a0113          	addi	sp,s4,1396
800051a4:	019fe0b3          	or	ra,t6,s9
800051a8:	a08c68b7          	lui	a7,0xa08c6
800051ac:	00d09993          	slli	s3,ra,0xd
800051b0:	4022ddb3          	sra	s11,t0,sp
800051b4:	574a0113          	addi	sp,s4,1396
800051b8:	016fd663          	bge	t6,s6,800051c4 <sub_3_stack_p+0xa54>
800051bc:	0140b7b3          	sltu	a5,ra,s4
800051c0:	574a0113          	addi	sp,s4,1396
800051c4:	01431733          	sll	a4,t1,s4
800051c8:	00d1e263          	bltu	gp,a3,800051cc <sub_3_stack_p+0xa5c>
800051cc:	4158d193          	srai	gp,a7,0x15
800051d0:	e5e3fb93          	andi	s7,t2,-418
800051d4:	01537533          	and	a0,t1,s5
800051d8:	044b7463          	bgeu	s6,tp,80005220 <sub_3_stack_p+0xab0>
800051dc:	03d09463          	bne	ra,t4,80005204 <sub_3_stack_p+0xa94>
800051e0:	0140b7b3          	sltu	a5,ra,s4
800051e4:	e4ccbc97          	auipc	s9,0xe4ccb
800051e8:	e5a8cb93          	xori	s7,a7,-422
800051ec:	41ae0833          	sub	a6,t3,s10
800051f0:	0141adb3          	slt	s11,gp,s4
800051f4:	a08c68b7          	lui	a7,0xa08c6
800051f8:	01808433          	add	s0,ra,s8
800051fc:	004b7e63          	bgeu	s6,tp,80005218 <sub_3_stack_p+0xaa8>
80005200:	05d09863          	bne	ra,t4,80005250 <sub_3_stack_p+0xae0>
80005204:	0307c063          	blt	a5,a6,80005224 <sub_3_stack_p+0xab4>
80005208:	4022ddb3          	sra	s11,t0,sp
8000520c:	4022ddb3          	sra	s11,t0,sp
80005210:	4158d193          	srai	gp,a7,0x15
80005214:	01c45713          	srli	a4,s0,0x1c
80005218:	dd88a013          	slti	zero,a7,-552
8000521c:	a08c68b7          	lui	a7,0xa08c6
80005220:	0140b7b3          	sltu	a5,ra,s4
80005224:	0000100f          	fence.i
80005228:	00d1ee63          	bltu	gp,a3,80005244 <sub_3_stack_p+0xad4>
8000522c:	01431733          	sll	a4,t1,s4
80005230:	0140b7b3          	sltu	a5,ra,s4
80005234:	0507c063          	blt	a5,a6,80005274 <sub_3_stack_p+0xb04>
80005238:	01808433          	add	s0,ra,s8
8000523c:	01808433          	add	s0,ra,s8
80005240:	03d09e63          	bne	ra,t4,8000527c <sub_3_stack_p+0xb0c>
80005244:	0072c133          	xor	sp,t0,t2
80005248:	04d1e063          	bltu	gp,a3,80005288 <sub_3_stack_p+0xb18>
8000524c:	41ae0833          	sub	a6,t3,s10
80005250:	0140b7b3          	sltu	a5,ra,s4
80005254:	04d1e463          	bltu	gp,a3,8000529c <sub_3_stack_p+0xb2c>
80005258:	056fd063          	bge	t6,s6,80005298 <sub_3_stack_p+0xb28>
8000525c:	01808433          	add	s0,ra,s8
80005260:	574a0113          	addi	sp,s4,1396
80005264:	03950263          	beq	a0,s9,80005288 <sub_3_stack_p+0xb18>
80005268:	01537533          	and	a0,t1,s5
8000526c:	00000013          	nop
80005270:	01465bb3          	srl	s7,a2,s4
80005274:	4158d193          	srai	gp,a7,0x15
80005278:	05d09863          	bne	ra,t4,800052c8 <sub_3_stack_p+0xb58>
8000527c:	0072c133          	xor	sp,t0,t2
80005280:	01431733          	sll	a4,t1,s4
80005284:	0072c133          	xor	sp,t0,t2
80005288:	01465bb3          	srl	s7,a2,s4
8000528c:	0140b7b3          	sltu	a5,ra,s4
80005290:	016fd263          	bge	t6,s6,80005294 <sub_3_stack_p+0xb24>
80005294:	01431733          	sll	a4,t1,s4
80005298:	4158d193          	srai	gp,a7,0x15
8000529c:	4158d193          	srai	gp,a7,0x15
800052a0:	0000100f          	fence.i
800052a4:	016fde63          	bge	t6,s6,800052c0 <sub_3_stack_p+0xb50>
800052a8:	03950a63          	beq	a0,s9,800052dc <sub_3_stack_p+0xb6c>
800052ac:	00000013          	nop
800052b0:	e4ccbc97          	auipc	s9,0xe4ccb
800052b4:	a08c68b7          	lui	a7,0xa08c6
800052b8:	0000100f          	fence.i
800052bc:	0140b7b3          	sltu	a5,ra,s4
800052c0:	0307c863          	blt	a5,a6,800052f0 <sub_3_stack_p+0xb80>
800052c4:	03d09063          	bne	ra,t4,800052e4 <sub_3_stack_p+0xb74>
800052c8:	0000100f          	fence.i
800052cc:	dd88a013          	slti	zero,a7,-552
800052d0:	574a0113          	addi	sp,s4,1396
800052d4:	e5a8cb93          	xori	s7,a7,-422
800052d8:	01c45713          	srli	a4,s0,0x1c
800052dc:	e4ccbc97          	auipc	s9,0xe4ccb
800052e0:	01465bb3          	srl	s7,a2,s4
800052e4:	04d1e463          	bltu	gp,a3,8000532c <sub_3_stack_p+0xbbc>
800052e8:	0000100f          	fence.i
800052ec:	bde33713          	sltiu	a4,t1,-1058
800052f0:	41ae0833          	sub	a6,t3,s10
800052f4:	a08c68b7          	lui	a7,0xa08c6
800052f8:	02d1ec63          	bltu	gp,a3,80005330 <sub_3_stack_p+0xbc0>
800052fc:	0141adb3          	slt	s11,gp,s4
80005300:	e5e3fb93          	andi	s7,t2,-418
80005304:	574a0113          	addi	sp,s4,1396
80005308:	a08c68b7          	lui	a7,0xa08c6
8000530c:	019fe0b3          	or	ra,t6,s9
80005310:	a08c68b7          	lui	a7,0xa08c6
80005314:	574a0113          	addi	sp,s4,1396
80005318:	0107ca63          	blt	a5,a6,8000532c <sub_3_stack_p+0xbbc>
8000531c:	0072c133          	xor	sp,t0,t2
80005320:	e5a8cb93          	xori	s7,a7,-422
80005324:	01465bb3          	srl	s7,a2,s4
80005328:	dd88a013          	slti	zero,a7,-552
8000532c:	00d09993          	slli	s3,ra,0xd
80005330:	02d1e463          	bltu	gp,a3,80005358 <sub_3_stack_p+0xbe8>
80005334:	e5a8cb93          	xori	s7,a7,-422
80005338:	00d09993          	slli	s3,ra,0xd
8000533c:	0140b7b3          	sltu	a5,ra,s4
80005340:	01950663          	beq	a0,s9,8000534c <sub_3_stack_p+0xbdc>
80005344:	e4ccbc97          	auipc	s9,0xe4ccb
80005348:	41ae0833          	sub	a6,t3,s10
8000534c:	0140b7b3          	sltu	a5,ra,s4
80005350:	4158d193          	srai	gp,a7,0x15
80005354:	4158d193          	srai	gp,a7,0x15
80005358:	019fe0b3          	or	ra,t6,s9
8000535c:	00d09993          	slli	s3,ra,0xd
80005360:	00d09993          	slli	s3,ra,0xd
80005364:	e4ccbc97          	auipc	s9,0xe4ccb
80005368:	0141adb3          	slt	s11,gp,s4
8000536c:	a08c68b7          	lui	a7,0xa08c6
80005370:	00d09993          	slli	s3,ra,0xd
80005374:	a08c68b7          	lui	a7,0xa08c6
80005378:	a08c68b7          	lui	a7,0xa08c6
8000537c:	574a0113          	addi	sp,s4,1396
80005380:	05950063          	beq	a0,s9,800053c0 <sub_3_stack_p+0xc50>
80005384:	044b7663          	bgeu	s6,tp,800053d0 <sub_3_stack_p+0xc60>
80005388:	01431733          	sll	a4,t1,s4
8000538c:	e5e3fb93          	andi	s7,t2,-418
80005390:	c66de993          	ori	s3,s11,-922
80005394:	0072c133          	xor	sp,t0,t2
80005398:	019fe0b3          	or	ra,t6,s9
8000539c:	036fda63          	bge	t6,s6,800053d0 <sub_3_stack_p+0xc60>
800053a0:	01808433          	add	s0,ra,s8
800053a4:	01c45713          	srli	a4,s0,0x1c
800053a8:	4158d193          	srai	gp,a7,0x15
800053ac:	e5a8cb93          	xori	s7,a7,-422
800053b0:	019fe0b3          	or	ra,t6,s9
800053b4:	4158d193          	srai	gp,a7,0x15
800053b8:	0140b7b3          	sltu	a5,ra,s4
800053bc:	0140b7b3          	sltu	a5,ra,s4
800053c0:	574a0113          	addi	sp,s4,1396
800053c4:	41ae0833          	sub	a6,t3,s10
800053c8:	0072c133          	xor	sp,t0,t2
800053cc:	4158d193          	srai	gp,a7,0x15
800053d0:	019fe0b3          	or	ra,t6,s9
800053d4:	e5a8cb93          	xori	s7,a7,-422
800053d8:	e5e3fb93          	andi	s7,t2,-418
800053dc:	a08c68b7          	lui	a7,0xa08c6
800053e0:	01431733          	sll	a4,t1,s4
800053e4:	056fd063          	bge	t6,s6,80005424 <sub_3_stack_p+0xcb4>
800053e8:	4022ddb3          	sra	s11,t0,sp
800053ec:	01808433          	add	s0,ra,s8
800053f0:	00d09993          	slli	s3,ra,0xd
800053f4:	e4ccbc97          	auipc	s9,0xe4ccb
800053f8:	4022ddb3          	sra	s11,t0,sp
800053fc:	4158d193          	srai	gp,a7,0x15
80005400:	036fd863          	bge	t6,s6,80005430 <sub_3_stack_p+0xcc0>
80005404:	01808433          	add	s0,ra,s8
80005408:	e4ccbc97          	auipc	s9,0xe4ccb
8000540c:	0141adb3          	slt	s11,gp,s4
80005410:	0072c133          	xor	sp,t0,t2
80005414:	0141adb3          	slt	s11,gp,s4
80005418:	0140b7b3          	sltu	a5,ra,s4
8000541c:	0000100f          	fence.i
80005420:	00d1e863          	bltu	gp,a3,80005430 <sub_3_stack_p+0xcc0>
80005424:	01537533          	and	a0,t1,s5
80005428:	01537533          	and	a0,t1,s5
8000542c:	004b7a63          	bgeu	s6,tp,80005440 <sub_3_stack_p+0xcd0>
80005430:	4022ddb3          	sra	s11,t0,sp
80005434:	02d1e463          	bltu	gp,a3,8000545c <sub_3_stack_p+0xcec>
80005438:	03950263          	beq	a0,s9,8000545c <sub_3_stack_p+0xcec>
8000543c:	41ae0833          	sub	a6,t3,s10
80005440:	00000013          	nop
80005444:	01808433          	add	s0,ra,s8
80005448:	e5e3fb93          	andi	s7,t2,-418
8000544c:	01950e63          	beq	a0,s9,80005468 <sub_3_stack_p+0xcf8>
80005450:	01537533          	and	a0,t1,s5
80005454:	0140b7b3          	sltu	a5,ra,s4
80005458:	41ae0833          	sub	a6,t3,s10
8000545c:	e5a8cb93          	xori	s7,a7,-422
80005460:	e5a8cb93          	xori	s7,a7,-422
80005464:	0072c133          	xor	sp,t0,t2
80005468:	0000100f          	fence.i
8000546c:	01d09863          	bne	ra,t4,8000547c <sub_3_stack_p+0xd0c>
80005470:	00000013          	nop
80005474:	e4ccbc97          	auipc	s9,0xe4ccb
80005478:	01808433          	add	s0,ra,s8
8000547c:	01808433          	add	s0,ra,s8
80005480:	01537533          	and	a0,t1,s5
80005484:	01808433          	add	s0,ra,s8
80005488:	01537533          	and	a0,t1,s5
8000548c:	4158d193          	srai	gp,a7,0x15
80005490:	01d09663          	bne	ra,t4,8000549c <sub_3_stack_p+0xd2c>
80005494:	0107c263          	blt	a5,a6,80005498 <sub_3_stack_p+0xd28>
80005498:	019fe0b3          	or	ra,t6,s9
8000549c:	01537533          	and	a0,t1,s5
800054a0:	01537533          	and	a0,t1,s5
800054a4:	01c45713          	srli	a4,s0,0x1c
800054a8:	0ff0000f          	fence
800054ac:	0072c133          	xor	sp,t0,t2
800054b0:	01465bb3          	srl	s7,a2,s4
800054b4:	05950463          	beq	a0,s9,800054fc <sub_3_stack_p+0xd8c>
800054b8:	00d09993          	slli	s3,ra,0xd
800054bc:	01537533          	and	a0,t1,s5
800054c0:	e4ccbc97          	auipc	s9,0xe4ccb
800054c4:	036fde63          	bge	t6,s6,80005500 <sub_3_stack_p+0xd90>
800054c8:	0140b7b3          	sltu	a5,ra,s4
800054cc:	01950e63          	beq	a0,s9,800054e8 <sub_3_stack_p+0xd78>
800054d0:	0141adb3          	slt	s11,gp,s4
800054d4:	41ae0833          	sub	a6,t3,s10
800054d8:	c66de993          	ori	s3,s11,-922
800054dc:	574a0113          	addi	sp,s4,1396
800054e0:	01808433          	add	s0,ra,s8
800054e4:	00000013          	nop
800054e8:	004b7463          	bgeu	s6,tp,800054f0 <sub_3_stack_p+0xd80>
800054ec:	0000100f          	fence.i
800054f0:	e4ccbc97          	auipc	s9,0xe4ccb
800054f4:	0107c263          	blt	a5,a6,800054f8 <sub_3_stack_p+0xd88>
800054f8:	e4ccbc97          	auipc	s9,0xe4ccb
800054fc:	0140b7b3          	sltu	a5,ra,s4
80005500:	01537533          	and	a0,t1,s5
80005504:	036fd463          	bge	t6,s6,8000552c <sub_3_stack_p+0xdbc>
80005508:	01c45713          	srli	a4,s0,0x1c
8000550c:	41ae0833          	sub	a6,t3,s10
80005510:	00000013          	nop
80005514:	dd88a013          	slti	zero,a7,-552
80005518:	0000100f          	fence.i
8000551c:	e5a8cb93          	xori	s7,a7,-422
80005520:	019fe0b3          	or	ra,t6,s9
80005524:	01c45713          	srli	a4,s0,0x1c
80005528:	bde33713          	sltiu	a4,t1,-1058
8000552c:	e4ccbc97          	auipc	s9,0xe4ccb
80005530:	0ff0000f          	fence
80005534:	00000013          	nop
80005538:	0ff0000f          	fence
8000553c:	0ff0000f          	fence
80005540:	00d09993          	slli	s3,ra,0xd
80005544:	4022ddb3          	sra	s11,t0,sp
80005548:	e5a8cb93          	xori	s7,a7,-422
8000554c:	01465bb3          	srl	s7,a2,s4
80005550:	a08c68b7          	lui	a7,0xa08c6
80005554:	bde33713          	sltiu	a4,t1,-1058
80005558:	41ae0833          	sub	a6,t3,s10
8000555c:	e5a8cb93          	xori	s7,a7,-422
80005560:	0140b7b3          	sltu	a5,ra,s4
80005564:	036fd463          	bge	t6,s6,8000558c <sub_3_stack_p+0xe1c>
80005568:	0ff0000f          	fence
8000556c:	0140b7b3          	sltu	a5,ra,s4
80005570:	0141adb3          	slt	s11,gp,s4
80005574:	03950863          	beq	a0,s9,800055a4 <sub_3_stack_p+0xe34>
80005578:	0141adb3          	slt	s11,gp,s4
8000557c:	0072c133          	xor	sp,t0,t2
80005580:	01431733          	sll	a4,t1,s4
80005584:	0307c263          	blt	a5,a6,800055a8 <sub_3_stack_p+0xe38>
80005588:	0307c863          	blt	a5,a6,800055b8 <sub_3_stack_p+0xe48>
8000558c:	0140b7b3          	sltu	a5,ra,s4
80005590:	0140b7b3          	sltu	a5,ra,s4
80005594:	0141adb3          	slt	s11,gp,s4
80005598:	04d1e063          	bltu	gp,a3,800055d8 <sub_3_stack_p+0xe68>
8000559c:	e4ccbc97          	auipc	s9,0xe4ccb
800055a0:	01431733          	sll	a4,t1,s4
800055a4:	00d09993          	slli	s3,ra,0xd
800055a8:	01465bb3          	srl	s7,a2,s4
800055ac:	01808433          	add	s0,ra,s8
800055b0:	0ff0000f          	fence
800055b4:	036fdc63          	bge	t6,s6,800055ec <sub_3_stack_p+0xe7c>
800055b8:	e4ccbc97          	auipc	s9,0xe4ccb
800055bc:	4158d193          	srai	gp,a7,0x15
800055c0:	0000100f          	fence.i
800055c4:	016fda63          	bge	t6,s6,800055d8 <sub_3_stack_p+0xe68>
800055c8:	01465bb3          	srl	s7,a2,s4
800055cc:	01465bb3          	srl	s7,a2,s4
800055d0:	4022ddb3          	sra	s11,t0,sp
800055d4:	01c45713          	srli	a4,s0,0x1c
800055d8:	01537533          	and	a0,t1,s5
800055dc:	0ff0000f          	fence
800055e0:	4158d193          	srai	gp,a7,0x15
800055e4:	e4ccbc97          	auipc	s9,0xe4ccb
800055e8:	574a0113          	addi	sp,s4,1396
800055ec:	0ff0000f          	fence
800055f0:	01431733          	sll	a4,t1,s4
800055f4:	01808433          	add	s0,ra,s8
800055f8:	bde33713          	sltiu	a4,t1,-1058
800055fc:	4022ddb3          	sra	s11,t0,sp
80005600:	c66de993          	ori	s3,s11,-922
80005604:	dd88a013          	slti	zero,a7,-552
80005608:	01c45713          	srli	a4,s0,0x1c
8000560c:	4022ddb3          	sra	s11,t0,sp
80005610:	004b7263          	bgeu	s6,tp,80005614 <sub_3_stack_p+0xea4>
80005614:	0ff0000f          	fence
80005618:	0000100f          	fence.i
8000561c:	e5a8cb93          	xori	s7,a7,-422
80005620:	00d09993          	slli	s3,ra,0xd
80005624:	0141adb3          	slt	s11,gp,s4
80005628:	01465bb3          	srl	s7,a2,s4
8000562c:	056fd063          	bge	t6,s6,8000566c <sub_3_stack_p+0xefc>
80005630:	41ae0833          	sub	a6,t3,s10
80005634:	0000100f          	fence.i
80005638:	c66de993          	ori	s3,s11,-922
8000563c:	00000013          	nop
80005640:	e4ccbc97          	auipc	s9,0xe4ccb
80005644:	036fde63          	bge	t6,s6,80005680 <sub_3_stack_p+0xf10>
80005648:	01465bb3          	srl	s7,a2,s4
8000564c:	0307c263          	blt	a5,a6,80005670 <sub_3_stack_p+0xf00>
80005650:	00000013          	nop
80005654:	00d09993          	slli	s3,ra,0xd
80005658:	01431733          	sll	a4,t1,s4
8000565c:	0107c863          	blt	a5,a6,8000566c <sub_3_stack_p+0xefc>
80005660:	c66de993          	ori	s3,s11,-922
80005664:	01c45713          	srli	a4,s0,0x1c
80005668:	e4ccbc97          	auipc	s9,0xe4ccb
8000566c:	e4ccbc97          	auipc	s9,0xe4ccb
80005670:	0072c133          	xor	sp,t0,t2
80005674:	00d09993          	slli	s3,ra,0xd
80005678:	0141adb3          	slt	s11,gp,s4
8000567c:	e5e3fb93          	andi	s7,t2,-418
80005680:	0072c133          	xor	sp,t0,t2
80005684:	00d1ee63          	bltu	gp,a3,800056a0 <sub_3_stack_p+0xf30>
80005688:	e4ccbc97          	auipc	s9,0xe4ccb
8000568c:	00000013          	nop
80005690:	00000013          	nop
80005694:	05d09863          	bne	ra,t4,800056e4 <sub_3_stack_p+0xf74>
80005698:	41ae0833          	sub	a6,t3,s10
8000569c:	05950663          	beq	a0,s9,800056e8 <sub_3_stack_p+0xf78>
800056a0:	0072c133          	xor	sp,t0,t2
800056a4:	01808433          	add	s0,ra,s8
800056a8:	41ae0833          	sub	a6,t3,s10
800056ac:	c66de993          	ori	s3,s11,-922
800056b0:	024b7a63          	bgeu	s6,tp,800056e4 <sub_3_stack_p+0xf74>
800056b4:	03950063          	beq	a0,s9,800056d4 <sub_3_stack_p+0xf64>
800056b8:	016fd863          	bge	t6,s6,800056c8 <sub_3_stack_p+0xf58>
800056bc:	00d1ee63          	bltu	gp,a3,800056d8 <sub_3_stack_p+0xf68>
800056c0:	01431733          	sll	a4,t1,s4
800056c4:	01c45713          	srli	a4,s0,0x1c
800056c8:	e5e3fb93          	andi	s7,t2,-418
800056cc:	41ae0833          	sub	a6,t3,s10
800056d0:	41ae0833          	sub	a6,t3,s10
800056d4:	574a0113          	addi	sp,s4,1396
800056d8:	4022ddb3          	sra	s11,t0,sp
800056dc:	0ff0000f          	fence
800056e0:	41ae0833          	sub	a6,t3,s10
800056e4:	01465bb3          	srl	s7,a2,s4
800056e8:	c66de993          	ori	s3,s11,-922
800056ec:	41ae0833          	sub	a6,t3,s10
800056f0:	0072c133          	xor	sp,t0,t2
800056f4:	0141adb3          	slt	s11,gp,s4
800056f8:	0ff0000f          	fence
800056fc:	01c45713          	srli	a4,s0,0x1c
80005700:	a08c68b7          	lui	a7,0xa08c6
80005704:	01431733          	sll	a4,t1,s4
80005708:	c66de993          	ori	s3,s11,-922
8000570c:	0072c133          	xor	sp,t0,t2
80005710:	e5a8cb93          	xori	s7,a7,-422
80005714:	e4ccbc97          	auipc	s9,0xe4ccb
80005718:	01465bb3          	srl	s7,a2,s4
8000571c:	016fd463          	bge	t6,s6,80005724 <sub_3_stack_p+0xfb4>
80005720:	a08c68b7          	lui	a7,0xa08c6
80005724:	e5a8cb93          	xori	s7,a7,-422
80005728:	4022ddb3          	sra	s11,t0,sp
8000572c:	01431733          	sll	a4,t1,s4
80005730:	e5e3fb93          	andi	s7,t2,-418
80005734:	0107c663          	blt	a5,a6,80005740 <sub_3_stack_p+0xfd0>
80005738:	01431733          	sll	a4,t1,s4
8000573c:	574a0113          	addi	sp,s4,1396
80005740:	e5e3fb93          	andi	s7,t2,-418
80005744:	019fe0b3          	or	ra,t6,s9
80005748:	574a0113          	addi	sp,s4,1396
8000574c:	0ff0000f          	fence
80005750:	04d1e463          	bltu	gp,a3,80005798 <sub_3_stack_p+0x1028>
80005754:	0140b7b3          	sltu	a5,ra,s4
80005758:	e5e3fb93          	andi	s7,t2,-418
8000575c:	e5e3fb93          	andi	s7,t2,-418
80005760:	0072c133          	xor	sp,t0,t2
80005764:	0ff0000f          	fence
80005768:	e5a8cb93          	xori	s7,a7,-422
8000576c:	03d09a63          	bne	ra,t4,800057a0 <sub_3_stack_p+0x1030>
80005770:	e5e3fb93          	andi	s7,t2,-418
80005774:	a08c68b7          	lui	a7,0xa08c6
80005778:	41ae0833          	sub	a6,t3,s10
8000577c:	01465bb3          	srl	s7,a2,s4
80005780:	019fe0b3          	or	ra,t6,s9
80005784:	01465bb3          	srl	s7,a2,s4
80005788:	574a0113          	addi	sp,s4,1396
8000578c:	4158d193          	srai	gp,a7,0x15
80005790:	0000100f          	fence.i
80005794:	01465bb3          	srl	s7,a2,s4
80005798:	dd88a013          	slti	zero,a7,-552
8000579c:	e5a8cb93          	xori	s7,a7,-422
800057a0:	0072c133          	xor	sp,t0,t2
800057a4:	0ff0000f          	fence
800057a8:	a08c68b7          	lui	a7,0xa08c6
800057ac:	044b7463          	bgeu	s6,tp,800057f4 <sub_3_stack_p+0x1084>
800057b0:	01d09e63          	bne	ra,t4,800057cc <sub_3_stack_p+0x105c>
800057b4:	0140b7b3          	sltu	a5,ra,s4
800057b8:	0107c663          	blt	a5,a6,800057c4 <sub_3_stack_p+0x1054>
800057bc:	41ae0833          	sub	a6,t3,s10
800057c0:	05950063          	beq	a0,s9,80005800 <sub_3_stack_p+0x1090>
800057c4:	0140b7b3          	sltu	a5,ra,s4
800057c8:	0140b7b3          	sltu	a5,ra,s4
800057cc:	e5a8cb93          	xori	s7,a7,-422
800057d0:	4158d193          	srai	gp,a7,0x15
800057d4:	01d09a63          	bne	ra,t4,800057e8 <sub_3_stack_p+0x1078>
800057d8:	00000013          	nop
800057dc:	4158d193          	srai	gp,a7,0x15
800057e0:	0072c133          	xor	sp,t0,t2
800057e4:	00000013          	nop
800057e8:	01465bb3          	srl	s7,a2,s4
800057ec:	0141adb3          	slt	s11,gp,s4
800057f0:	e5a8cb93          	xori	s7,a7,-422
800057f4:	41ae0833          	sub	a6,t3,s10
800057f8:	044b7463          	bgeu	s6,tp,80005840 <sub_3_stack_p+0x10d0>
800057fc:	05d09063          	bne	ra,t4,8000583c <sub_3_stack_p+0x10cc>
80005800:	0141adb3          	slt	s11,gp,s4
80005804:	02d1e263          	bltu	gp,a3,80005828 <sub_3_stack_p+0x10b8>
80005808:	00d09993          	slli	s3,ra,0xd
8000580c:	00d09993          	slli	s3,ra,0xd
80005810:	a08c68b7          	lui	a7,0xa08c6
80005814:	05d09063          	bne	ra,t4,80005854 <sub_3_stack_p+0x10e4>
80005818:	e5a8cb93          	xori	s7,a7,-422
8000581c:	4158d193          	srai	gp,a7,0x15
80005820:	01465bb3          	srl	s7,a2,s4
80005824:	01c45713          	srli	a4,s0,0x1c
80005828:	0107c263          	blt	a5,a6,8000582c <sub_3_stack_p+0x10bc>
8000582c:	00d09993          	slli	s3,ra,0xd
80005830:	41ae0833          	sub	a6,t3,s10
80005834:	00000013          	nop
80005838:	bde33713          	sltiu	a4,t1,-1058
8000583c:	0072c133          	xor	sp,t0,t2
80005840:	e5a8cb93          	xori	s7,a7,-422
80005844:	a08c68b7          	lui	a7,0xa08c6
80005848:	00d1e863          	bltu	gp,a3,80005858 <sub_3_stack_p+0x10e8>
8000584c:	0140b7b3          	sltu	a5,ra,s4
80005850:	0140b7b3          	sltu	a5,ra,s4
80005854:	bde33713          	sltiu	a4,t1,-1058
80005858:	0140b7b3          	sltu	a5,ra,s4
8000585c:	0072c133          	xor	sp,t0,t2
80005860:	01d09663          	bne	ra,t4,8000586c <sub_3_stack_p+0x10fc>
80005864:	dd88a013          	slti	zero,a7,-552
80005868:	01537533          	and	a0,t1,s5
8000586c:	4158d193          	srai	gp,a7,0x15
80005870:	574a0113          	addi	sp,s4,1396
80005874:	0140b7b3          	sltu	a5,ra,s4
80005878:	01537533          	and	a0,t1,s5
8000587c:	03950a63          	beq	a0,s9,800058b0 <sub_3_stack_p+0x1140>
80005880:	41ae0833          	sub	a6,t3,s10
80005884:	0000100f          	fence.i
80005888:	0307c263          	blt	a5,a6,800058ac <sub_3_stack_p+0x113c>
8000588c:	00000013          	nop
80005890:	01431733          	sll	a4,t1,s4
80005894:	01808433          	add	s0,ra,s8
80005898:	574a0113          	addi	sp,s4,1396
8000589c:	41ae0833          	sub	a6,t3,s10
800058a0:	0072c133          	xor	sp,t0,t2
800058a4:	0ff0000f          	fence
800058a8:	01431733          	sll	a4,t1,s4
800058ac:	00d09993          	slli	s3,ra,0xd
800058b0:	0000100f          	fence.i
800058b4:	0ff0000f          	fence
800058b8:	01431733          	sll	a4,t1,s4
800058bc:	41ae0833          	sub	a6,t3,s10
800058c0:	01465bb3          	srl	s7,a2,s4
800058c4:	0140b7b3          	sltu	a5,ra,s4
800058c8:	01808433          	add	s0,ra,s8
800058cc:	0ff0000f          	fence
800058d0:	bde33713          	sltiu	a4,t1,-1058
800058d4:	03d09a63          	bne	ra,t4,80005908 <sub_3_stack_p+0x1198>
800058d8:	574a0113          	addi	sp,s4,1396
800058dc:	a08c68b7          	lui	a7,0xa08c6
800058e0:	0072c133          	xor	sp,t0,t2
800058e4:	4022ddb3          	sra	s11,t0,sp
800058e8:	a08c68b7          	lui	a7,0xa08c6
800058ec:	01808433          	add	s0,ra,s8
800058f0:	01537533          	and	a0,t1,s5
800058f4:	0ff0000f          	fence
800058f8:	01d09663          	bne	ra,t4,80005904 <sub_3_stack_p+0x1194>
800058fc:	a08c68b7          	lui	a7,0xa08c6
80005900:	e4ccbc97          	auipc	s9,0xe4ccb
80005904:	01808433          	add	s0,ra,s8
80005908:	e5e3fb93          	andi	s7,t2,-418
8000590c:	0000100f          	fence.i
80005910:	019fe0b3          	or	ra,t6,s9
80005914:	a08c68b7          	lui	a7,0xa08c6
80005918:	574a0113          	addi	sp,s4,1396
8000591c:	574a0113          	addi	sp,s4,1396
80005920:	e4ccbd17          	auipc	s10,0xe4ccb
80005924:	41ae08b3          	sub	a7,t3,s10
80005928:	0ff0000f          	fence
8000592c:	015375b3          	and	a1,t1,s5
80005930:	00432083          	lw	ra,4(t1)
80005934:	0ff0000f          	fence
80005938:	04030313          	addi	t1,t1,64
8000593c:	019fe133          	or	sp,t6,s9
80005940:	018084b3          	add	s1,ra,s8
80005944:	0ff0000f          	fence
80005948:	00008d93          	mv	s11,ra
8000594c:	000d8de7          	jalr	s11,s11

80005950 <sub_2>:
80005950:	a08c6937          	lui	s2,0xa08c6
80005954:	014317b3          	sll	a5,t1,s4
80005958:	fd830313          	addi	t1,t1,-40
8000595c:	0ff0000f          	fence
80005960:	bde33793          	sltiu	a5,t1,-1058
80005964:	c66dea13          	ori	s4,s11,-922
80005968:	4022de33          	sra	t3,t0,sp
8000596c:	4158d213          	srai	tp,a7,0x15
80005970:	00132223          	sw	ra,4(t1)
80005974:	574a0193          	addi	gp,s4,1396
80005978:	00000013          	nop
8000597c:	01950e63          	beq	a0,s9,80005998 <sub_2+0x48>
80005980:	e5e3fb93          	andi	s7,t2,-418
80005984:	e5e3fb93          	andi	s7,t2,-418
80005988:	01c45713          	srli	a4,s0,0x1c
8000598c:	0140b7b3          	sltu	a5,ra,s4
80005990:	e4ccbc97          	auipc	s9,0xe4ccb
80005994:	01d09e63          	bne	ra,t4,800059b0 <sub_2+0x60>
80005998:	036fdc63          	bge	t6,s6,800059d0 <sub_2+0x80>
8000599c:	0507c063          	blt	a5,a6,800059dc <sub_2+0x8c>
800059a0:	00000013          	nop
800059a4:	c66de993          	ori	s3,s11,-922
800059a8:	0141adb3          	slt	s11,gp,s4
800059ac:	4158d193          	srai	gp,a7,0x15
800059b0:	036fd663          	bge	t6,s6,800059dc <sub_2+0x8c>
800059b4:	bde33713          	sltiu	a4,t1,-1058
800059b8:	02d1ea63          	bltu	gp,a3,800059ec <sub_2+0x9c>
800059bc:	4022ddb3          	sra	s11,t0,sp
800059c0:	01c45713          	srli	a4,s0,0x1c
800059c4:	c66de993          	ori	s3,s11,-922
800059c8:	574a0113          	addi	sp,s4,1396
800059cc:	e5e3fb93          	andi	s7,t2,-418
800059d0:	e4ccbc97          	auipc	s9,0xe4ccb
800059d4:	044b7263          	bgeu	s6,tp,80005a18 <sub_2+0xc8>
800059d8:	019fe0b3          	or	ra,t6,s9
800059dc:	0140b7b3          	sltu	a5,ra,s4
800059e0:	024b7c63          	bgeu	s6,tp,80005a18 <sub_2+0xc8>
800059e4:	019fe0b3          	or	ra,t6,s9
800059e8:	01431733          	sll	a4,t1,s4
800059ec:	0072c133          	xor	sp,t0,t2
800059f0:	e5e3fb93          	andi	s7,t2,-418
800059f4:	0000100f          	fence.i
800059f8:	0000100f          	fence.i
800059fc:	01c45713          	srli	a4,s0,0x1c
80005a00:	574a0113          	addi	sp,s4,1396
80005a04:	01808433          	add	s0,ra,s8
80005a08:	41ae0833          	sub	a6,t3,s10
80005a0c:	41ae0833          	sub	a6,t3,s10
80005a10:	01950863          	beq	a0,s9,80005a20 <sub_2+0xd0>
80005a14:	056fd463          	bge	t6,s6,80005a5c <sub_2+0x10c>
80005a18:	01431733          	sll	a4,t1,s4
80005a1c:	0140b7b3          	sltu	a5,ra,s4
80005a20:	a08c68b7          	lui	a7,0xa08c6
80005a24:	0107ca63          	blt	a5,a6,80005a38 <sub_2+0xe8>
80005a28:	019fe0b3          	or	ra,t6,s9
80005a2c:	574a0113          	addi	sp,s4,1396
80005a30:	00d09993          	slli	s3,ra,0xd
80005a34:	4158d193          	srai	gp,a7,0x15
80005a38:	e4ccbc97          	auipc	s9,0xe4ccb
80005a3c:	00d09993          	slli	s3,ra,0xd
80005a40:	4158d193          	srai	gp,a7,0x15
80005a44:	01c45713          	srli	a4,s0,0x1c
80005a48:	0140b7b3          	sltu	a5,ra,s4
80005a4c:	41ae0833          	sub	a6,t3,s10
80005a50:	4158d193          	srai	gp,a7,0x15
80005a54:	0307c263          	blt	a5,a6,80005a78 <sub_2+0x128>
80005a58:	e4ccbc97          	auipc	s9,0xe4ccb
80005a5c:	00d09993          	slli	s3,ra,0xd
80005a60:	01c45713          	srli	a4,s0,0x1c
80005a64:	e5e3fb93          	andi	s7,t2,-418
80005a68:	05950663          	beq	a0,s9,80005ab4 <sub_2+0x164>
80005a6c:	4022ddb3          	sra	s11,t0,sp
80005a70:	01537533          	and	a0,t1,s5
80005a74:	bde33713          	sltiu	a4,t1,-1058
80005a78:	019fe0b3          	or	ra,t6,s9
80005a7c:	01465bb3          	srl	s7,a2,s4
80005a80:	4022ddb3          	sra	s11,t0,sp
80005a84:	01c45713          	srli	a4,s0,0x1c
80005a88:	41ae0833          	sub	a6,t3,s10
80005a8c:	bde33713          	sltiu	a4,t1,-1058
80005a90:	05950863          	beq	a0,s9,80005ae0 <sub_2+0x190>
80005a94:	01950c63          	beq	a0,s9,80005aac <sub_2+0x15c>
80005a98:	574a0113          	addi	sp,s4,1396
80005a9c:	01465bb3          	srl	s7,a2,s4
80005aa0:	01c45713          	srli	a4,s0,0x1c
80005aa4:	41ae0833          	sub	a6,t3,s10
80005aa8:	c66de993          	ori	s3,s11,-922
80005aac:	4022ddb3          	sra	s11,t0,sp
80005ab0:	01d09e63          	bne	ra,t4,80005acc <sub_2+0x17c>
80005ab4:	01465bb3          	srl	s7,a2,s4
80005ab8:	05d09463          	bne	ra,t4,80005b00 <sub_2+0x1b0>
80005abc:	03d09263          	bne	ra,t4,80005ae0 <sub_2+0x190>
80005ac0:	056fd063          	bge	t6,s6,80005b00 <sub_2+0x1b0>
80005ac4:	574a0113          	addi	sp,s4,1396
80005ac8:	bde33713          	sltiu	a4,t1,-1058
80005acc:	01431733          	sll	a4,t1,s4
80005ad0:	01950863          	beq	a0,s9,80005ae0 <sub_2+0x190>
80005ad4:	024b7063          	bgeu	s6,tp,80005af4 <sub_2+0x1a4>
80005ad8:	00000013          	nop
80005adc:	01808433          	add	s0,ra,s8
80005ae0:	a08c68b7          	lui	a7,0xa08c6
80005ae4:	dd88a013          	slti	zero,a7,-552
80005ae8:	03d09063          	bne	ra,t4,80005b08 <sub_2+0x1b8>
80005aec:	044b7263          	bgeu	s6,tp,80005b30 <sub_2+0x1e0>
80005af0:	4158d193          	srai	gp,a7,0x15
80005af4:	e5a8cb93          	xori	s7,a7,-422
80005af8:	e5a8cb93          	xori	s7,a7,-422
80005afc:	574a0113          	addi	sp,s4,1396
80005b00:	00d09993          	slli	s3,ra,0xd
80005b04:	004b7263          	bgeu	s6,tp,80005b08 <sub_2+0x1b8>
80005b08:	01431733          	sll	a4,t1,s4
80005b0c:	e5e3fb93          	andi	s7,t2,-418
80005b10:	bde33713          	sltiu	a4,t1,-1058
80005b14:	dd88a013          	slti	zero,a7,-552
80005b18:	0000100f          	fence.i
80005b1c:	01431733          	sll	a4,t1,s4
80005b20:	4158d193          	srai	gp,a7,0x15
80005b24:	0000100f          	fence.i
80005b28:	00d09993          	slli	s3,ra,0xd
80005b2c:	e4ccbc97          	auipc	s9,0xe4ccb
80005b30:	044b7663          	bgeu	s6,tp,80005b7c <sub_2+0x22c>
80005b34:	03d09e63          	bne	ra,t4,80005b70 <sub_2+0x220>
80005b38:	024b7863          	bgeu	s6,tp,80005b68 <sub_2+0x218>
80005b3c:	0072c133          	xor	sp,t0,t2
80005b40:	056fd063          	bge	t6,s6,80005b80 <sub_2+0x230>
80005b44:	03d09863          	bne	ra,t4,80005b74 <sub_2+0x224>
80005b48:	41ae0833          	sub	a6,t3,s10
80005b4c:	41ae0833          	sub	a6,t3,s10
80005b50:	0ff0000f          	fence
80005b54:	016fde63          	bge	t6,s6,80005b70 <sub_2+0x220>
80005b58:	03950263          	beq	a0,s9,80005b7c <sub_2+0x22c>
80005b5c:	41ae0833          	sub	a6,t3,s10
80005b60:	004b7e63          	bgeu	s6,tp,80005b7c <sub_2+0x22c>
80005b64:	03950063          	beq	a0,s9,80005b84 <sub_2+0x234>
80005b68:	024b7c63          	bgeu	s6,tp,80005ba0 <sub_2+0x250>
80005b6c:	0ff0000f          	fence
80005b70:	0141adb3          	slt	s11,gp,s4
80005b74:	01808433          	add	s0,ra,s8
80005b78:	00000013          	nop
80005b7c:	e5e3fb93          	andi	s7,t2,-418
80005b80:	0140b7b3          	sltu	a5,ra,s4
80005b84:	4022ddb3          	sra	s11,t0,sp
80005b88:	01431733          	sll	a4,t1,s4
80005b8c:	a08c68b7          	lui	a7,0xa08c6
80005b90:	0072c133          	xor	sp,t0,t2
80005b94:	e4ccbc97          	auipc	s9,0xe4ccb
80005b98:	02d1ec63          	bltu	gp,a3,80005bd0 <sub_2+0x280>
80005b9c:	016fd863          	bge	t6,s6,80005bac <sub_2+0x25c>
80005ba0:	e4ccbc97          	auipc	s9,0xe4ccb
80005ba4:	01465bb3          	srl	s7,a2,s4
80005ba8:	41ae0833          	sub	a6,t3,s10
80005bac:	00d09993          	slli	s3,ra,0xd
80005bb0:	0ff0000f          	fence
80005bb4:	a08c68b7          	lui	a7,0xa08c6
80005bb8:	574a0113          	addi	sp,s4,1396
80005bbc:	019fe0b3          	or	ra,t6,s9
80005bc0:	41ae0833          	sub	a6,t3,s10
80005bc4:	01465bb3          	srl	s7,a2,s4
80005bc8:	056fd463          	bge	t6,s6,80005c10 <sub_2+0x2c0>
80005bcc:	0000100f          	fence.i
80005bd0:	e5a8cb93          	xori	s7,a7,-422
80005bd4:	01431733          	sll	a4,t1,s4
80005bd8:	574a0113          	addi	sp,s4,1396
80005bdc:	0ff0000f          	fence
80005be0:	01808433          	add	s0,ra,s8
80005be4:	044b7863          	bgeu	s6,tp,80005c34 <sub_2+0x2e4>
80005be8:	0072c133          	xor	sp,t0,t2
80005bec:	01431733          	sll	a4,t1,s4
80005bf0:	01537533          	and	a0,t1,s5
80005bf4:	c66de993          	ori	s3,s11,-922
80005bf8:	e4ccbc97          	auipc	s9,0xe4ccb
80005bfc:	dd88a013          	slti	zero,a7,-552
80005c00:	e4ccbc97          	auipc	s9,0xe4ccb
80005c04:	0307c863          	blt	a5,a6,80005c34 <sub_2+0x2e4>
80005c08:	4158d193          	srai	gp,a7,0x15
80005c0c:	c66de993          	ori	s3,s11,-922
80005c10:	00d09993          	slli	s3,ra,0xd
80005c14:	dd88a013          	slti	zero,a7,-552
80005c18:	0ff0000f          	fence
80005c1c:	03950a63          	beq	a0,s9,80005c50 <sub_2+0x300>
80005c20:	05950463          	beq	a0,s9,80005c68 <sub_2+0x318>
80005c24:	0140b7b3          	sltu	a5,ra,s4
80005c28:	e5e3fb93          	andi	s7,t2,-418
80005c2c:	0072c133          	xor	sp,t0,t2
80005c30:	01c45713          	srli	a4,s0,0x1c
80005c34:	e4ccbc97          	auipc	s9,0xe4ccb
80005c38:	0000100f          	fence.i
80005c3c:	dd88a013          	slti	zero,a7,-552
80005c40:	01465bb3          	srl	s7,a2,s4
80005c44:	a08c68b7          	lui	a7,0xa08c6
80005c48:	03d09063          	bne	ra,t4,80005c68 <sub_2+0x318>
80005c4c:	4158d193          	srai	gp,a7,0x15
80005c50:	e4ccbc97          	auipc	s9,0xe4ccb
80005c54:	4022ddb3          	sra	s11,t0,sp
80005c58:	01c45713          	srli	a4,s0,0x1c
80005c5c:	574a0113          	addi	sp,s4,1396
80005c60:	4158d193          	srai	gp,a7,0x15
80005c64:	01c45713          	srli	a4,s0,0x1c
80005c68:	01808433          	add	s0,ra,s8
80005c6c:	0ff0000f          	fence
80005c70:	a08c68b7          	lui	a7,0xa08c6
80005c74:	e5a8cb93          	xori	s7,a7,-422
80005c78:	4158d193          	srai	gp,a7,0x15
80005c7c:	00000013          	nop
80005c80:	41ae0833          	sub	a6,t3,s10
80005c84:	01537533          	and	a0,t1,s5
80005c88:	044b7063          	bgeu	s6,tp,80005cc8 <sub_2+0x378>
80005c8c:	dd88a013          	slti	zero,a7,-552
80005c90:	4158d193          	srai	gp,a7,0x15
80005c94:	01537533          	and	a0,t1,s5
80005c98:	01537533          	and	a0,t1,s5
80005c9c:	00d09993          	slli	s3,ra,0xd
80005ca0:	04d1e063          	bltu	gp,a3,80005ce0 <sub_2+0x390>
80005ca4:	4158d193          	srai	gp,a7,0x15
80005ca8:	024b7663          	bgeu	s6,tp,80005cd4 <sub_2+0x384>
80005cac:	dd88a013          	slti	zero,a7,-552
80005cb0:	4022ddb3          	sra	s11,t0,sp
80005cb4:	036fd863          	bge	t6,s6,80005ce4 <sub_2+0x394>
80005cb8:	0107ce63          	blt	a5,a6,80005cd4 <sub_2+0x384>
80005cbc:	0140b7b3          	sltu	a5,ra,s4
80005cc0:	01d09e63          	bne	ra,t4,80005cdc <sub_2+0x38c>
80005cc4:	bde33713          	sltiu	a4,t1,-1058
80005cc8:	01c45713          	srli	a4,s0,0x1c
80005ccc:	e5e3fb93          	andi	s7,t2,-418
80005cd0:	01c45713          	srli	a4,s0,0x1c
80005cd4:	e4ccbc97          	auipc	s9,0xe4ccb
80005cd8:	a08c68b7          	lui	a7,0xa08c6
80005cdc:	c66de993          	ori	s3,s11,-922
80005ce0:	c66de993          	ori	s3,s11,-922
80005ce4:	e5e3fb93          	andi	s7,t2,-418
80005ce8:	01431733          	sll	a4,t1,s4
80005cec:	e5a8cb93          	xori	s7,a7,-422
80005cf0:	00d09993          	slli	s3,ra,0xd
80005cf4:	0000100f          	fence.i
80005cf8:	41ae0833          	sub	a6,t3,s10
80005cfc:	0072c133          	xor	sp,t0,t2
80005d00:	019fe0b3          	or	ra,t6,s9
80005d04:	01c45713          	srli	a4,s0,0x1c
80005d08:	0000100f          	fence.i
80005d0c:	01950a63          	beq	a0,s9,80005d20 <sub_2+0x3d0>
80005d10:	016fd863          	bge	t6,s6,80005d20 <sub_2+0x3d0>
80005d14:	056fd063          	bge	t6,s6,80005d54 <sub_2+0x404>
80005d18:	0000100f          	fence.i
80005d1c:	dd88a013          	slti	zero,a7,-552
80005d20:	01465bb3          	srl	s7,a2,s4
80005d24:	01431733          	sll	a4,t1,s4
80005d28:	00d09993          	slli	s3,ra,0xd
80005d2c:	0000100f          	fence.i
80005d30:	4158d193          	srai	gp,a7,0x15
80005d34:	0140b7b3          	sltu	a5,ra,s4
80005d38:	016fde63          	bge	t6,s6,80005d54 <sub_2+0x404>
80005d3c:	0072c133          	xor	sp,t0,t2
80005d40:	03d09263          	bne	ra,t4,80005d64 <sub_2+0x414>
80005d44:	0141adb3          	slt	s11,gp,s4
80005d48:	bde33713          	sltiu	a4,t1,-1058
80005d4c:	05950263          	beq	a0,s9,80005d90 <sub_2+0x440>
80005d50:	41ae0833          	sub	a6,t3,s10
80005d54:	01537533          	and	a0,t1,s5
80005d58:	e5a8cb93          	xori	s7,a7,-422
80005d5c:	bde33713          	sltiu	a4,t1,-1058
80005d60:	05950263          	beq	a0,s9,80005da4 <sub_2+0x454>
80005d64:	05d09663          	bne	ra,t4,80005db0 <sub_2+0x460>
80005d68:	a08c68b7          	lui	a7,0xa08c6
80005d6c:	004b7c63          	bgeu	s6,tp,80005d84 <sub_2+0x434>
80005d70:	00d1e263          	bltu	gp,a3,80005d74 <sub_2+0x424>
80005d74:	01808433          	add	s0,ra,s8
80005d78:	019fe0b3          	or	ra,t6,s9
80005d7c:	019fe0b3          	or	ra,t6,s9
80005d80:	0ff0000f          	fence
80005d84:	0141adb3          	slt	s11,gp,s4
80005d88:	036fde63          	bge	t6,s6,80005dc4 <sub_2+0x474>
80005d8c:	0140b7b3          	sltu	a5,ra,s4
80005d90:	e5e3fb93          	andi	s7,t2,-418
80005d94:	e5a8cb93          	xori	s7,a7,-422
80005d98:	01431733          	sll	a4,t1,s4
80005d9c:	00000013          	nop
80005da0:	a08c68b7          	lui	a7,0xa08c6
80005da4:	00d09993          	slli	s3,ra,0xd
80005da8:	4158d193          	srai	gp,a7,0x15
80005dac:	0072c133          	xor	sp,t0,t2
80005db0:	dd88a013          	slti	zero,a7,-552
80005db4:	4158d193          	srai	gp,a7,0x15
80005db8:	bde33713          	sltiu	a4,t1,-1058
80005dbc:	05950663          	beq	a0,s9,80005e08 <sub_2+0x4b8>
80005dc0:	00d09993          	slli	s3,ra,0xd
80005dc4:	019fe0b3          	or	ra,t6,s9
80005dc8:	01c45713          	srli	a4,s0,0x1c
80005dcc:	c66de993          	ori	s3,s11,-922
80005dd0:	036fd863          	bge	t6,s6,80005e00 <sub_2+0x4b0>
80005dd4:	dd88a013          	slti	zero,a7,-552
80005dd8:	4158d193          	srai	gp,a7,0x15
80005ddc:	00d09993          	slli	s3,ra,0xd
80005de0:	0ff0000f          	fence
80005de4:	41ae0833          	sub	a6,t3,s10
80005de8:	019fe0b3          	or	ra,t6,s9
80005dec:	bde33713          	sltiu	a4,t1,-1058
80005df0:	019fe0b3          	or	ra,t6,s9
80005df4:	036fd063          	bge	t6,s6,80005e14 <sub_2+0x4c4>
80005df8:	05950463          	beq	a0,s9,80005e40 <sub_2+0x4f0>
80005dfc:	0072c133          	xor	sp,t0,t2
80005e00:	01c45713          	srli	a4,s0,0x1c
80005e04:	01465bb3          	srl	s7,a2,s4
80005e08:	574a0113          	addi	sp,s4,1396
80005e0c:	01465bb3          	srl	s7,a2,s4
80005e10:	4158d193          	srai	gp,a7,0x15
80005e14:	01537533          	and	a0,t1,s5
80005e18:	0000100f          	fence.i
80005e1c:	00000013          	nop
80005e20:	bde33713          	sltiu	a4,t1,-1058
80005e24:	0140b7b3          	sltu	a5,ra,s4
80005e28:	e5e3fb93          	andi	s7,t2,-418
80005e2c:	00d1e263          	bltu	gp,a3,80005e30 <sub_2+0x4e0>
80005e30:	41ae0833          	sub	a6,t3,s10
80005e34:	019fe0b3          	or	ra,t6,s9
80005e38:	e5a8cb93          	xori	s7,a7,-422
80005e3c:	574a0113          	addi	sp,s4,1396
80005e40:	00d09993          	slli	s3,ra,0xd
80005e44:	574a0113          	addi	sp,s4,1396
80005e48:	a08c68b7          	lui	a7,0xa08c6
80005e4c:	01808433          	add	s0,ra,s8
80005e50:	e4ccbc97          	auipc	s9,0xe4ccb
80005e54:	0140b7b3          	sltu	a5,ra,s4
80005e58:	02d1e663          	bltu	gp,a3,80005e84 <sub_2+0x534>
80005e5c:	01808433          	add	s0,ra,s8
80005e60:	01465bb3          	srl	s7,a2,s4
80005e64:	004b7e63          	bgeu	s6,tp,80005e80 <sub_2+0x530>
80005e68:	00000013          	nop
80005e6c:	e4ccbc97          	auipc	s9,0xe4ccb
80005e70:	00d09993          	slli	s3,ra,0xd
80005e74:	05950063          	beq	a0,s9,80005eb4 <sub_2+0x564>
80005e78:	e5e3fb93          	andi	s7,t2,-418
80005e7c:	0140b7b3          	sltu	a5,ra,s4
80005e80:	0307c863          	blt	a5,a6,80005eb0 <sub_2+0x560>
80005e84:	e5a8cb93          	xori	s7,a7,-422
80005e88:	01c45713          	srli	a4,s0,0x1c
80005e8c:	00000013          	nop
80005e90:	0ff0000f          	fence
80005e94:	04d1e063          	bltu	gp,a3,80005ed4 <sub_2+0x584>
80005e98:	e5a8cb93          	xori	s7,a7,-422
80005e9c:	0ff0000f          	fence
80005ea0:	0140b7b3          	sltu	a5,ra,s4
80005ea4:	0072c133          	xor	sp,t0,t2
80005ea8:	00d09993          	slli	s3,ra,0xd
80005eac:	574a0113          	addi	sp,s4,1396
80005eb0:	0ff0000f          	fence
80005eb4:	019fe0b3          	or	ra,t6,s9
80005eb8:	01808433          	add	s0,ra,s8
80005ebc:	016fda63          	bge	t6,s6,80005ed0 <sub_2+0x580>
80005ec0:	41ae0833          	sub	a6,t3,s10
80005ec4:	e4ccbc97          	auipc	s9,0xe4ccb
80005ec8:	0140b7b3          	sltu	a5,ra,s4
80005ecc:	e4ccbc97          	auipc	s9,0xe4ccb
80005ed0:	019fe0b3          	or	ra,t6,s9
80005ed4:	c66de993          	ori	s3,s11,-922
80005ed8:	044b7463          	bgeu	s6,tp,80005f20 <sub_2+0x5d0>
80005edc:	01c45713          	srli	a4,s0,0x1c
80005ee0:	0140b7b3          	sltu	a5,ra,s4
80005ee4:	0140b7b3          	sltu	a5,ra,s4
80005ee8:	01808433          	add	s0,ra,s8
80005eec:	0072c133          	xor	sp,t0,t2
80005ef0:	bde33713          	sltiu	a4,t1,-1058
80005ef4:	019fe0b3          	or	ra,t6,s9
80005ef8:	01465bb3          	srl	s7,a2,s4
80005efc:	0140b7b3          	sltu	a5,ra,s4
80005f00:	0507c663          	blt	a5,a6,80005f4c <sub_2+0x5fc>
80005f04:	4022ddb3          	sra	s11,t0,sp
80005f08:	01c45713          	srli	a4,s0,0x1c
80005f0c:	0ff0000f          	fence
80005f10:	e5e3fb93          	andi	s7,t2,-418
80005f14:	4022ddb3          	sra	s11,t0,sp
80005f18:	00d09993          	slli	s3,ra,0xd
80005f1c:	01d09863          	bne	ra,t4,80005f2c <sub_2+0x5dc>
80005f20:	01431733          	sll	a4,t1,s4
80005f24:	036fd063          	bge	t6,s6,80005f44 <sub_2+0x5f4>
80005f28:	e5a8cb93          	xori	s7,a7,-422
80005f2c:	e5e3fb93          	andi	s7,t2,-418
80005f30:	a08c68b7          	lui	a7,0xa08c6
80005f34:	00d09993          	slli	s3,ra,0xd
80005f38:	0072c133          	xor	sp,t0,t2
80005f3c:	0507c263          	blt	a5,a6,80005f80 <sub_2+0x630>
80005f40:	0ff0000f          	fence
80005f44:	0000100f          	fence.i
80005f48:	0000100f          	fence.i
80005f4c:	01537533          	and	a0,t1,s5
80005f50:	01c45713          	srli	a4,s0,0x1c
80005f54:	0000100f          	fence.i
80005f58:	e5a8cb93          	xori	s7,a7,-422
80005f5c:	e5a8cb93          	xori	s7,a7,-422
80005f60:	574a0113          	addi	sp,s4,1396
80005f64:	01465bb3          	srl	s7,a2,s4
80005f68:	024b7a63          	bgeu	s6,tp,80005f9c <sub_2+0x64c>
80005f6c:	c66de993          	ori	s3,s11,-922
80005f70:	bde33713          	sltiu	a4,t1,-1058
80005f74:	e4ccbc97          	auipc	s9,0xe4ccb
80005f78:	00000013          	nop
80005f7c:	bde33713          	sltiu	a4,t1,-1058
80005f80:	01537533          	and	a0,t1,s5
80005f84:	bde33713          	sltiu	a4,t1,-1058
80005f88:	01537533          	and	a0,t1,s5
80005f8c:	004b7e63          	bgeu	s6,tp,80005fa8 <sub_2+0x658>
80005f90:	024b7c63          	bgeu	s6,tp,80005fc8 <sub_2+0x678>
80005f94:	0141adb3          	slt	s11,gp,s4
80005f98:	03950c63          	beq	a0,s9,80005fd0 <sub_2+0x680>
80005f9c:	01537533          	and	a0,t1,s5
80005fa0:	056fd263          	bge	t6,s6,80005fe4 <sub_2+0x694>
80005fa4:	02d1e263          	bltu	gp,a3,80005fc8 <sub_2+0x678>
80005fa8:	c66de993          	ori	s3,s11,-922
80005fac:	00d09993          	slli	s3,ra,0xd
80005fb0:	01808433          	add	s0,ra,s8
80005fb4:	03950263          	beq	a0,s9,80005fd8 <sub_2+0x688>
80005fb8:	4158d193          	srai	gp,a7,0x15
80005fbc:	01537533          	and	a0,t1,s5
80005fc0:	4022ddb3          	sra	s11,t0,sp
80005fc4:	dd88a013          	slti	zero,a7,-552
80005fc8:	01c45713          	srli	a4,s0,0x1c
80005fcc:	01431733          	sll	a4,t1,s4
80005fd0:	00d09993          	slli	s3,ra,0xd
80005fd4:	e5e3fb93          	andi	s7,t2,-418
80005fd8:	e5e3fb93          	andi	s7,t2,-418
80005fdc:	04d1e063          	bltu	gp,a3,8000601c <sub_2+0x6cc>
80005fe0:	01808433          	add	s0,ra,s8
80005fe4:	4022ddb3          	sra	s11,t0,sp
80005fe8:	e5e3fb93          	andi	s7,t2,-418
80005fec:	4158d193          	srai	gp,a7,0x15
80005ff0:	0307ce63          	blt	a5,a6,8000602c <sub_2+0x6dc>
80005ff4:	0141adb3          	slt	s11,gp,s4
80005ff8:	a08c68b7          	lui	a7,0xa08c6
80005ffc:	0ff0000f          	fence
80006000:	0140b7b3          	sltu	a5,ra,s4
80006004:	01537533          	and	a0,t1,s5
80006008:	0072c133          	xor	sp,t0,t2
8000600c:	0000100f          	fence.i
80006010:	01537533          	and	a0,t1,s5
80006014:	0141adb3          	slt	s11,gp,s4
80006018:	41ae0833          	sub	a6,t3,s10
8000601c:	0141adb3          	slt	s11,gp,s4
80006020:	01431733          	sll	a4,t1,s4
80006024:	0000100f          	fence.i
80006028:	4158d193          	srai	gp,a7,0x15
8000602c:	0107ce63          	blt	a5,a6,80006048 <sub_2+0x6f8>
80006030:	41ae0833          	sub	a6,t3,s10
80006034:	00000013          	nop
80006038:	4022ddb3          	sra	s11,t0,sp
8000603c:	00d09993          	slli	s3,ra,0xd
80006040:	e5e3fb93          	andi	s7,t2,-418
80006044:	019fe0b3          	or	ra,t6,s9
80006048:	019fe0b3          	or	ra,t6,s9
8000604c:	a08c68b7          	lui	a7,0xa08c6
80006050:	0072c133          	xor	sp,t0,t2
80006054:	4158d193          	srai	gp,a7,0x15
80006058:	c66de993          	ori	s3,s11,-922
8000605c:	05d09863          	bne	ra,t4,800060ac <sub_2+0x75c>
80006060:	004b7863          	bgeu	s6,tp,80006070 <sub_2+0x720>
80006064:	4158d193          	srai	gp,a7,0x15
80006068:	016fdc63          	bge	t6,s6,80006080 <sub_2+0x730>
8000606c:	41ae0833          	sub	a6,t3,s10
80006070:	a08c68b7          	lui	a7,0xa08c6
80006074:	e5e3fb93          	andi	s7,t2,-418
80006078:	00000013          	nop
8000607c:	0107ce63          	blt	a5,a6,80006098 <sub_2+0x748>
80006080:	00d09993          	slli	s3,ra,0xd
80006084:	04d1e663          	bltu	gp,a3,800060d0 <sub_2+0x780>
80006088:	bde33713          	sltiu	a4,t1,-1058
8000608c:	dd88a013          	slti	zero,a7,-552
80006090:	03d09863          	bne	ra,t4,800060c0 <sub_2+0x770>
80006094:	01c45713          	srli	a4,s0,0x1c
80006098:	0ff0000f          	fence
8000609c:	01431733          	sll	a4,t1,s4
800060a0:	036fde63          	bge	t6,s6,800060dc <sub_2+0x78c>
800060a4:	e5a8cb93          	xori	s7,a7,-422
800060a8:	01465bb3          	srl	s7,a2,s4
800060ac:	0ff0000f          	fence
800060b0:	056fd063          	bge	t6,s6,800060f0 <sub_2+0x7a0>
800060b4:	dd88a013          	slti	zero,a7,-552
800060b8:	02d1e063          	bltu	gp,a3,800060d8 <sub_2+0x788>
800060bc:	024b7c63          	bgeu	s6,tp,800060f4 <sub_2+0x7a4>
800060c0:	0141adb3          	slt	s11,gp,s4
800060c4:	01465bb3          	srl	s7,a2,s4
800060c8:	a08c68b7          	lui	a7,0xa08c6
800060cc:	dd88a013          	slti	zero,a7,-552
800060d0:	016fde63          	bge	t6,s6,800060ec <sub_2+0x79c>
800060d4:	0072c133          	xor	sp,t0,t2
800060d8:	004b7e63          	bgeu	s6,tp,800060f4 <sub_2+0x7a4>
800060dc:	dd88a013          	slti	zero,a7,-552
800060e0:	01537533          	and	a0,t1,s5
800060e4:	0141adb3          	slt	s11,gp,s4
800060e8:	00d09993          	slli	s3,ra,0xd
800060ec:	dd88a013          	slti	zero,a7,-552
800060f0:	4022ddb3          	sra	s11,t0,sp
800060f4:	e4ccbc97          	auipc	s9,0xe4ccb
800060f8:	01808433          	add	s0,ra,s8
800060fc:	4158d193          	srai	gp,a7,0x15
80006100:	0072c133          	xor	sp,t0,t2
80006104:	0307c863          	blt	a5,a6,80006134 <sub_2+0x7e4>
80006108:	574a0113          	addi	sp,s4,1396
8000610c:	c66de993          	ori	s3,s11,-922
80006110:	01537533          	and	a0,t1,s5
80006114:	a08c68b7          	lui	a7,0xa08c6
80006118:	0072c133          	xor	sp,t0,t2
8000611c:	019fe0b3          	or	ra,t6,s9
80006120:	00000013          	nop
80006124:	0141adb3          	slt	s11,gp,s4
80006128:	0507c263          	blt	a5,a6,8000616c <sub_2+0x81c>
8000612c:	019fe0b3          	or	ra,t6,s9
80006130:	e5e3fb93          	andi	s7,t2,-418
80006134:	0140b7b3          	sltu	a5,ra,s4
80006138:	05950863          	beq	a0,s9,80006188 <sub_2+0x838>
8000613c:	0140b7b3          	sltu	a5,ra,s4
80006140:	01537533          	and	a0,t1,s5
80006144:	bde33713          	sltiu	a4,t1,-1058
80006148:	01c45713          	srli	a4,s0,0x1c
8000614c:	05950063          	beq	a0,s9,8000618c <sub_2+0x83c>
80006150:	00000013          	nop
80006154:	dd88a013          	slti	zero,a7,-552
80006158:	019fe0b3          	or	ra,t6,s9
8000615c:	e4ccbc97          	auipc	s9,0xe4ccb
80006160:	0141adb3          	slt	s11,gp,s4
80006164:	01808433          	add	s0,ra,s8
80006168:	01808433          	add	s0,ra,s8
8000616c:	e5e3fb93          	andi	s7,t2,-418
80006170:	41ae0833          	sub	a6,t3,s10
80006174:	4022ddb3          	sra	s11,t0,sp
80006178:	bde33713          	sltiu	a4,t1,-1058
8000617c:	01465bb3          	srl	s7,a2,s4
80006180:	4158d193          	srai	gp,a7,0x15
80006184:	c66de993          	ori	s3,s11,-922
80006188:	4158d193          	srai	gp,a7,0x15
8000618c:	41ae0833          	sub	a6,t3,s10
80006190:	4158d193          	srai	gp,a7,0x15
80006194:	e5e3fb93          	andi	s7,t2,-418
80006198:	574a0113          	addi	sp,s4,1396
8000619c:	0072c133          	xor	sp,t0,t2
800061a0:	574a0113          	addi	sp,s4,1396
800061a4:	bde33713          	sltiu	a4,t1,-1058
800061a8:	01537533          	and	a0,t1,s5
800061ac:	00000013          	nop
800061b0:	e5e3fb93          	andi	s7,t2,-418
800061b4:	c66de993          	ori	s3,s11,-922
800061b8:	00d09993          	slli	s3,ra,0xd
800061bc:	01808433          	add	s0,ra,s8
800061c0:	e5a8cb93          	xori	s7,a7,-422
800061c4:	00d09993          	slli	s3,ra,0xd
800061c8:	03d09263          	bne	ra,t4,800061ec <sub_2+0x89c>
800061cc:	0141adb3          	slt	s11,gp,s4
800061d0:	01c45713          	srli	a4,s0,0x1c
800061d4:	01537533          	and	a0,t1,s5
800061d8:	01537533          	and	a0,t1,s5
800061dc:	01950e63          	beq	a0,s9,800061f8 <sub_2+0x8a8>
800061e0:	01808433          	add	s0,ra,s8
800061e4:	41ae0833          	sub	a6,t3,s10
800061e8:	0140b7b3          	sltu	a5,ra,s4
800061ec:	e4ccbc97          	auipc	s9,0xe4ccb
800061f0:	024b7263          	bgeu	s6,tp,80006214 <sub_2+0x8c4>
800061f4:	0507c263          	blt	a5,a6,80006238 <sub_2+0x8e8>
800061f8:	01537533          	and	a0,t1,s5
800061fc:	03d09663          	bne	ra,t4,80006228 <sub_2+0x8d8>
80006200:	e5e3fb93          	andi	s7,t2,-418
80006204:	01537533          	and	a0,t1,s5
80006208:	0141adb3          	slt	s11,gp,s4
8000620c:	e5e3fb93          	andi	s7,t2,-418
80006210:	0141adb3          	slt	s11,gp,s4
80006214:	01d09863          	bne	ra,t4,80006224 <sub_2+0x8d4>
80006218:	0140b7b3          	sltu	a5,ra,s4
8000621c:	04d1e463          	bltu	gp,a3,80006264 <sub_2+0x914>
80006220:	e5a8cb93          	xori	s7,a7,-422
80006224:	a08c68b7          	lui	a7,0xa08c6
80006228:	e4ccbc97          	auipc	s9,0xe4ccb
8000622c:	bde33713          	sltiu	a4,t1,-1058
80006230:	01c45713          	srli	a4,s0,0x1c
80006234:	0141adb3          	slt	s11,gp,s4
80006238:	056fd463          	bge	t6,s6,80006280 <sub_2+0x930>
8000623c:	0072c133          	xor	sp,t0,t2
80006240:	0000100f          	fence.i
80006244:	00000013          	nop
80006248:	bde33713          	sltiu	a4,t1,-1058
8000624c:	00000013          	nop
80006250:	e5a8cb93          	xori	s7,a7,-422
80006254:	0107cc63          	blt	a5,a6,8000626c <sub_2+0x91c>
80006258:	e4ccbc97          	auipc	s9,0xe4ccb
8000625c:	dd88a013          	slti	zero,a7,-552
80006260:	01c45713          	srli	a4,s0,0x1c
80006264:	4022ddb3          	sra	s11,t0,sp
80006268:	05d09663          	bne	ra,t4,800062b4 <sub_2+0x964>
8000626c:	e4ccbc97          	auipc	s9,0xe4ccb
80006270:	056fd663          	bge	t6,s6,800062bc <sub_2+0x96c>
80006274:	c66de993          	ori	s3,s11,-922
80006278:	004b7e63          	bgeu	s6,tp,80006294 <sub_2+0x944>
8000627c:	036fd063          	bge	t6,s6,8000629c <sub_2+0x94c>
80006280:	03d09a63          	bne	ra,t4,800062b4 <sub_2+0x964>
80006284:	a08c68b7          	lui	a7,0xa08c6
80006288:	01c45713          	srli	a4,s0,0x1c
8000628c:	01431733          	sll	a4,t1,s4
80006290:	01537533          	and	a0,t1,s5
80006294:	e5e3fb93          	andi	s7,t2,-418
80006298:	01537533          	and	a0,t1,s5
8000629c:	01537533          	and	a0,t1,s5
800062a0:	e5e3fb93          	andi	s7,t2,-418
800062a4:	0107ca63          	blt	a5,a6,800062b8 <sub_2+0x968>
800062a8:	01808433          	add	s0,ra,s8
800062ac:	41ae0833          	sub	a6,t3,s10
800062b0:	41ae0833          	sub	a6,t3,s10
800062b4:	01431733          	sll	a4,t1,s4
800062b8:	0140b7b3          	sltu	a5,ra,s4
800062bc:	01537533          	and	a0,t1,s5
800062c0:	4022ddb3          	sra	s11,t0,sp
800062c4:	00d09993          	slli	s3,ra,0xd
800062c8:	03950c63          	beq	a0,s9,80006300 <sub_2+0x9b0>
800062cc:	574a0113          	addi	sp,s4,1396
800062d0:	0140b7b3          	sltu	a5,ra,s4
800062d4:	0072c133          	xor	sp,t0,t2
800062d8:	01808433          	add	s0,ra,s8
800062dc:	e4ccbc97          	auipc	s9,0xe4ccb
800062e0:	01431733          	sll	a4,t1,s4
800062e4:	00d1e263          	bltu	gp,a3,800062e8 <sub_2+0x998>
800062e8:	0000100f          	fence.i
800062ec:	dd88a013          	slti	zero,a7,-552
800062f0:	0140b7b3          	sltu	a5,ra,s4
800062f4:	e4ccbc97          	auipc	s9,0xe4ccb
800062f8:	01c45713          	srli	a4,s0,0x1c
800062fc:	0ff0000f          	fence
80006300:	a08c68b7          	lui	a7,0xa08c6
80006304:	41ae0833          	sub	a6,t3,s10
80006308:	0072c133          	xor	sp,t0,t2
8000630c:	019fe0b3          	or	ra,t6,s9
80006310:	019fe0b3          	or	ra,t6,s9
80006314:	e4ccbc97          	auipc	s9,0xe4ccb
80006318:	c66de993          	ori	s3,s11,-922
8000631c:	0000100f          	fence.i
80006320:	01465bb3          	srl	s7,a2,s4
80006324:	0107c863          	blt	a5,a6,80006334 <sub_2+0x9e4>
80006328:	574a0113          	addi	sp,s4,1396
8000632c:	574a0113          	addi	sp,s4,1396
80006330:	e5e3fb93          	andi	s7,t2,-418
80006334:	01537533          	and	a0,t1,s5
80006338:	dd88a013          	slti	zero,a7,-552
8000633c:	0507c063          	blt	a5,a6,8000637c <sub_2+0xa2c>
80006340:	00d09993          	slli	s3,ra,0xd
80006344:	c66de993          	ori	s3,s11,-922
80006348:	c66de993          	ori	s3,s11,-922
8000634c:	02d1e863          	bltu	gp,a3,8000637c <sub_2+0xa2c>
80006350:	00d09993          	slli	s3,ra,0xd
80006354:	02d1e663          	bltu	gp,a3,80006380 <sub_2+0xa30>
80006358:	4022ddb3          	sra	s11,t0,sp
8000635c:	0072c133          	xor	sp,t0,t2
80006360:	019fe0b3          	or	ra,t6,s9
80006364:	e4ccbc97          	auipc	s9,0xe4ccb
80006368:	a08c68b7          	lui	a7,0xa08c6
8000636c:	0307c063          	blt	a5,a6,8000638c <sub_2+0xa3c>
80006370:	0072c133          	xor	sp,t0,t2
80006374:	0141adb3          	slt	s11,gp,s4
80006378:	0141adb3          	slt	s11,gp,s4
8000637c:	00d09993          	slli	s3,ra,0xd
80006380:	00d1e263          	bltu	gp,a3,80006384 <sub_2+0xa34>
80006384:	574a0113          	addi	sp,s4,1396
80006388:	0141adb3          	slt	s11,gp,s4
8000638c:	02d1e263          	bltu	gp,a3,800063b0 <sub_2+0xa60>
80006390:	01537533          	and	a0,t1,s5
80006394:	016fde63          	bge	t6,s6,800063b0 <sub_2+0xa60>
80006398:	0000100f          	fence.i
8000639c:	04d1e063          	bltu	gp,a3,800063dc <sub_2+0xa8c>
800063a0:	00d09993          	slli	s3,ra,0xd
800063a4:	574a0113          	addi	sp,s4,1396
800063a8:	dd88a013          	slti	zero,a7,-552
800063ac:	05d09263          	bne	ra,t4,800063f0 <sub_2+0xaa0>
800063b0:	00d1ee63          	bltu	gp,a3,800063cc <sub_2+0xa7c>
800063b4:	4158d193          	srai	gp,a7,0x15
800063b8:	41ae0833          	sub	a6,t3,s10
800063bc:	dd88a013          	slti	zero,a7,-552
800063c0:	01537533          	and	a0,t1,s5
800063c4:	c66de993          	ori	s3,s11,-922
800063c8:	0ff0000f          	fence
800063cc:	00d09993          	slli	s3,ra,0xd
800063d0:	e5e3fb93          	andi	s7,t2,-418
800063d4:	a08c68b7          	lui	a7,0xa08c6
800063d8:	bde33713          	sltiu	a4,t1,-1058
800063dc:	e5e3fb93          	andi	s7,t2,-418
800063e0:	056fd063          	bge	t6,s6,80006420 <sub_2+0xad0>
800063e4:	c66de993          	ori	s3,s11,-922
800063e8:	0140b7b3          	sltu	a5,ra,s4
800063ec:	e4ccbc97          	auipc	s9,0xe4ccb
800063f0:	dd88a013          	slti	zero,a7,-552
800063f4:	574a0113          	addi	sp,s4,1396
800063f8:	01537533          	and	a0,t1,s5
800063fc:	05950463          	beq	a0,s9,80006444 <sub_2+0xaf4>
80006400:	41ae0833          	sub	a6,t3,s10
80006404:	e4ccbc97          	auipc	s9,0xe4ccb
80006408:	03d09c63          	bne	ra,t4,80006440 <sub_2+0xaf0>
8000640c:	0ff0000f          	fence
80006410:	0507c863          	blt	a5,a6,80006460 <sub_2+0xb10>
80006414:	0000100f          	fence.i
80006418:	0140b7b3          	sltu	a5,ra,s4
8000641c:	01537533          	and	a0,t1,s5
80006420:	01431733          	sll	a4,t1,s4
80006424:	0140b7b3          	sltu	a5,ra,s4
80006428:	e5a8cb93          	xori	s7,a7,-422
8000642c:	bde33713          	sltiu	a4,t1,-1058
80006430:	0ff0000f          	fence
80006434:	0141adb3          	slt	s11,gp,s4
80006438:	00d1e863          	bltu	gp,a3,80006448 <sub_2+0xaf8>
8000643c:	00d09993          	slli	s3,ra,0xd
80006440:	01950c63          	beq	a0,s9,80006458 <sub_2+0xb08>
80006444:	01431733          	sll	a4,t1,s4
80006448:	019fe0b3          	or	ra,t6,s9
8000644c:	01c45713          	srli	a4,s0,0x1c
80006450:	01c45713          	srli	a4,s0,0x1c
80006454:	01465bb3          	srl	s7,a2,s4
80006458:	a08c68b7          	lui	a7,0xa08c6
8000645c:	e5a8cb93          	xori	s7,a7,-422
80006460:	056fd463          	bge	t6,s6,800064a8 <sub_2+0xb58>
80006464:	4022ddb3          	sra	s11,t0,sp
80006468:	dd88a013          	slti	zero,a7,-552
8000646c:	03950263          	beq	a0,s9,80006490 <sub_2+0xb40>
80006470:	04d1e663          	bltu	gp,a3,800064bc <sub_2+0xb6c>
80006474:	04d1e263          	bltu	gp,a3,800064b8 <sub_2+0xb68>
80006478:	4158d193          	srai	gp,a7,0x15
8000647c:	0ff0000f          	fence
80006480:	dd88a013          	slti	zero,a7,-552
80006484:	0307c863          	blt	a5,a6,800064b4 <sub_2+0xb64>
80006488:	01c45713          	srli	a4,s0,0x1c
8000648c:	0140b7b3          	sltu	a5,ra,s4
80006490:	e5e3fb93          	andi	s7,t2,-418
80006494:	01537533          	and	a0,t1,s5
80006498:	0140b7b3          	sltu	a5,ra,s4
8000649c:	01808433          	add	s0,ra,s8
800064a0:	574a0113          	addi	sp,s4,1396
800064a4:	01d09e63          	bne	ra,t4,800064c0 <sub_2+0xb70>
800064a8:	01950a63          	beq	a0,s9,800064bc <sub_2+0xb6c>
800064ac:	01431733          	sll	a4,t1,s4
800064b0:	00000013          	nop
800064b4:	01d09863          	bne	ra,t4,800064c4 <sub_2+0xb74>
800064b8:	044b7063          	bgeu	s6,tp,800064f8 <sub_2+0xba8>
800064bc:	e5a8cb93          	xori	s7,a7,-422
800064c0:	4022ddb3          	sra	s11,t0,sp
800064c4:	0141adb3          	slt	s11,gp,s4
800064c8:	024b7063          	bgeu	s6,tp,800064e8 <sub_2+0xb98>
800064cc:	e5a8cb93          	xori	s7,a7,-422
800064d0:	4022ddb3          	sra	s11,t0,sp
800064d4:	a08c68b7          	lui	a7,0xa08c6
800064d8:	0ff0000f          	fence
800064dc:	01465bb3          	srl	s7,a2,s4
800064e0:	01431733          	sll	a4,t1,s4
800064e4:	e5e3fb93          	andi	s7,t2,-418
800064e8:	dd88a013          	slti	zero,a7,-552
800064ec:	00d1ee63          	bltu	gp,a3,80006508 <sub_2+0xbb8>
800064f0:	0140b7b3          	sltu	a5,ra,s4
800064f4:	05950663          	beq	a0,s9,80006540 <sub_2+0xbf0>
800064f8:	0072c133          	xor	sp,t0,t2
800064fc:	574a0113          	addi	sp,s4,1396
80006500:	01431733          	sll	a4,t1,s4
80006504:	c66de993          	ori	s3,s11,-922
80006508:	03d09c63          	bne	ra,t4,80006540 <sub_2+0xbf0>
8000650c:	0072c133          	xor	sp,t0,t2
80006510:	0140b7b3          	sltu	a5,ra,s4
80006514:	e5e3fb93          	andi	s7,t2,-418
80006518:	41ae0833          	sub	a6,t3,s10
8000651c:	02d1ee63          	bltu	gp,a3,80006558 <sub_2+0xc08>
80006520:	03d09a63          	bne	ra,t4,80006554 <sub_2+0xc04>
80006524:	03950a63          	beq	a0,s9,80006558 <sub_2+0xc08>
80006528:	05d09663          	bne	ra,t4,80006574 <sub_2+0xc24>
8000652c:	0000100f          	fence.i
80006530:	05950463          	beq	a0,s9,80006578 <sub_2+0xc28>
80006534:	4022ddb3          	sra	s11,t0,sp
80006538:	41ae0833          	sub	a6,t3,s10
8000653c:	0140b7b3          	sltu	a5,ra,s4
80006540:	01c45713          	srli	a4,s0,0x1c
80006544:	0107ce63          	blt	a5,a6,80006560 <sub_2+0xc10>
80006548:	0000100f          	fence.i
8000654c:	01431733          	sll	a4,t1,s4
80006550:	01c45713          	srli	a4,s0,0x1c
80006554:	0140b7b3          	sltu	a5,ra,s4
80006558:	00000013          	nop
8000655c:	01431733          	sll	a4,t1,s4
80006560:	01537533          	and	a0,t1,s5
80006564:	02d1e863          	bltu	gp,a3,80006594 <sub_2+0xc44>
80006568:	bde33713          	sltiu	a4,t1,-1058
8000656c:	bde33713          	sltiu	a4,t1,-1058
80006570:	036fdc63          	bge	t6,s6,800065a8 <sub_2+0xc58>
80006574:	a08c68b7          	lui	a7,0xa08c6
80006578:	574a0113          	addi	sp,s4,1396
8000657c:	4022ddb3          	sra	s11,t0,sp
80006580:	01465bb3          	srl	s7,a2,s4
80006584:	0307c063          	blt	a5,a6,800065a4 <sub_2+0xc54>
80006588:	00d09993          	slli	s3,ra,0xd
8000658c:	a08c68b7          	lui	a7,0xa08c6
80006590:	e5a8cb93          	xori	s7,a7,-422
80006594:	c66de993          	ori	s3,s11,-922
80006598:	01537533          	and	a0,t1,s5
8000659c:	4022ddb3          	sra	s11,t0,sp
800065a0:	e5e3fb93          	andi	s7,t2,-418
800065a4:	00000013          	nop
800065a8:	00000013          	nop
800065ac:	0107ce63          	blt	a5,a6,800065c8 <sub_2+0xc78>
800065b0:	0000100f          	fence.i
800065b4:	05d09463          	bne	ra,t4,800065fc <sub_2+0xcac>
800065b8:	0ff0000f          	fence
800065bc:	e5a8cb93          	xori	s7,a7,-422
800065c0:	bde33713          	sltiu	a4,t1,-1058
800065c4:	01465bb3          	srl	s7,a2,s4
800065c8:	02d1e663          	bltu	gp,a3,800065f4 <sub_2+0xca4>
800065cc:	00000013          	nop
800065d0:	bde33713          	sltiu	a4,t1,-1058
800065d4:	41ae0833          	sub	a6,t3,s10
800065d8:	0140b7b3          	sltu	a5,ra,s4
800065dc:	01d09863          	bne	ra,t4,800065ec <sub_2+0xc9c>
800065e0:	00d1ec63          	bltu	gp,a3,800065f8 <sub_2+0xca8>
800065e4:	0140b7b3          	sltu	a5,ra,s4
800065e8:	bde33713          	sltiu	a4,t1,-1058
800065ec:	0140b7b3          	sltu	a5,ra,s4
800065f0:	0000100f          	fence.i
800065f4:	00000013          	nop
800065f8:	01d09e63          	bne	ra,t4,80006614 <sub_2+0xcc4>
800065fc:	c66de993          	ori	s3,s11,-922
80006600:	01465bb3          	srl	s7,a2,s4
80006604:	05d09663          	bne	ra,t4,80006650 <sub_2+0xd00>
80006608:	0000100f          	fence.i
8000660c:	c66de993          	ori	s3,s11,-922
80006610:	e4ccbc97          	auipc	s9,0xe4ccb
80006614:	41ae0833          	sub	a6,t3,s10
80006618:	41ae0833          	sub	a6,t3,s10
8000661c:	019fe0b3          	or	ra,t6,s9
80006620:	e5a8cb93          	xori	s7,a7,-422
80006624:	dd88a013          	slti	zero,a7,-552
80006628:	01431733          	sll	a4,t1,s4
8000662c:	01465bb3          	srl	s7,a2,s4
80006630:	019fe0b3          	or	ra,t6,s9
80006634:	05950263          	beq	a0,s9,80006678 <sub_2+0xd28>
80006638:	01537533          	and	a0,t1,s5
8000663c:	574a0113          	addi	sp,s4,1396
80006640:	0072c133          	xor	sp,t0,t2
80006644:	0072c133          	xor	sp,t0,t2
80006648:	019fe0b3          	or	ra,t6,s9
8000664c:	04d1e063          	bltu	gp,a3,8000668c <sub_2+0xd3c>
80006650:	01c45713          	srli	a4,s0,0x1c
80006654:	0140b7b3          	sltu	a5,ra,s4
80006658:	c66de993          	ori	s3,s11,-922
8000665c:	01c45713          	srli	a4,s0,0x1c
80006660:	016fd863          	bge	t6,s6,80006670 <sub_2+0xd20>
80006664:	01c45713          	srli	a4,s0,0x1c
80006668:	01465bb3          	srl	s7,a2,s4
8000666c:	0ff0000f          	fence
80006670:	03950263          	beq	a0,s9,80006694 <sub_2+0xd44>
80006674:	00d1ea63          	bltu	gp,a3,80006688 <sub_2+0xd38>
80006678:	01465bb3          	srl	s7,a2,s4
8000667c:	e5e3fb93          	andi	s7,t2,-418
80006680:	03d09063          	bne	ra,t4,800066a0 <sub_2+0xd50>
80006684:	4022ddb3          	sra	s11,t0,sp
80006688:	bde33713          	sltiu	a4,t1,-1058
8000668c:	0072c133          	xor	sp,t0,t2
80006690:	0141adb3          	slt	s11,gp,s4
80006694:	00d09993          	slli	s3,ra,0xd
80006698:	0000100f          	fence.i
8000669c:	0307c863          	blt	a5,a6,800066cc <sub_2+0xd7c>
800066a0:	4158d193          	srai	gp,a7,0x15
800066a4:	e5e3fb93          	andi	s7,t2,-418
800066a8:	c66de993          	ori	s3,s11,-922
800066ac:	41ae0833          	sub	a6,t3,s10
800066b0:	0141adb3          	slt	s11,gp,s4
800066b4:	01537533          	and	a0,t1,s5
800066b8:	4158d193          	srai	gp,a7,0x15
800066bc:	0507c263          	blt	a5,a6,80006700 <sub_2+0xdb0>
800066c0:	01431733          	sll	a4,t1,s4
800066c4:	00000013          	nop
800066c8:	574a0113          	addi	sp,s4,1396
800066cc:	044b7063          	bgeu	s6,tp,8000670c <sub_2+0xdbc>
800066d0:	0000100f          	fence.i
800066d4:	c66de993          	ori	s3,s11,-922
800066d8:	a08c68b7          	lui	a7,0xa08c6
800066dc:	0072c133          	xor	sp,t0,t2
800066e0:	e5a8cb93          	xori	s7,a7,-422
800066e4:	e5e3fb93          	andi	s7,t2,-418
800066e8:	00d09993          	slli	s3,ra,0xd
800066ec:	4158d193          	srai	gp,a7,0x15
800066f0:	574a0113          	addi	sp,s4,1396
800066f4:	04d1e063          	bltu	gp,a3,80006734 <sub_2+0xde4>
800066f8:	01808433          	add	s0,ra,s8
800066fc:	00d09993          	slli	s3,ra,0xd
80006700:	e4ccbc97          	auipc	s9,0xe4ccb
80006704:	0507c863          	blt	a5,a6,80006754 <sub_2+0xe04>
80006708:	a08c68b7          	lui	a7,0xa08c6
8000670c:	01c45713          	srli	a4,s0,0x1c
80006710:	01808433          	add	s0,ra,s8
80006714:	0072c133          	xor	sp,t0,t2
80006718:	0140b7b3          	sltu	a5,ra,s4
8000671c:	bde33713          	sltiu	a4,t1,-1058
80006720:	019fe0b3          	or	ra,t6,s9
80006724:	03950e63          	beq	a0,s9,80006760 <sub_2+0xe10>
80006728:	e4ccbc97          	auipc	s9,0xe4ccb
8000672c:	03950263          	beq	a0,s9,80006750 <sub_2+0xe00>
80006730:	01d09263          	bne	ra,t4,80006734 <sub_2+0xde4>
80006734:	016fde63          	bge	t6,s6,80006750 <sub_2+0xe00>
80006738:	c66de993          	ori	s3,s11,-922
8000673c:	0140b7b3          	sltu	a5,ra,s4
80006740:	dd88a013          	slti	zero,a7,-552
80006744:	0000100f          	fence.i
80006748:	0000100f          	fence.i
8000674c:	0140b7b3          	sltu	a5,ra,s4
80006750:	036fdc63          	bge	t6,s6,80006788 <sub_2+0xe38>
80006754:	019fe0b3          	or	ra,t6,s9
80006758:	bde33713          	sltiu	a4,t1,-1058
8000675c:	e5e3fb93          	andi	s7,t2,-418
80006760:	4022ddb3          	sra	s11,t0,sp
80006764:	04d1e663          	bltu	gp,a3,800067b0 <sub_2+0xe60>
80006768:	0141adb3          	slt	s11,gp,s4
8000676c:	05d09063          	bne	ra,t4,800067ac <sub_2+0xe5c>
80006770:	01431733          	sll	a4,t1,s4
80006774:	03950263          	beq	a0,s9,80006798 <sub_2+0xe48>
80006778:	01808433          	add	s0,ra,s8
8000677c:	00000013          	nop
80006780:	03950063          	beq	a0,s9,800067a0 <sub_2+0xe50>
80006784:	a08c68b7          	lui	a7,0xa08c6
80006788:	019fe0b3          	or	ra,t6,s9
8000678c:	01465bb3          	srl	s7,a2,s4
80006790:	41ae0833          	sub	a6,t3,s10
80006794:	019fe0b3          	or	ra,t6,s9
80006798:	0140b7b3          	sltu	a5,ra,s4
8000679c:	0ff0000f          	fence
800067a0:	0000100f          	fence.i
800067a4:	004b7c63          	bgeu	s6,tp,800067bc <sub_2+0xe6c>
800067a8:	01c45713          	srli	a4,s0,0x1c
800067ac:	4022ddb3          	sra	s11,t0,sp
800067b0:	01465bb3          	srl	s7,a2,s4
800067b4:	01808433          	add	s0,ra,s8
800067b8:	01431733          	sll	a4,t1,s4
800067bc:	a08c68b7          	lui	a7,0xa08c6
800067c0:	00d09993          	slli	s3,ra,0xd
800067c4:	a08c68b7          	lui	a7,0xa08c6
800067c8:	bde33713          	sltiu	a4,t1,-1058
800067cc:	00000013          	nop
800067d0:	044b7263          	bgeu	s6,tp,80006814 <sub_2+0xec4>
800067d4:	c66de993          	ori	s3,s11,-922
800067d8:	019fe0b3          	or	ra,t6,s9
800067dc:	0ff0000f          	fence
800067e0:	03950863          	beq	a0,s9,80006810 <sub_2+0xec0>
800067e4:	01d09263          	bne	ra,t4,800067e8 <sub_2+0xe98>
800067e8:	41ae0833          	sub	a6,t3,s10
800067ec:	0307c863          	blt	a5,a6,8000681c <sub_2+0xecc>
800067f0:	01465bb3          	srl	s7,a2,s4
800067f4:	0000100f          	fence.i
800067f8:	01808433          	add	s0,ra,s8
800067fc:	bde33713          	sltiu	a4,t1,-1058
80006800:	0141adb3          	slt	s11,gp,s4
80006804:	019fe0b3          	or	ra,t6,s9
80006808:	00000013          	nop
8000680c:	01431733          	sll	a4,t1,s4
80006810:	e5e3fb93          	andi	s7,t2,-418
80006814:	044b7463          	bgeu	s6,tp,8000685c <sub_2+0xf0c>
80006818:	024b7c63          	bgeu	s6,tp,80006850 <sub_2+0xf00>
8000681c:	05950063          	beq	a0,s9,8000685c <sub_2+0xf0c>
80006820:	0ff0000f          	fence
80006824:	0141adb3          	slt	s11,gp,s4
80006828:	0140b7b3          	sltu	a5,ra,s4
8000682c:	04d1e063          	bltu	gp,a3,8000686c <sub_2+0xf1c>
80006830:	01c45713          	srli	a4,s0,0x1c
80006834:	03950c63          	beq	a0,s9,8000686c <sub_2+0xf1c>
80006838:	0307ce63          	blt	a5,a6,80006874 <sub_2+0xf24>
8000683c:	bde33713          	sltiu	a4,t1,-1058
80006840:	0000100f          	fence.i
80006844:	01431733          	sll	a4,t1,s4
80006848:	00d1e863          	bltu	gp,a3,80006858 <sub_2+0xf08>
8000684c:	05d09463          	bne	ra,t4,80006894 <sub_2+0xf44>
80006850:	01808433          	add	s0,ra,s8
80006854:	0000100f          	fence.i
80006858:	4158d193          	srai	gp,a7,0x15
8000685c:	01808433          	add	s0,ra,s8
80006860:	01537533          	and	a0,t1,s5
80006864:	016fde63          	bge	t6,s6,80006880 <sub_2+0xf30>
80006868:	0ff0000f          	fence
8000686c:	dd88a013          	slti	zero,a7,-552
80006870:	e5a8cb93          	xori	s7,a7,-422
80006874:	c66de993          	ori	s3,s11,-922
80006878:	01537533          	and	a0,t1,s5
8000687c:	01950e63          	beq	a0,s9,80006898 <sub_2+0xf48>
80006880:	574a0113          	addi	sp,s4,1396
80006884:	0000100f          	fence.i
80006888:	01465bb3          	srl	s7,a2,s4
8000688c:	01c45713          	srli	a4,s0,0x1c
80006890:	016fde63          	bge	t6,s6,800068ac <sub_2+0xf5c>
80006894:	01d09e63          	bne	ra,t4,800068b0 <sub_2+0xf60>
80006898:	01537533          	and	a0,t1,s5
8000689c:	dd88a013          	slti	zero,a7,-552
800068a0:	03950263          	beq	a0,s9,800068c4 <sub_2+0xf74>
800068a4:	00000013          	nop
800068a8:	dd88a013          	slti	zero,a7,-552
800068ac:	00d09993          	slli	s3,ra,0xd
800068b0:	e5a8cb93          	xori	s7,a7,-422
800068b4:	e5a8cb93          	xori	s7,a7,-422
800068b8:	41ae0833          	sub	a6,t3,s10
800068bc:	01431733          	sll	a4,t1,s4
800068c0:	0141adb3          	slt	s11,gp,s4
800068c4:	574a0113          	addi	sp,s4,1396
800068c8:	41ae0833          	sub	a6,t3,s10
800068cc:	05d09263          	bne	ra,t4,80006910 <sub_2+0xfc0>
800068d0:	e5e3fb93          	andi	s7,t2,-418
800068d4:	0307ca63          	blt	a5,a6,80006908 <sub_2+0xfb8>
800068d8:	016fda63          	bge	t6,s6,800068ec <sub_2+0xf9c>
800068dc:	01808433          	add	s0,ra,s8
800068e0:	e4ccbc97          	auipc	s9,0xe4ccb
800068e4:	044b7663          	bgeu	s6,tp,80006930 <sub_2+0xfe0>
800068e8:	02d1e663          	bltu	gp,a3,80006914 <sub_2+0xfc4>
800068ec:	00000013          	nop
800068f0:	574a0113          	addi	sp,s4,1396
800068f4:	a08c68b7          	lui	a7,0xa08c6
800068f8:	00d1e863          	bltu	gp,a3,80006908 <sub_2+0xfb8>
800068fc:	0141adb3          	slt	s11,gp,s4
80006900:	01537533          	and	a0,t1,s5
80006904:	01465bb3          	srl	s7,a2,s4
80006908:	4022ddb3          	sra	s11,t0,sp
8000690c:	05950863          	beq	a0,s9,8000695c <sub_2+0x100c>
80006910:	bde33713          	sltiu	a4,t1,-1058
80006914:	a08c68b7          	lui	a7,0xa08c6
80006918:	00d09993          	slli	s3,ra,0xd
8000691c:	0072c133          	xor	sp,t0,t2
80006920:	574a0113          	addi	sp,s4,1396
80006924:	e5a8cb93          	xori	s7,a7,-422
80006928:	0141adb3          	slt	s11,gp,s4
8000692c:	00d09993          	slli	s3,ra,0xd
80006930:	019fe0b3          	or	ra,t6,s9
80006934:	a08c68b7          	lui	a7,0xa08c6
80006938:	01c45713          	srli	a4,s0,0x1c
8000693c:	024b7063          	bgeu	s6,tp,8000695c <sub_2+0x100c>
80006940:	e5a8cb93          	xori	s7,a7,-422
80006944:	4022ddb3          	sra	s11,t0,sp
80006948:	01c45713          	srli	a4,s0,0x1c
8000694c:	e5e3fb93          	andi	s7,t2,-418
80006950:	0140b7b3          	sltu	a5,ra,s4
80006954:	00000013          	nop
80006958:	0072c133          	xor	sp,t0,t2
8000695c:	03950e63          	beq	a0,s9,80006998 <sub_2+0x1048>
80006960:	019fe0b3          	or	ra,t6,s9
80006964:	a08c68b7          	lui	a7,0xa08c6
80006968:	00d09993          	slli	s3,ra,0xd
8000696c:	00000013          	nop
80006970:	bde33713          	sltiu	a4,t1,-1058
80006974:	00d09993          	slli	s3,ra,0xd
80006978:	a08c68b7          	lui	a7,0xa08c6
8000697c:	02d1e263          	bltu	gp,a3,800069a0 <sub_2+0x1050>
80006980:	00000013          	nop
80006984:	0ff0000f          	fence
80006988:	a08c68b7          	lui	a7,0xa08c6
8000698c:	e4ccbc97          	auipc	s9,0xe4ccb
80006990:	e5a8cb93          	xori	s7,a7,-422
80006994:	03d09863          	bne	ra,t4,800069c4 <sub_2+0x1074>
80006998:	056fd063          	bge	t6,s6,800069d8 <sub_2+0x1088>
8000699c:	024b7063          	bgeu	s6,tp,800069bc <sub_2+0x106c>
800069a0:	05950663          	beq	a0,s9,800069ec <sub_2+0x109c>
800069a4:	01537533          	and	a0,t1,s5
800069a8:	01950263          	beq	a0,s9,800069ac <sub_2+0x105c>
800069ac:	e5a8cb93          	xori	s7,a7,-422
800069b0:	01431733          	sll	a4,t1,s4
800069b4:	00000013          	nop
800069b8:	e4ccbc97          	auipc	s9,0xe4ccb
800069bc:	0107ce63          	blt	a5,a6,800069d8 <sub_2+0x1088>
800069c0:	c66de993          	ori	s3,s11,-922
800069c4:	0140b7b3          	sltu	a5,ra,s4
800069c8:	4022ddb3          	sra	s11,t0,sp
800069cc:	05950263          	beq	a0,s9,80006a10 <sub_2+0x10c0>
800069d0:	0140b7b3          	sltu	a5,ra,s4
800069d4:	0072c133          	xor	sp,t0,t2
800069d8:	bde33713          	sltiu	a4,t1,-1058
800069dc:	0307c663          	blt	a5,a6,80006a08 <sub_2+0x10b8>
800069e0:	01950e63          	beq	a0,s9,800069fc <sub_2+0x10ac>
800069e4:	0072c133          	xor	sp,t0,t2
800069e8:	00d09993          	slli	s3,ra,0xd
800069ec:	01d09e63          	bne	ra,t4,80006a08 <sub_2+0x10b8>
800069f0:	0000100f          	fence.i
800069f4:	0000100f          	fence.i
800069f8:	c66de993          	ori	s3,s11,-922
800069fc:	00d09993          	slli	s3,ra,0xd
80006a00:	e5a8cb93          	xori	s7,a7,-422
80006a04:	01431733          	sll	a4,t1,s4
80006a08:	00d09993          	slli	s3,ra,0xd
80006a0c:	01465bb3          	srl	s7,a2,s4
80006a10:	574a0113          	addi	sp,s4,1396
80006a14:	024b7c63          	bgeu	s6,tp,80006a4c <sub_2+0x10fc>
80006a18:	0072c133          	xor	sp,t0,t2
80006a1c:	574a0113          	addi	sp,s4,1396
80006a20:	00000013          	nop
80006a24:	05950263          	beq	a0,s9,80006a68 <sub_2+0x1118>
80006a28:	4022ddb3          	sra	s11,t0,sp
80006a2c:	044b7063          	bgeu	s6,tp,80006a6c <sub_2+0x111c>
80006a30:	056fd663          	bge	t6,s6,80006a7c <sub_2+0x112c>
80006a34:	044b7063          	bgeu	s6,tp,80006a74 <sub_2+0x1124>
80006a38:	4022ddb3          	sra	s11,t0,sp
80006a3c:	0140b7b3          	sltu	a5,ra,s4
80006a40:	e5e3fb93          	andi	s7,t2,-418
80006a44:	4158d193          	srai	gp,a7,0x15
80006a48:	01465bb3          	srl	s7,a2,s4
80006a4c:	e5a8cb93          	xori	s7,a7,-422
80006a50:	01d09e63          	bne	ra,t4,80006a6c <sub_2+0x111c>
80006a54:	016fda63          	bge	t6,s6,80006a68 <sub_2+0x1118>
80006a58:	01431733          	sll	a4,t1,s4
80006a5c:	019fe0b3          	or	ra,t6,s9
80006a60:	0000100f          	fence.i
80006a64:	0140b7b3          	sltu	a5,ra,s4
80006a68:	4158d193          	srai	gp,a7,0x15
80006a6c:	41ae0833          	sub	a6,t3,s10
80006a70:	bde33713          	sltiu	a4,t1,-1058
80006a74:	05950463          	beq	a0,s9,80006abc <sub_2+0x116c>
80006a78:	e4ccbc97          	auipc	s9,0xe4ccb
80006a7c:	e5e3fb93          	andi	s7,t2,-418
80006a80:	01808433          	add	s0,ra,s8
80006a84:	0072c133          	xor	sp,t0,t2
80006a88:	e5e3fb93          	andi	s7,t2,-418
80006a8c:	00000013          	nop
80006a90:	01808433          	add	s0,ra,s8
80006a94:	c66de993          	ori	s3,s11,-922
80006a98:	0141adb3          	slt	s11,gp,s4
80006a9c:	019fe0b3          	or	ra,t6,s9
80006aa0:	03950c63          	beq	a0,s9,80006ad8 <sub_2+0x1188>
80006aa4:	0141adb3          	slt	s11,gp,s4
80006aa8:	01808433          	add	s0,ra,s8
80006aac:	574a0113          	addi	sp,s4,1396
80006ab0:	00000013          	nop
80006ab4:	4022ddb3          	sra	s11,t0,sp
80006ab8:	044b7463          	bgeu	s6,tp,80006b00 <sub_2+0x11b0>
80006abc:	036fda63          	bge	t6,s6,80006af0 <sub_2+0x11a0>
80006ac0:	0140b7b3          	sltu	a5,ra,s4
80006ac4:	0ff0000f          	fence
80006ac8:	00000013          	nop
80006acc:	044b7863          	bgeu	s6,tp,80006b1c <sub_2+0x11cc>
80006ad0:	41ae0833          	sub	a6,t3,s10
80006ad4:	c66de993          	ori	s3,s11,-922
80006ad8:	01465bb3          	srl	s7,a2,s4
80006adc:	03d09063          	bne	ra,t4,80006afc <sub_2+0x11ac>
80006ae0:	4022ddb3          	sra	s11,t0,sp
80006ae4:	01c45713          	srli	a4,s0,0x1c
80006ae8:	01431733          	sll	a4,t1,s4
80006aec:	016fd863          	bge	t6,s6,80006afc <sub_2+0x11ac>
80006af0:	00000013          	nop
80006af4:	01808433          	add	s0,ra,s8
80006af8:	01537533          	and	a0,t1,s5
80006afc:	4158d193          	srai	gp,a7,0x15
80006b00:	e5e3fb93          	andi	s7,t2,-418
80006b04:	e4ccbc97          	auipc	s9,0xe4ccb
80006b08:	4022ddb3          	sra	s11,t0,sp
80006b0c:	0072c133          	xor	sp,t0,t2
80006b10:	0ff0000f          	fence
80006b14:	e5a8cb93          	xori	s7,a7,-422
80006b18:	01808433          	add	s0,ra,s8
80006b1c:	0ff0000f          	fence
80006b20:	01431733          	sll	a4,t1,s4
80006b24:	a08c68b7          	lui	a7,0xa08c6
80006b28:	e5a8cb93          	xori	s7,a7,-422
80006b2c:	024b7863          	bgeu	s6,tp,80006b5c <sub_2+0x120c>
80006b30:	00000013          	nop
80006b34:	00d1e863          	bltu	gp,a3,80006b44 <sub_2+0x11f4>
80006b38:	0ff0000f          	fence
80006b3c:	0141adb3          	slt	s11,gp,s4
80006b40:	01808433          	add	s0,ra,s8
80006b44:	574a0113          	addi	sp,s4,1396
80006b48:	01d09c63          	bne	ra,t4,80006b60 <sub_2+0x1210>
80006b4c:	0307c263          	blt	a5,a6,80006b70 <sub_2+0x1220>
80006b50:	02d1e063          	bltu	gp,a3,80006b70 <sub_2+0x1220>
80006b54:	a08c68b7          	lui	a7,0xa08c6
80006b58:	0107ca63          	blt	a5,a6,80006b6c <sub_2+0x121c>
80006b5c:	0141adb3          	slt	s11,gp,s4
80006b60:	c66de993          	ori	s3,s11,-922
80006b64:	e5e3fb93          	andi	s7,t2,-418
80006b68:	01c45713          	srli	a4,s0,0x1c
80006b6c:	41ae0833          	sub	a6,t3,s10
80006b70:	0ff0000f          	fence
80006b74:	00d09993          	slli	s3,ra,0xd
80006b78:	00d09993          	slli	s3,ra,0xd
80006b7c:	019fe0b3          	or	ra,t6,s9
80006b80:	019fe0b3          	or	ra,t6,s9
80006b84:	574a0113          	addi	sp,s4,1396
80006b88:	dd88a013          	slti	zero,a7,-552
80006b8c:	e5a8cb93          	xori	s7,a7,-422
80006b90:	03950863          	beq	a0,s9,80006bc0 <sub_2+0x1270>
80006b94:	024b7c63          	bgeu	s6,tp,80006bcc <sub_2+0x127c>
80006b98:	e5a8cb93          	xori	s7,a7,-422
80006b9c:	0140b7b3          	sltu	a5,ra,s4
80006ba0:	0000100f          	fence.i
80006ba4:	02d1ec63          	bltu	gp,a3,80006bdc <sub_2+0x128c>
80006ba8:	e4ccbc97          	auipc	s9,0xe4ccb
80006bac:	019fe0b3          	or	ra,t6,s9
80006bb0:	00d1e863          	bltu	gp,a3,80006bc0 <sub_2+0x1270>
80006bb4:	019fe0b3          	or	ra,t6,s9
80006bb8:	e5e3fb93          	andi	s7,t2,-418
80006bbc:	a08c68b7          	lui	a7,0xa08c6
80006bc0:	00000013          	nop
80006bc4:	044b7463          	bgeu	s6,tp,80006c0c <sub_2+0x12bc>
80006bc8:	00000013          	nop
80006bcc:	a08c68b7          	lui	a7,0xa08c6
80006bd0:	4022ddb3          	sra	s11,t0,sp
80006bd4:	00d09993          	slli	s3,ra,0xd
80006bd8:	e4ccbc97          	auipc	s9,0xe4ccb
80006bdc:	01c45713          	srli	a4,s0,0x1c
80006be0:	01537533          	and	a0,t1,s5
80006be4:	bde33713          	sltiu	a4,t1,-1058
80006be8:	00d09993          	slli	s3,ra,0xd
80006bec:	4022ddb3          	sra	s11,t0,sp
80006bf0:	04d1e463          	bltu	gp,a3,80006c38 <sub_2+0x12e8>
80006bf4:	e5e3fb93          	andi	s7,t2,-418
80006bf8:	e5e3fb93          	andi	s7,t2,-418
80006bfc:	41ae0833          	sub	a6,t3,s10
80006c00:	01950e63          	beq	a0,s9,80006c1c <sub_2+0x12cc>
80006c04:	bde33713          	sltiu	a4,t1,-1058
80006c08:	01537533          	and	a0,t1,s5
80006c0c:	016fd263          	bge	t6,s6,80006c10 <sub_2+0x12c0>
80006c10:	01c45713          	srli	a4,s0,0x1c
80006c14:	00000013          	nop
80006c18:	4022ddb3          	sra	s11,t0,sp
80006c1c:	01465bb3          	srl	s7,a2,s4
80006c20:	01465bb3          	srl	s7,a2,s4
80006c24:	01808433          	add	s0,ra,s8
80006c28:	e5e3fb93          	andi	s7,t2,-418
80006c2c:	0ff0000f          	fence
80006c30:	e4ccbc97          	auipc	s9,0xe4ccb
80006c34:	01d09e63          	bne	ra,t4,80006c50 <sub_2+0x1300>
80006c38:	019fe0b3          	or	ra,t6,s9
80006c3c:	dd88a013          	slti	zero,a7,-552
80006c40:	01c45713          	srli	a4,s0,0x1c
80006c44:	01950863          	beq	a0,s9,80006c54 <sub_2+0x1304>
80006c48:	00d09993          	slli	s3,ra,0xd
80006c4c:	bde33713          	sltiu	a4,t1,-1058
80006c50:	00d09993          	slli	s3,ra,0xd
80006c54:	01808433          	add	s0,ra,s8
80006c58:	019fe0b3          	or	ra,t6,s9
80006c5c:	01465bb3          	srl	s7,a2,s4
80006c60:	bde33713          	sltiu	a4,t1,-1058
80006c64:	0072c133          	xor	sp,t0,t2
80006c68:	00d09993          	slli	s3,ra,0xd
80006c6c:	c66de993          	ori	s3,s11,-922
80006c70:	01c45713          	srli	a4,s0,0x1c
80006c74:	024b7263          	bgeu	s6,tp,80006c98 <sub_2+0x1348>
80006c78:	019fe0b3          	or	ra,t6,s9
80006c7c:	dd88a013          	slti	zero,a7,-552
80006c80:	4158d193          	srai	gp,a7,0x15
80006c84:	bde33713          	sltiu	a4,t1,-1058
80006c88:	4022ddb3          	sra	s11,t0,sp
80006c8c:	01465bb3          	srl	s7,a2,s4
80006c90:	0140b7b3          	sltu	a5,ra,s4
80006c94:	41ae0833          	sub	a6,t3,s10
80006c98:	4158d193          	srai	gp,a7,0x15
80006c9c:	0000100f          	fence.i
80006ca0:	41ae0833          	sub	a6,t3,s10
80006ca4:	c66de993          	ori	s3,s11,-922
80006ca8:	e5a8cb93          	xori	s7,a7,-422
80006cac:	01808433          	add	s0,ra,s8
80006cb0:	e5e3fb93          	andi	s7,t2,-418
80006cb4:	574a0113          	addi	sp,s4,1396
80006cb8:	019fe0b3          	or	ra,t6,s9
80006cbc:	41ae0833          	sub	a6,t3,s10
80006cc0:	41ae0833          	sub	a6,t3,s10
80006cc4:	41ae0833          	sub	a6,t3,s10
80006cc8:	05d09663          	bne	ra,t4,80006d14 <sub_2+0x13c4>
80006ccc:	019fe0b3          	or	ra,t6,s9
80006cd0:	0307ce63          	blt	a5,a6,80006d0c <sub_2+0x13bc>
80006cd4:	02d1e263          	bltu	gp,a3,80006cf8 <sub_2+0x13a8>
80006cd8:	e5a8cb93          	xori	s7,a7,-422
80006cdc:	e5a8cb93          	xori	s7,a7,-422
80006ce0:	05d09263          	bne	ra,t4,80006d24 <sub_2+0x13d4>
80006ce4:	00000013          	nop
80006ce8:	044b7263          	bgeu	s6,tp,80006d2c <sub_2+0x13dc>
80006cec:	04d1e063          	bltu	gp,a3,80006d2c <sub_2+0x13dc>
80006cf0:	a08c68b7          	lui	a7,0xa08c6
80006cf4:	e5e3fb93          	andi	s7,t2,-418
80006cf8:	044b7863          	bgeu	s6,tp,80006d48 <sub_2+0x13f8>
80006cfc:	01537533          	and	a0,t1,s5
80006d00:	4158d193          	srai	gp,a7,0x15
80006d04:	0ff0000f          	fence
80006d08:	00d09993          	slli	s3,ra,0xd
80006d0c:	01808433          	add	s0,ra,s8
80006d10:	0ff0000f          	fence
80006d14:	00000013          	nop
80006d18:	e4ccbc97          	auipc	s9,0xe4ccb
80006d1c:	019fe0b3          	or	ra,t6,s9
80006d20:	036fda63          	bge	t6,s6,80006d54 <sub_2+0x1404>
80006d24:	02d1e663          	bltu	gp,a3,80006d50 <sub_2+0x1400>
80006d28:	e5a8cb93          	xori	s7,a7,-422
80006d2c:	01c45713          	srli	a4,s0,0x1c
80006d30:	036fd863          	bge	t6,s6,80006d60 <sub_2+0x1410>
80006d34:	0ff0000f          	fence
80006d38:	e5e3fb93          	andi	s7,t2,-418
80006d3c:	01431733          	sll	a4,t1,s4
80006d40:	05d09063          	bne	ra,t4,80006d80 <sub_2+0x1430>
80006d44:	01537533          	and	a0,t1,s5
80006d48:	00000013          	nop
80006d4c:	0141adb3          	slt	s11,gp,s4
80006d50:	41ae0833          	sub	a6,t3,s10
80006d54:	c66de993          	ori	s3,s11,-922
80006d58:	01808433          	add	s0,ra,s8
80006d5c:	01808433          	add	s0,ra,s8
80006d60:	0140b7b3          	sltu	a5,ra,s4
80006d64:	00000013          	nop
80006d68:	01537533          	and	a0,t1,s5
80006d6c:	0107ce63          	blt	a5,a6,80006d88 <sub_2+0x1438>
80006d70:	4022ddb3          	sra	s11,t0,sp
80006d74:	00d09993          	slli	s3,ra,0xd
80006d78:	01537533          	and	a0,t1,s5
80006d7c:	0107ce63          	blt	a5,a6,80006d98 <sub_2+0x1448>
80006d80:	dd88a013          	slti	zero,a7,-552
80006d84:	e4ccbc97          	auipc	s9,0xe4ccb
80006d88:	bde33713          	sltiu	a4,t1,-1058
80006d8c:	01465bb3          	srl	s7,a2,s4
80006d90:	41ae0833          	sub	a6,t3,s10
80006d94:	0507c063          	blt	a5,a6,80006dd4 <sub_2+0x1484>
80006d98:	574a0113          	addi	sp,s4,1396
80006d9c:	e4ccbc97          	auipc	s9,0xe4ccb
80006da0:	019fe0b3          	or	ra,t6,s9
80006da4:	01808433          	add	s0,ra,s8
80006da8:	574a0113          	addi	sp,s4,1396
80006dac:	c66de993          	ori	s3,s11,-922
80006db0:	00d09993          	slli	s3,ra,0xd
80006db4:	0140b7b3          	sltu	a5,ra,s4
80006db8:	01537533          	and	a0,t1,s5
80006dbc:	01465bb3          	srl	s7,a2,s4
80006dc0:	0507c663          	blt	a5,a6,80006e0c <sub_2+0x14bc>
80006dc4:	a08c68b7          	lui	a7,0xa08c6
80006dc8:	01465bb3          	srl	s7,a2,s4
80006dcc:	41ae0833          	sub	a6,t3,s10
80006dd0:	c66de993          	ori	s3,s11,-922
80006dd4:	01950c63          	beq	a0,s9,80006dec <sub_2+0x149c>
80006dd8:	0ff0000f          	fence
80006ddc:	00000013          	nop
80006de0:	0141adb3          	slt	s11,gp,s4
80006de4:	4022ddb3          	sra	s11,t0,sp
80006de8:	01537533          	and	a0,t1,s5
80006dec:	e5e3fb93          	andi	s7,t2,-418
80006df0:	024b7063          	bgeu	s6,tp,80006e10 <sub_2+0x14c0>
80006df4:	a08c68b7          	lui	a7,0xa08c6
80006df8:	e5e3fb93          	andi	s7,t2,-418
80006dfc:	01465bb3          	srl	s7,a2,s4
80006e00:	0ff0000f          	fence
80006e04:	0141adb3          	slt	s11,gp,s4
80006e08:	05950463          	beq	a0,s9,80006e50 <sub_2+0x1500>
80006e0c:	4022ddb3          	sra	s11,t0,sp
80006e10:	03950263          	beq	a0,s9,80006e34 <sub_2+0x14e4>
80006e14:	e4ccbc97          	auipc	s9,0xe4ccb
80006e18:	41ae0833          	sub	a6,t3,s10
80006e1c:	0000100f          	fence.i
80006e20:	05d09063          	bne	ra,t4,80006e60 <sub_2+0x1510>
80006e24:	024b7863          	bgeu	s6,tp,80006e54 <sub_2+0x1504>
80006e28:	e4ccbc97          	auipc	s9,0xe4ccb
80006e2c:	e5a8cb93          	xori	s7,a7,-422
80006e30:	dd88a013          	slti	zero,a7,-552
80006e34:	01808433          	add	s0,ra,s8
80006e38:	0140b7b3          	sltu	a5,ra,s4
80006e3c:	024b7e63          	bgeu	s6,tp,80006e78 <sub_2+0x1528>
80006e40:	00000013          	nop
80006e44:	0000100f          	fence.i
80006e48:	e5a8cb93          	xori	s7,a7,-422
80006e4c:	dd88a013          	slti	zero,a7,-552
80006e50:	bde33713          	sltiu	a4,t1,-1058
80006e54:	01431733          	sll	a4,t1,s4
80006e58:	a08c68b7          	lui	a7,0xa08c6
80006e5c:	574a0113          	addi	sp,s4,1396
80006e60:	c66de993          	ori	s3,s11,-922
80006e64:	4022ddb3          	sra	s11,t0,sp
80006e68:	574a0113          	addi	sp,s4,1396
80006e6c:	019fe0b3          	or	ra,t6,s9
80006e70:	0141adb3          	slt	s11,gp,s4
80006e74:	00d09993          	slli	s3,ra,0xd
80006e78:	019fe0b3          	or	ra,t6,s9
80006e7c:	00d09993          	slli	s3,ra,0xd
80006e80:	01808433          	add	s0,ra,s8
80006e84:	e5a8cb93          	xori	s7,a7,-422
80006e88:	01537533          	and	a0,t1,s5
80006e8c:	4022ddb3          	sra	s11,t0,sp
80006e90:	0000100f          	fence.i
80006e94:	01537533          	and	a0,t1,s5
80006e98:	01d09863          	bne	ra,t4,80006ea8 <sub_2+0x1558>
80006e9c:	0140b7b3          	sltu	a5,ra,s4
80006ea0:	00d09993          	slli	s3,ra,0xd
80006ea4:	05950863          	beq	a0,s9,80006ef4 <sub_2+0x15a4>
80006ea8:	0140b7b3          	sltu	a5,ra,s4
80006eac:	41ae0833          	sub	a6,t3,s10
80006eb0:	01d09263          	bne	ra,t4,80006eb4 <sub_2+0x1564>
80006eb4:	574a0113          	addi	sp,s4,1396
80006eb8:	01c45713          	srli	a4,s0,0x1c
80006ebc:	4022ddb3          	sra	s11,t0,sp
80006ec0:	016fdc63          	bge	t6,s6,80006ed8 <sub_2+0x1588>
80006ec4:	0141adb3          	slt	s11,gp,s4
80006ec8:	036fd863          	bge	t6,s6,80006ef8 <sub_2+0x15a8>
80006ecc:	41ae0833          	sub	a6,t3,s10
80006ed0:	01c45713          	srli	a4,s0,0x1c
80006ed4:	c66de993          	ori	s3,s11,-922
80006ed8:	4158d193          	srai	gp,a7,0x15
80006edc:	02d1e063          	bltu	gp,a3,80006efc <sub_2+0x15ac>
80006ee0:	e5e3fb93          	andi	s7,t2,-418
80006ee4:	a08c68b7          	lui	a7,0xa08c6
80006ee8:	0140b7b3          	sltu	a5,ra,s4
80006eec:	019fe0b3          	or	ra,t6,s9
80006ef0:	01c45713          	srli	a4,s0,0x1c
80006ef4:	00000013          	nop
80006ef8:	01808433          	add	s0,ra,s8
80006efc:	4158d193          	srai	gp,a7,0x15
80006f00:	4158d193          	srai	gp,a7,0x15
80006f04:	0ff0000f          	fence
80006f08:	00000013          	nop
80006f0c:	036fd663          	bge	t6,s6,80006f38 <sub_2+0x15e8>
80006f10:	036fdc63          	bge	t6,s6,80006f48 <sub_2+0x15f8>
80006f14:	bde33713          	sltiu	a4,t1,-1058
80006f18:	bde33713          	sltiu	a4,t1,-1058
80006f1c:	4158d193          	srai	gp,a7,0x15
80006f20:	574a0113          	addi	sp,s4,1396
80006f24:	01808433          	add	s0,ra,s8
80006f28:	0072c133          	xor	sp,t0,t2
80006f2c:	574a0113          	addi	sp,s4,1396
80006f30:	0141adb3          	slt	s11,gp,s4
80006f34:	dd88a013          	slti	zero,a7,-552
80006f38:	00000013          	nop
80006f3c:	e5a8cb93          	xori	s7,a7,-422
80006f40:	0140b7b3          	sltu	a5,ra,s4
80006f44:	41ae0833          	sub	a6,t3,s10
80006f48:	056fd063          	bge	t6,s6,80006f88 <sub_2+0x1638>
80006f4c:	0ff0000f          	fence
80006f50:	dd88a013          	slti	zero,a7,-552
80006f54:	4158d193          	srai	gp,a7,0x15
80006f58:	dd88a013          	slti	zero,a7,-552
80006f5c:	c66de993          	ori	s3,s11,-922
80006f60:	e5a8cb93          	xori	s7,a7,-422
80006f64:	4022ddb3          	sra	s11,t0,sp
80006f68:	00000013          	nop
80006f6c:	01808433          	add	s0,ra,s8
80006f70:	01950e63          	beq	a0,s9,80006f8c <sub_2+0x163c>
80006f74:	0000100f          	fence.i
80006f78:	e4ccbc97          	auipc	s9,0xe4ccb
80006f7c:	4158d193          	srai	gp,a7,0x15
80006f80:	0ff0000f          	fence
80006f84:	00d09993          	slli	s3,ra,0xd
80006f88:	bde33713          	sltiu	a4,t1,-1058
80006f8c:	019fe0b3          	or	ra,t6,s9
80006f90:	4158d193          	srai	gp,a7,0x15
80006f94:	0000100f          	fence.i
80006f98:	05950663          	beq	a0,s9,80006fe4 <sub_2+0x1694>
80006f9c:	016fda63          	bge	t6,s6,80006fb0 <sub_2+0x1660>
80006fa0:	0141adb3          	slt	s11,gp,s4
80006fa4:	0140b7b3          	sltu	a5,ra,s4
80006fa8:	a08c68b7          	lui	a7,0xa08c6
80006fac:	41ae0833          	sub	a6,t3,s10
80006fb0:	a08c68b7          	lui	a7,0xa08c6
80006fb4:	02d1ec63          	bltu	gp,a3,80006fec <sub_2+0x169c>
80006fb8:	4022ddb3          	sra	s11,t0,sp
80006fbc:	016fde63          	bge	t6,s6,80006fd8 <sub_2+0x1688>
80006fc0:	0140b7b3          	sltu	a5,ra,s4
80006fc4:	004b7863          	bgeu	s6,tp,80006fd4 <sub_2+0x1684>
80006fc8:	03950263          	beq	a0,s9,80006fec <sub_2+0x169c>
80006fcc:	00d09993          	slli	s3,ra,0xd
80006fd0:	574a0113          	addi	sp,s4,1396
80006fd4:	e5e3fb93          	andi	s7,t2,-418
80006fd8:	0140b7b3          	sltu	a5,ra,s4
80006fdc:	4158d193          	srai	gp,a7,0x15
80006fe0:	a08c68b7          	lui	a7,0xa08c6
80006fe4:	01808433          	add	s0,ra,s8
80006fe8:	036fd063          	bge	t6,s6,80007008 <sub_2+0x16b8>
80006fec:	0141adb3          	slt	s11,gp,s4
80006ff0:	01537533          	and	a0,t1,s5
80006ff4:	0507c663          	blt	a5,a6,80007040 <sub_2+0x16f0>
80006ff8:	e5e3fb93          	andi	s7,t2,-418
80006ffc:	01431733          	sll	a4,t1,s4
80007000:	c66de993          	ori	s3,s11,-922
80007004:	05950063          	beq	a0,s9,80007044 <sub_2+0x16f4>
80007008:	01d09e63          	bne	ra,t4,80007024 <sub_2+0x16d4>
8000700c:	a08c68b7          	lui	a7,0xa08c6
80007010:	c66de993          	ori	s3,s11,-922
80007014:	01c45713          	srli	a4,s0,0x1c
80007018:	00d09993          	slli	s3,ra,0xd
8000701c:	01808433          	add	s0,ra,s8
80007020:	e5a8cb93          	xori	s7,a7,-422
80007024:	01465bb3          	srl	s7,a2,s4
80007028:	01808433          	add	s0,ra,s8
8000702c:	0140b7b3          	sltu	a5,ra,s4
80007030:	01431733          	sll	a4,t1,s4
80007034:	0107ce63          	blt	a5,a6,80007050 <sub_2+0x1700>
80007038:	0141adb3          	slt	s11,gp,s4
8000703c:	01431733          	sll	a4,t1,s4
80007040:	00d09993          	slli	s3,ra,0xd
80007044:	574a0113          	addi	sp,s4,1396
80007048:	044b7463          	bgeu	s6,tp,80007090 <sub_2+0x1740>
8000704c:	056fd263          	bge	t6,s6,80007090 <sub_2+0x1740>
80007050:	e5e3fb93          	andi	s7,t2,-418
80007054:	0ff0000f          	fence
80007058:	0141adb3          	slt	s11,gp,s4
8000705c:	00000013          	nop
80007060:	e5a8cb93          	xori	s7,a7,-422
80007064:	0307ca63          	blt	a5,a6,80007098 <sub_2+0x1748>
80007068:	bde33713          	sltiu	a4,t1,-1058
8000706c:	00d09993          	slli	s3,ra,0xd
80007070:	574a0113          	addi	sp,s4,1396
80007074:	0140b7b3          	sltu	a5,ra,s4
80007078:	01537533          	and	a0,t1,s5
8000707c:	e4ccbc97          	auipc	s9,0xe4ccb
80007080:	0072c133          	xor	sp,t0,t2
80007084:	05950263          	beq	a0,s9,800070c8 <sub_2+0x1778>
80007088:	bde33713          	sltiu	a4,t1,-1058
8000708c:	0000100f          	fence.i
80007090:	bde33713          	sltiu	a4,t1,-1058
80007094:	0140b7b3          	sltu	a5,ra,s4
80007098:	0000100f          	fence.i
8000709c:	e5a8cb93          	xori	s7,a7,-422
800070a0:	dd88a013          	slti	zero,a7,-552
800070a4:	574a0113          	addi	sp,s4,1396
800070a8:	41ae0833          	sub	a6,t3,s10
800070ac:	dd88a013          	slti	zero,a7,-552
800070b0:	41ae0833          	sub	a6,t3,s10
800070b4:	00d09993          	slli	s3,ra,0xd
800070b8:	01537533          	and	a0,t1,s5
800070bc:	01465bb3          	srl	s7,a2,s4
800070c0:	c66de993          	ori	s3,s11,-922
800070c4:	c66de993          	ori	s3,s11,-922
800070c8:	01537533          	and	a0,t1,s5
800070cc:	0140b7b3          	sltu	a5,ra,s4
800070d0:	0507c663          	blt	a5,a6,8000711c <sub_2+0x17cc>
800070d4:	0307cc63          	blt	a5,a6,8000710c <sub_2+0x17bc>
800070d8:	4158d193          	srai	gp,a7,0x15
800070dc:	03950263          	beq	a0,s9,80007100 <sub_2+0x17b0>
800070e0:	0140b7b3          	sltu	a5,ra,s4
800070e4:	c66de993          	ori	s3,s11,-922
800070e8:	4158d193          	srai	gp,a7,0x15
800070ec:	0140b7b3          	sltu	a5,ra,s4
800070f0:	e5a8cb93          	xori	s7,a7,-422
800070f4:	e5a8cb93          	xori	s7,a7,-422
800070f8:	05950063          	beq	a0,s9,80007138 <sub_2+0x17e8>
800070fc:	019fe0b3          	or	ra,t6,s9
80007100:	e5e3fb93          	andi	s7,t2,-418
80007104:	c66de993          	ori	s3,s11,-922
80007108:	0107cc63          	blt	a5,a6,80007120 <sub_2+0x17d0>
8000710c:	bde33713          	sltiu	a4,t1,-1058
80007110:	01808433          	add	s0,ra,s8
80007114:	0ff0000f          	fence
80007118:	e4ccbc97          	auipc	s9,0xe4ccb
8000711c:	00d1ee63          	bltu	gp,a3,80007138 <sub_2+0x17e8>
80007120:	05950263          	beq	a0,s9,80007164 <sub_2+0x1814>
80007124:	0140b7b3          	sltu	a5,ra,s4
80007128:	01431733          	sll	a4,t1,s4
8000712c:	dd88a013          	slti	zero,a7,-552
80007130:	01537533          	and	a0,t1,s5
80007134:	e5a8cb93          	xori	s7,a7,-422
80007138:	01808433          	add	s0,ra,s8
8000713c:	0141adb3          	slt	s11,gp,s4
80007140:	04d1e663          	bltu	gp,a3,8000718c <sub_2+0x183c>
80007144:	01431733          	sll	a4,t1,s4
80007148:	574a0113          	addi	sp,s4,1396
8000714c:	01431733          	sll	a4,t1,s4
80007150:	e5a8cb93          	xori	s7,a7,-422
80007154:	0507c263          	blt	a5,a6,80007198 <sub_2+0x1848>
80007158:	0307cc63          	blt	a5,a6,80007190 <sub_2+0x1840>
8000715c:	01808433          	add	s0,ra,s8
80007160:	00d09993          	slli	s3,ra,0xd
80007164:	05950463          	beq	a0,s9,800071ac <sub_2+0x185c>
80007168:	e4ccbc97          	auipc	s9,0xe4ccb
8000716c:	e5a8cb93          	xori	s7,a7,-422
80007170:	019fe0b3          	or	ra,t6,s9
80007174:	01537533          	and	a0,t1,s5
80007178:	0072c133          	xor	sp,t0,t2
8000717c:	4158d193          	srai	gp,a7,0x15
80007180:	e5a8cb93          	xori	s7,a7,-422
80007184:	bde33713          	sltiu	a4,t1,-1058
80007188:	41ae0833          	sub	a6,t3,s10
8000718c:	c66de993          	ori	s3,s11,-922
80007190:	4158d193          	srai	gp,a7,0x15
80007194:	01431733          	sll	a4,t1,s4
80007198:	0140b7b3          	sltu	a5,ra,s4
8000719c:	574a0113          	addi	sp,s4,1396
800071a0:	e5e3fb93          	andi	s7,t2,-418
800071a4:	bde33713          	sltiu	a4,t1,-1058
800071a8:	bde33713          	sltiu	a4,t1,-1058
800071ac:	e4ccbc97          	auipc	s9,0xe4ccb
800071b0:	056fd063          	bge	t6,s6,800071f0 <sub_2+0x18a0>
800071b4:	00d09993          	slli	s3,ra,0xd
800071b8:	00000013          	nop
800071bc:	01808433          	add	s0,ra,s8
800071c0:	00d09993          	slli	s3,ra,0xd
800071c4:	e5a8cb93          	xori	s7,a7,-422
800071c8:	e5e3fb93          	andi	s7,t2,-418
800071cc:	036fde63          	bge	t6,s6,80007208 <sub_2+0x18b8>
800071d0:	00000013          	nop
800071d4:	01808433          	add	s0,ra,s8
800071d8:	019fe0b3          	or	ra,t6,s9
800071dc:	c66de993          	ori	s3,s11,-922
800071e0:	01431733          	sll	a4,t1,s4
800071e4:	bde33713          	sltiu	a4,t1,-1058
800071e8:	e4ccbc97          	auipc	s9,0xe4ccb
800071ec:	0072c133          	xor	sp,t0,t2
800071f0:	a08c68b7          	lui	a7,0xa08c6
800071f4:	0107ce63          	blt	a5,a6,80007210 <sub_2+0x18c0>
800071f8:	0140b7b3          	sltu	a5,ra,s4
800071fc:	0072c133          	xor	sp,t0,t2
80007200:	00000013          	nop
80007204:	01c45713          	srli	a4,s0,0x1c
80007208:	574a0113          	addi	sp,s4,1396
8000720c:	0140b7b3          	sltu	a5,ra,s4
80007210:	01950a63          	beq	a0,s9,80007224 <sub_2+0x18d4>
80007214:	0107ce63          	blt	a5,a6,80007230 <sub_2+0x18e0>
80007218:	0141adb3          	slt	s11,gp,s4
8000721c:	4158d193          	srai	gp,a7,0x15
80007220:	a08c68b7          	lui	a7,0xa08c6
80007224:	574a0113          	addi	sp,s4,1396
80007228:	00d09993          	slli	s3,ra,0xd
8000722c:	a08c68b7          	lui	a7,0xa08c6
80007230:	e5e3fb93          	andi	s7,t2,-418
80007234:	03d09663          	bne	ra,t4,80007260 <sub_2+0x1910>
80007238:	0141adb3          	slt	s11,gp,s4
8000723c:	00000013          	nop
80007240:	0140b7b3          	sltu	a5,ra,s4
80007244:	0141adb3          	slt	s11,gp,s4
80007248:	4022ddb3          	sra	s11,t0,sp
8000724c:	c66de993          	ori	s3,s11,-922
80007250:	e5a8cb93          	xori	s7,a7,-422
80007254:	bde33713          	sltiu	a4,t1,-1058
80007258:	04d1e463          	bltu	gp,a3,800072a0 <sub_2+0x1950>
8000725c:	0000100f          	fence.i
80007260:	0ff0000f          	fence
80007264:	4022ddb3          	sra	s11,t0,sp
80007268:	0000100f          	fence.i
8000726c:	00000013          	nop
80007270:	4158d193          	srai	gp,a7,0x15
80007274:	0107c263          	blt	a5,a6,80007278 <sub_2+0x1928>
80007278:	574a0113          	addi	sp,s4,1396
8000727c:	024b7863          	bgeu	s6,tp,800072ac <sub_2+0x195c>
80007280:	e5a8cb93          	xori	s7,a7,-422
80007284:	a08c68b7          	lui	a7,0xa08c6
80007288:	0ff0000f          	fence
8000728c:	4022ddb3          	sra	s11,t0,sp
80007290:	4022ddb3          	sra	s11,t0,sp
80007294:	01537533          	and	a0,t1,s5
80007298:	e5e3fb93          	andi	s7,t2,-418
8000729c:	04d1e063          	bltu	gp,a3,800072dc <sub_2+0x198c>
800072a0:	4022ddb3          	sra	s11,t0,sp
800072a4:	00d09993          	slli	s3,ra,0xd
800072a8:	024b7a63          	bgeu	s6,tp,800072dc <sub_2+0x198c>
800072ac:	e5e3fb93          	andi	s7,t2,-418
800072b0:	574a0113          	addi	sp,s4,1396
800072b4:	4158d193          	srai	gp,a7,0x15
800072b8:	00d1e863          	bltu	gp,a3,800072c8 <sub_2+0x1978>
800072bc:	bde33713          	sltiu	a4,t1,-1058
800072c0:	01431733          	sll	a4,t1,s4
800072c4:	01465bb3          	srl	s7,a2,s4
800072c8:	01431733          	sll	a4,t1,s4
800072cc:	0107ce63          	blt	a5,a6,800072e8 <sub_2+0x1998>
800072d0:	01537533          	and	a0,t1,s5
800072d4:	a08c68b7          	lui	a7,0xa08c6
800072d8:	02d1e063          	bltu	gp,a3,800072f8 <sub_2+0x19a8>
800072dc:	e5a8cb93          	xori	s7,a7,-422
800072e0:	c66de993          	ori	s3,s11,-922
800072e4:	4022ddb3          	sra	s11,t0,sp
800072e8:	e5e3fb93          	andi	s7,t2,-418
800072ec:	04d1e863          	bltu	gp,a3,8000733c <sub_2+0x19ec>
800072f0:	00d1e863          	bltu	gp,a3,80007300 <sub_2+0x19b0>
800072f4:	a08c68b7          	lui	a7,0xa08c6
800072f8:	00d09993          	slli	s3,ra,0xd
800072fc:	02d1e063          	bltu	gp,a3,8000731c <sub_2+0x19cc>
80007300:	019fe0b3          	or	ra,t6,s9
80007304:	00000013          	nop
80007308:	024b7263          	bgeu	s6,tp,8000732c <sub_2+0x19dc>
8000730c:	e5e3fb93          	andi	s7,t2,-418
80007310:	01465bb3          	srl	s7,a2,s4
80007314:	4022ddb3          	sra	s11,t0,sp
80007318:	0140b7b3          	sltu	a5,ra,s4
8000731c:	03950863          	beq	a0,s9,8000734c <sub_2+0x19fc>
80007320:	4022ddb3          	sra	s11,t0,sp
80007324:	01808433          	add	s0,ra,s8
80007328:	01d09e63          	bne	ra,t4,80007344 <sub_2+0x19f4>
8000732c:	0000100f          	fence.i
80007330:	01950863          	beq	a0,s9,80007340 <sub_2+0x19f0>
80007334:	e5e3fb93          	andi	s7,t2,-418
80007338:	0141adb3          	slt	s11,gp,s4
8000733c:	dd88a013          	slti	zero,a7,-552
80007340:	c66de993          	ori	s3,s11,-922
80007344:	a08c68b7          	lui	a7,0xa08c6
80007348:	02d1e863          	bltu	gp,a3,80007378 <sub_2+0x1a28>
8000734c:	4158d193          	srai	gp,a7,0x15
80007350:	574a0113          	addi	sp,s4,1396
80007354:	024b7c63          	bgeu	s6,tp,8000738c <sub_2+0x1a3c>
80007358:	02d1ee63          	bltu	gp,a3,80007394 <sub_2+0x1a44>
8000735c:	036fd863          	bge	t6,s6,8000738c <sub_2+0x1a3c>
80007360:	01537533          	and	a0,t1,s5
80007364:	03950c63          	beq	a0,s9,8000739c <sub_2+0x1a4c>
80007368:	01431733          	sll	a4,t1,s4
8000736c:	a08c68b7          	lui	a7,0xa08c6
80007370:	01c45713          	srli	a4,s0,0x1c
80007374:	c66de993          	ori	s3,s11,-922
80007378:	05d09063          	bne	ra,t4,800073b8 <sub_2+0x1a68>
8000737c:	01c45713          	srli	a4,s0,0x1c
80007380:	036fda63          	bge	t6,s6,800073b4 <sub_2+0x1a64>
80007384:	a08c68b7          	lui	a7,0xa08c6
80007388:	41ae0833          	sub	a6,t3,s10
8000738c:	41ae0833          	sub	a6,t3,s10
80007390:	016fde63          	bge	t6,s6,800073ac <sub_2+0x1a5c>
80007394:	056fd663          	bge	t6,s6,800073e0 <sub_2+0x1a90>
80007398:	e5a8cb93          	xori	s7,a7,-422
8000739c:	e4ccbc97          	auipc	s9,0xe4ccb
800073a0:	e4ccbc97          	auipc	s9,0xe4ccb
800073a4:	e4ccbc97          	auipc	s9,0xe4ccb
800073a8:	c66de993          	ori	s3,s11,-922
800073ac:	dd88a013          	slti	zero,a7,-552
800073b0:	0507c663          	blt	a5,a6,800073fc <sub_2+0x1aac>
800073b4:	01465bb3          	srl	s7,a2,s4
800073b8:	01c45713          	srli	a4,s0,0x1c
800073bc:	0140b7b3          	sltu	a5,ra,s4
800073c0:	00000013          	nop
800073c4:	0000100f          	fence.i
800073c8:	e5a8cb93          	xori	s7,a7,-422
800073cc:	e5a8cb93          	xori	s7,a7,-422
800073d0:	01808433          	add	s0,ra,s8
800073d4:	00d09993          	slli	s3,ra,0xd
800073d8:	0ff0000f          	fence
800073dc:	05950463          	beq	a0,s9,80007424 <sub_2+0x1ad4>
800073e0:	41ae0833          	sub	a6,t3,s10
800073e4:	0507c263          	blt	a5,a6,80007428 <sub_2+0x1ad8>
800073e8:	01465bb3          	srl	s7,a2,s4
800073ec:	bde33713          	sltiu	a4,t1,-1058
800073f0:	574a0113          	addi	sp,s4,1396
800073f4:	04d1e063          	bltu	gp,a3,80007434 <sub_2+0x1ae4>
800073f8:	0140b7b3          	sltu	a5,ra,s4
800073fc:	a08c68b7          	lui	a7,0xa08c6
80007400:	04d1e463          	bltu	gp,a3,80007448 <sub_2+0x1af8>
80007404:	0107ca63          	blt	a5,a6,80007418 <sub_2+0x1ac8>
80007408:	01465bb3          	srl	s7,a2,s4
8000740c:	0000100f          	fence.i
80007410:	01431733          	sll	a4,t1,s4
80007414:	0072c133          	xor	sp,t0,t2
80007418:	0141adb3          	slt	s11,gp,s4
8000741c:	574a0113          	addi	sp,s4,1396
80007420:	0072c133          	xor	sp,t0,t2
80007424:	4158d193          	srai	gp,a7,0x15
80007428:	bde33713          	sltiu	a4,t1,-1058
8000742c:	4022ddb3          	sra	s11,t0,sp
80007430:	01537533          	and	a0,t1,s5
80007434:	0140b7b3          	sltu	a5,ra,s4
80007438:	e5a8cb93          	xori	s7,a7,-422
8000743c:	00d1ee63          	bltu	gp,a3,80007458 <sub_2+0x1b08>
80007440:	574a0113          	addi	sp,s4,1396
80007444:	024b7263          	bgeu	s6,tp,80007468 <sub_2+0x1b18>
80007448:	c66de993          	ori	s3,s11,-922
8000744c:	036fd263          	bge	t6,s6,80007470 <sub_2+0x1b20>
80007450:	056fd863          	bge	t6,s6,800074a0 <sub_2+0x1b50>
80007454:	01c45713          	srli	a4,s0,0x1c
80007458:	0107ce63          	blt	a5,a6,80007474 <sub_2+0x1b24>
8000745c:	0140b7b3          	sltu	a5,ra,s4
80007460:	01537533          	and	a0,t1,s5
80007464:	01465bb3          	srl	s7,a2,s4
80007468:	019fe0b3          	or	ra,t6,s9
8000746c:	00000013          	nop
80007470:	056fd263          	bge	t6,s6,800074b4 <sub_2+0x1b64>
80007474:	4158d193          	srai	gp,a7,0x15
80007478:	01537533          	and	a0,t1,s5
8000747c:	01431733          	sll	a4,t1,s4
80007480:	0ff0000f          	fence
80007484:	41ae0833          	sub	a6,t3,s10
80007488:	0ff0000f          	fence
8000748c:	01431733          	sll	a4,t1,s4
80007490:	01950863          	beq	a0,s9,800074a0 <sub_2+0x1b50>
80007494:	0507c063          	blt	a5,a6,800074d4 <sub_2+0x1b84>
80007498:	03950663          	beq	a0,s9,800074c4 <sub_2+0x1b74>
8000749c:	e4ccbc97          	auipc	s9,0xe4ccb
800074a0:	00000013          	nop
800074a4:	0140b7b3          	sltu	a5,ra,s4
800074a8:	036fd063          	bge	t6,s6,800074c8 <sub_2+0x1b78>
800074ac:	01537533          	and	a0,t1,s5
800074b0:	02d1e063          	bltu	gp,a3,800074d0 <sub_2+0x1b80>
800074b4:	0000100f          	fence.i
800074b8:	41ae0833          	sub	a6,t3,s10
800074bc:	0ff0000f          	fence
800074c0:	4022ddb3          	sra	s11,t0,sp
800074c4:	01465bb3          	srl	s7,a2,s4
800074c8:	a08c68b7          	lui	a7,0xa08c6
800074cc:	dd88a013          	slti	zero,a7,-552
800074d0:	0072c133          	xor	sp,t0,t2
800074d4:	0107cc63          	blt	a5,a6,800074ec <sub_2+0x1b9c>
800074d8:	a08c68b7          	lui	a7,0xa08c6
800074dc:	00d09993          	slli	s3,ra,0xd
800074e0:	019fe0b3          	or	ra,t6,s9
800074e4:	0072c133          	xor	sp,t0,t2
800074e8:	01465bb3          	srl	s7,a2,s4
800074ec:	01808433          	add	s0,ra,s8
800074f0:	01c45713          	srli	a4,s0,0x1c
800074f4:	0ff0000f          	fence
800074f8:	0141adb3          	slt	s11,gp,s4
800074fc:	0ff0000f          	fence
80007500:	01537533          	and	a0,t1,s5
80007504:	01950263          	beq	a0,s9,80007508 <sub_2+0x1bb8>
80007508:	c66de993          	ori	s3,s11,-922
8000750c:	00000013          	nop
80007510:	05d09663          	bne	ra,t4,8000755c <sub_2+0x1c0c>
80007514:	01431733          	sll	a4,t1,s4
80007518:	c66de993          	ori	s3,s11,-922
8000751c:	044b7463          	bgeu	s6,tp,80007564 <sub_2+0x1c14>
80007520:	0141adb3          	slt	s11,gp,s4
80007524:	0072c133          	xor	sp,t0,t2
80007528:	044b7063          	bgeu	s6,tp,80007568 <sub_2+0x1c18>
8000752c:	a08c68b7          	lui	a7,0xa08c6
80007530:	0507c263          	blt	a5,a6,80007574 <sub_2+0x1c24>
80007534:	574a0113          	addi	sp,s4,1396
80007538:	4022ddb3          	sra	s11,t0,sp
8000753c:	05d09463          	bne	ra,t4,80007584 <sub_2+0x1c34>
80007540:	574a0113          	addi	sp,s4,1396
80007544:	0072c133          	xor	sp,t0,t2
80007548:	0307c663          	blt	a5,a6,80007574 <sub_2+0x1c24>
8000754c:	0107c863          	blt	a5,a6,8000755c <sub_2+0x1c0c>
80007550:	41ae0833          	sub	a6,t3,s10
80007554:	a08c68b7          	lui	a7,0xa08c6
80007558:	41ae0833          	sub	a6,t3,s10
8000755c:	574a0113          	addi	sp,s4,1396
80007560:	0ff0000f          	fence
80007564:	e4ccbc97          	auipc	s9,0xe4ccb
80007568:	e4ccbc97          	auipc	s9,0xe4ccb
8000756c:	0140b7b3          	sltu	a5,ra,s4
80007570:	e5a8cb93          	xori	s7,a7,-422
80007574:	0140b7b3          	sltu	a5,ra,s4
80007578:	4022ddb3          	sra	s11,t0,sp
8000757c:	01950e63          	beq	a0,s9,80007598 <sub_2+0x1c48>
80007580:	4158d193          	srai	gp,a7,0x15
80007584:	e5a8cb93          	xori	s7,a7,-422
80007588:	01537533          	and	a0,t1,s5
8000758c:	41ae0833          	sub	a6,t3,s10
80007590:	056fd063          	bge	t6,s6,800075d0 <sub_2+0x1c80>
80007594:	01537533          	and	a0,t1,s5
80007598:	01c45713          	srli	a4,s0,0x1c
8000759c:	01808433          	add	s0,ra,s8
800075a0:	41ae0833          	sub	a6,t3,s10
800075a4:	bde33713          	sltiu	a4,t1,-1058
800075a8:	dd88a013          	slti	zero,a7,-552
800075ac:	41ae0833          	sub	a6,t3,s10
800075b0:	0141adb3          	slt	s11,gp,s4
800075b4:	0000100f          	fence.i
800075b8:	0107c863          	blt	a5,a6,800075c8 <sub_2+0x1c78>
800075bc:	03950863          	beq	a0,s9,800075ec <sub_2+0x1c9c>
800075c0:	0141adb3          	slt	s11,gp,s4
800075c4:	4022ddb3          	sra	s11,t0,sp
800075c8:	01c45713          	srli	a4,s0,0x1c
800075cc:	01537533          	and	a0,t1,s5
800075d0:	01431733          	sll	a4,t1,s4
800075d4:	00000013          	nop
800075d8:	01537533          	and	a0,t1,s5
800075dc:	c66de993          	ori	s3,s11,-922
800075e0:	4158d193          	srai	gp,a7,0x15
800075e4:	019fe0b3          	or	ra,t6,s9
800075e8:	dd88a013          	slti	zero,a7,-552
800075ec:	0072c133          	xor	sp,t0,t2
800075f0:	044b7263          	bgeu	s6,tp,80007634 <sub_2+0x1ce4>
800075f4:	0107ce63          	blt	a5,a6,80007610 <sub_2+0x1cc0>
800075f8:	01808433          	add	s0,ra,s8
800075fc:	0072c133          	xor	sp,t0,t2
80007600:	e5e3fb93          	andi	s7,t2,-418
80007604:	c66de993          	ori	s3,s11,-922
80007608:	dd88a013          	slti	zero,a7,-552
8000760c:	01537533          	and	a0,t1,s5
80007610:	0ff0000f          	fence
80007614:	01431733          	sll	a4,t1,s4
80007618:	004b7e63          	bgeu	s6,tp,80007634 <sub_2+0x1ce4>
8000761c:	e5e3fb93          	andi	s7,t2,-418
80007620:	e5e3fb93          	andi	s7,t2,-418
80007624:	03950063          	beq	a0,s9,80007644 <sub_2+0x1cf4>
80007628:	0000100f          	fence.i
8000762c:	01c45713          	srli	a4,s0,0x1c
80007630:	e5a8cb93          	xori	s7,a7,-422
80007634:	0072c133          	xor	sp,t0,t2
80007638:	e4ccbc97          	auipc	s9,0xe4ccb
8000763c:	03950263          	beq	a0,s9,80007660 <sub_2+0x1d10>
80007640:	0000100f          	fence.i
80007644:	4022ddb3          	sra	s11,t0,sp
80007648:	024b7c63          	bgeu	s6,tp,80007680 <sub_2+0x1d30>
8000764c:	0140b7b3          	sltu	a5,ra,s4
80007650:	01950a63          	beq	a0,s9,80007664 <sub_2+0x1d14>
80007654:	01431733          	sll	a4,t1,s4
80007658:	0141adb3          	slt	s11,gp,s4
8000765c:	e5e3fb93          	andi	s7,t2,-418
80007660:	0000100f          	fence.i
80007664:	41ae0833          	sub	a6,t3,s10
80007668:	00000013          	nop
8000766c:	00d09993          	slli	s3,ra,0xd
80007670:	0307cc63          	blt	a5,a6,800076a8 <sub_2+0x1d58>
80007674:	0072c133          	xor	sp,t0,t2
80007678:	01431733          	sll	a4,t1,s4
8000767c:	0140b7b3          	sltu	a5,ra,s4
80007680:	0107cc63          	blt	a5,a6,80007698 <sub_2+0x1d48>
80007684:	01465bb3          	srl	s7,a2,s4
80007688:	4022ddb3          	sra	s11,t0,sp
8000768c:	004b7263          	bgeu	s6,tp,80007690 <sub_2+0x1d40>
80007690:	01465bb3          	srl	s7,a2,s4
80007694:	00000013          	nop
80007698:	4022ddb3          	sra	s11,t0,sp
8000769c:	0072c133          	xor	sp,t0,t2
800076a0:	0000100f          	fence.i
800076a4:	0307ca63          	blt	a5,a6,800076d8 <sub_2+0x1d88>
800076a8:	01c45713          	srli	a4,s0,0x1c
800076ac:	e5a8cb93          	xori	s7,a7,-422
800076b0:	01537533          	and	a0,t1,s5
800076b4:	0507c863          	blt	a5,a6,80007704 <sub_2+0x1db4>
800076b8:	01d09e63          	bne	ra,t4,800076d4 <sub_2+0x1d84>
800076bc:	0072c133          	xor	sp,t0,t2
800076c0:	01465bb3          	srl	s7,a2,s4
800076c4:	01431733          	sll	a4,t1,s4
800076c8:	e4ccbc97          	auipc	s9,0xe4ccb
800076cc:	a08c68b7          	lui	a7,0xa08c6
800076d0:	02d1e263          	bltu	gp,a3,800076f4 <sub_2+0x1da4>
800076d4:	01537533          	and	a0,t1,s5
800076d8:	0140b7b3          	sltu	a5,ra,s4
800076dc:	0ff0000f          	fence
800076e0:	e4ccbc97          	auipc	s9,0xe4ccb
800076e4:	bde33713          	sltiu	a4,t1,-1058
800076e8:	e5a8cb93          	xori	s7,a7,-422
800076ec:	dd88a013          	slti	zero,a7,-552
800076f0:	c66de993          	ori	s3,s11,-922
800076f4:	03d09e63          	bne	ra,t4,80007730 <sub_2+0x1de0>
800076f8:	019fe0b3          	or	ra,t6,s9
800076fc:	0307c863          	blt	a5,a6,8000772c <sub_2+0x1ddc>
80007700:	056fd663          	bge	t6,s6,8000774c <sub_2+0x1dfc>
80007704:	4022ddb3          	sra	s11,t0,sp
80007708:	4158d193          	srai	gp,a7,0x15
8000770c:	03950063          	beq	a0,s9,8000772c <sub_2+0x1ddc>
80007710:	01465bb3          	srl	s7,a2,s4
80007714:	00000013          	nop
80007718:	41ae0833          	sub	a6,t3,s10
8000771c:	01808433          	add	s0,ra,s8
80007720:	0507c063          	blt	a5,a6,80007760 <sub_2+0x1e10>
80007724:	0507c663          	blt	a5,a6,80007770 <sub_2+0x1e20>
80007728:	e4ccbc97          	auipc	s9,0xe4ccb
8000772c:	01808433          	add	s0,ra,s8
80007730:	4022ddb3          	sra	s11,t0,sp
80007734:	e4ccbc97          	auipc	s9,0xe4ccb
80007738:	574a0113          	addi	sp,s4,1396
8000773c:	4022ddb3          	sra	s11,t0,sp
80007740:	bde33713          	sltiu	a4,t1,-1058
80007744:	03d09263          	bne	ra,t4,80007768 <sub_2+0x1e18>
80007748:	01c45713          	srli	a4,s0,0x1c
8000774c:	01537533          	and	a0,t1,s5
80007750:	bde33713          	sltiu	a4,t1,-1058
80007754:	0072c133          	xor	sp,t0,t2
80007758:	c66de993          	ori	s3,s11,-922
8000775c:	4022ddb3          	sra	s11,t0,sp
80007760:	0307c063          	blt	a5,a6,80007780 <sub_2+0x1e30>
80007764:	41ae0833          	sub	a6,t3,s10
80007768:	0141adb3          	slt	s11,gp,s4
8000776c:	044b7463          	bgeu	s6,tp,800077b4 <sub_2+0x1e64>
80007770:	01c45713          	srli	a4,s0,0x1c
80007774:	03d09e63          	bne	ra,t4,800077b0 <sub_2+0x1e60>
80007778:	01465bb3          	srl	s7,a2,s4
8000777c:	01808433          	add	s0,ra,s8
80007780:	01465bb3          	srl	s7,a2,s4
80007784:	03d09663          	bne	ra,t4,800077b0 <sub_2+0x1e60>
80007788:	0072c133          	xor	sp,t0,t2
8000778c:	00d09993          	slli	s3,ra,0xd
80007790:	0000100f          	fence.i
80007794:	01808433          	add	s0,ra,s8
80007798:	01465bb3          	srl	s7,a2,s4
8000779c:	4158d193          	srai	gp,a7,0x15
800077a0:	02d1e863          	bltu	gp,a3,800077d0 <sub_2+0x1e80>
800077a4:	01537533          	and	a0,t1,s5
800077a8:	0ff0000f          	fence
800077ac:	a08c68b7          	lui	a7,0xa08c6
800077b0:	a08c68b7          	lui	a7,0xa08c6
800077b4:	004b7e63          	bgeu	s6,tp,800077d0 <sub_2+0x1e80>
800077b8:	e5e3fb93          	andi	s7,t2,-418
800077bc:	0000100f          	fence.i
800077c0:	019fe0b3          	or	ra,t6,s9
800077c4:	019fe0b3          	or	ra,t6,s9
800077c8:	a08c68b7          	lui	a7,0xa08c6
800077cc:	0507c063          	blt	a5,a6,8000780c <sub_2+0x1ebc>
800077d0:	05d09263          	bne	ra,t4,80007814 <sub_2+0x1ec4>
800077d4:	0140b7b3          	sltu	a5,ra,s4
800077d8:	00000013          	nop
800077dc:	574a0113          	addi	sp,s4,1396
800077e0:	4022ddb3          	sra	s11,t0,sp
800077e4:	01465bb3          	srl	s7,a2,s4
800077e8:	04d1e863          	bltu	gp,a3,80007838 <sub_2+0x1ee8>
800077ec:	e5a8cb93          	xori	s7,a7,-422
800077f0:	0140b7b3          	sltu	a5,ra,s4
800077f4:	03d09863          	bne	ra,t4,80007824 <sub_2+0x1ed4>
800077f8:	0140b7b3          	sltu	a5,ra,s4
800077fc:	004b7c63          	bgeu	s6,tp,80007814 <sub_2+0x1ec4>
80007800:	004b7a63          	bgeu	s6,tp,80007814 <sub_2+0x1ec4>
80007804:	574a0113          	addi	sp,s4,1396
80007808:	01d09e63          	bne	ra,t4,80007824 <sub_2+0x1ed4>
8000780c:	e5a8cb93          	xori	s7,a7,-422
80007810:	00000013          	nop
80007814:	01465bb3          	srl	s7,a2,s4
80007818:	0072c133          	xor	sp,t0,t2
8000781c:	016fde63          	bge	t6,s6,80007838 <sub_2+0x1ee8>
80007820:	00000013          	nop
80007824:	0141adb3          	slt	s11,gp,s4
80007828:	0507c463          	blt	a5,a6,80007870 <sub_2+0x1f20>
8000782c:	e5a8cb93          	xori	s7,a7,-422
80007830:	00d09993          	slli	s3,ra,0xd
80007834:	4022ddb3          	sra	s11,t0,sp
80007838:	01431733          	sll	a4,t1,s4
8000783c:	c66de993          	ori	s3,s11,-922
80007840:	0ff0000f          	fence
80007844:	01808433          	add	s0,ra,s8
80007848:	bde33713          	sltiu	a4,t1,-1058
8000784c:	004b7e63          	bgeu	s6,tp,80007868 <sub_2+0x1f18>
80007850:	4022ddb3          	sra	s11,t0,sp
80007854:	4022ddb3          	sra	s11,t0,sp
80007858:	e4ccbc97          	auipc	s9,0xe4ccb
8000785c:	0141adb3          	slt	s11,gp,s4
80007860:	0000100f          	fence.i
80007864:	01c45713          	srli	a4,s0,0x1c
80007868:	01537533          	and	a0,t1,s5
8000786c:	0072c133          	xor	sp,t0,t2
80007870:	c66de993          	ori	s3,s11,-922
80007874:	0140b7b3          	sltu	a5,ra,s4
80007878:	03950063          	beq	a0,s9,80007898 <sub_2+0x1f48>
8000787c:	01c45713          	srli	a4,s0,0x1c
80007880:	dd88a013          	slti	zero,a7,-552
80007884:	0ff0000f          	fence
80007888:	01431733          	sll	a4,t1,s4
8000788c:	0072c133          	xor	sp,t0,t2
80007890:	016fd863          	bge	t6,s6,800078a0 <sub_2+0x1f50>
80007894:	e4ccbc97          	auipc	s9,0xe4ccb
80007898:	00000013          	nop
8000789c:	a08c68b7          	lui	a7,0xa08c6
800078a0:	01808433          	add	s0,ra,s8
800078a4:	01537533          	and	a0,t1,s5
800078a8:	036fda63          	bge	t6,s6,800078dc <sub_2+0x1f8c>
800078ac:	e5e3fb93          	andi	s7,t2,-418
800078b0:	0000100f          	fence.i
800078b4:	0000100f          	fence.i
800078b8:	4158d193          	srai	gp,a7,0x15
800078bc:	0ff0000f          	fence
800078c0:	0072c133          	xor	sp,t0,t2
800078c4:	01950263          	beq	a0,s9,800078c8 <sub_2+0x1f78>
800078c8:	0140b7b3          	sltu	a5,ra,s4
800078cc:	a08c68b7          	lui	a7,0xa08c6
800078d0:	0141adb3          	slt	s11,gp,s4
800078d4:	01808433          	add	s0,ra,s8
800078d8:	41ae0833          	sub	a6,t3,s10
800078dc:	00d09993          	slli	s3,ra,0xd
800078e0:	c66de993          	ori	s3,s11,-922
800078e4:	01465bb3          	srl	s7,a2,s4
800078e8:	0ff0000f          	fence
800078ec:	4158d193          	srai	gp,a7,0x15
800078f0:	c66de993          	ori	s3,s11,-922
800078f4:	019fe0b3          	or	ra,t6,s9
800078f8:	c66de993          	ori	s3,s11,-922
800078fc:	00000013          	nop
80007900:	024b7263          	bgeu	s6,tp,80007924 <sub_2+0x1fd4>
80007904:	e4ccbc97          	auipc	s9,0xe4ccb
80007908:	41ae0833          	sub	a6,t3,s10
8000790c:	01431733          	sll	a4,t1,s4
80007910:	e5a8cb93          	xori	s7,a7,-422
80007914:	4158d193          	srai	gp,a7,0x15
80007918:	0141adb3          	slt	s11,gp,s4
8000791c:	01465bb3          	srl	s7,a2,s4
80007920:	41ae0833          	sub	a6,t3,s10
80007924:	41ae0833          	sub	a6,t3,s10
80007928:	e4ccbc97          	auipc	s9,0xe4ccb
8000792c:	41ae0833          	sub	a6,t3,s10
80007930:	dd88a013          	slti	zero,a7,-552
80007934:	0141adb3          	slt	s11,gp,s4
80007938:	bde33713          	sltiu	a4,t1,-1058
8000793c:	0000100f          	fence.i
80007940:	4158d193          	srai	gp,a7,0x15
80007944:	0000100f          	fence.i
80007948:	0141adb3          	slt	s11,gp,s4
8000794c:	01c45713          	srli	a4,s0,0x1c
80007950:	019fe0b3          	or	ra,t6,s9
80007954:	bde33713          	sltiu	a4,t1,-1058
80007958:	a08c68b7          	lui	a7,0xa08c6
8000795c:	0307cc63          	blt	a5,a6,80007994 <sub_2+0x2044>
80007960:	41ae0833          	sub	a6,t3,s10
80007964:	01c45713          	srli	a4,s0,0x1c
80007968:	01d09863          	bne	ra,t4,80007978 <sub_2+0x2028>
8000796c:	4022ddb3          	sra	s11,t0,sp
80007970:	05d09663          	bne	ra,t4,800079bc <sub_2+0x206c>
80007974:	a08c68b7          	lui	a7,0xa08c6
80007978:	4022ddb3          	sra	s11,t0,sp
8000797c:	00000013          	nop
80007980:	0141adb3          	slt	s11,gp,s4
80007984:	044b7263          	bgeu	s6,tp,800079c8 <sub_2+0x2078>
80007988:	00000013          	nop
8000798c:	01537533          	and	a0,t1,s5
80007990:	e5a8cb93          	xori	s7,a7,-422
80007994:	bde33713          	sltiu	a4,t1,-1058
80007998:	019fe0b3          	or	ra,t6,s9
8000799c:	e5e3fb93          	andi	s7,t2,-418
800079a0:	e5a8cb93          	xori	s7,a7,-422
800079a4:	0072c133          	xor	sp,t0,t2
800079a8:	e5a8cb93          	xori	s7,a7,-422
800079ac:	01537533          	and	a0,t1,s5
800079b0:	05d09063          	bne	ra,t4,800079f0 <sub_2+0x20a0>
800079b4:	4158d193          	srai	gp,a7,0x15
800079b8:	41ae0833          	sub	a6,t3,s10
800079bc:	0ff0000f          	fence
800079c0:	01c45713          	srli	a4,s0,0x1c
800079c4:	e5a8cb93          	xori	s7,a7,-422
800079c8:	dd88a013          	slti	zero,a7,-552
800079cc:	00d09993          	slli	s3,ra,0xd
800079d0:	bde33713          	sltiu	a4,t1,-1058
800079d4:	00000013          	nop
800079d8:	0307cc63          	blt	a5,a6,80007a10 <sub_2+0x20c0>
800079dc:	4022ddb3          	sra	s11,t0,sp
800079e0:	05950063          	beq	a0,s9,80007a20 <sub_2+0x20d0>
800079e4:	0ff0000f          	fence
800079e8:	0ff0000f          	fence
800079ec:	00d09993          	slli	s3,ra,0xd
800079f0:	01808433          	add	s0,ra,s8
800079f4:	01537533          	and	a0,t1,s5
800079f8:	0140b7b3          	sltu	a5,ra,s4
800079fc:	e5a8cb93          	xori	s7,a7,-422
80007a00:	a08c68b7          	lui	a7,0xa08c6
80007a04:	019fe0b3          	or	ra,t6,s9
80007a08:	c66de993          	ori	s3,s11,-922
80007a0c:	01808433          	add	s0,ra,s8
80007a10:	4158d193          	srai	gp,a7,0x15
80007a14:	e5e3fb93          	andi	s7,t2,-418
80007a18:	01465bb3          	srl	s7,a2,s4
80007a1c:	019fe0b3          	or	ra,t6,s9
80007a20:	00000013          	nop
80007a24:	05950063          	beq	a0,s9,80007a64 <sub_2+0x2114>
80007a28:	0072c133          	xor	sp,t0,t2
80007a2c:	03d09263          	bne	ra,t4,80007a50 <sub_2+0x2100>
80007a30:	01537533          	and	a0,t1,s5
80007a34:	dd88a013          	slti	zero,a7,-552
80007a38:	bde33713          	sltiu	a4,t1,-1058
80007a3c:	e5e3fb93          	andi	s7,t2,-418
80007a40:	024b7c63          	bgeu	s6,tp,80007a78 <sub_2+0x2128>
80007a44:	056fd463          	bge	t6,s6,80007a8c <sub_2+0x213c>
80007a48:	01431733          	sll	a4,t1,s4
80007a4c:	044b7063          	bgeu	s6,tp,80007a8c <sub_2+0x213c>
80007a50:	01950e63          	beq	a0,s9,80007a6c <sub_2+0x211c>
80007a54:	e5a8cb93          	xori	s7,a7,-422
80007a58:	0000100f          	fence.i
80007a5c:	e5a8cb93          	xori	s7,a7,-422
80007a60:	4022ddb3          	sra	s11,t0,sp
80007a64:	00d09993          	slli	s3,ra,0xd
80007a68:	01465bb3          	srl	s7,a2,s4
80007a6c:	0507c263          	blt	a5,a6,80007ab0 <sub_2+0x2160>
80007a70:	04d1e463          	bltu	gp,a3,80007ab8 <sub_2+0x2168>
80007a74:	00d1e863          	bltu	gp,a3,80007a84 <sub_2+0x2134>
80007a78:	dd88a013          	slti	zero,a7,-552
80007a7c:	00d09993          	slli	s3,ra,0xd
80007a80:	e5a8cb93          	xori	s7,a7,-422
80007a84:	e5a8cb93          	xori	s7,a7,-422
80007a88:	e5e3fb93          	andi	s7,t2,-418
80007a8c:	019fe0b3          	or	ra,t6,s9
80007a90:	01950263          	beq	a0,s9,80007a94 <sub_2+0x2144>
80007a94:	01465bb3          	srl	s7,a2,s4
80007a98:	01950a63          	beq	a0,s9,80007aac <sub_2+0x215c>
80007a9c:	01431733          	sll	a4,t1,s4
80007aa0:	4158d193          	srai	gp,a7,0x15
80007aa4:	024b7863          	bgeu	s6,tp,80007ad4 <sub_2+0x2184>
80007aa8:	00d09993          	slli	s3,ra,0xd
80007aac:	05d09663          	bne	ra,t4,80007af8 <sub_2+0x21a8>
80007ab0:	e5e3fb93          	andi	s7,t2,-418
80007ab4:	01950c63          	beq	a0,s9,80007acc <sub_2+0x217c>
80007ab8:	a08c68b7          	lui	a7,0xa08c6
80007abc:	01431733          	sll	a4,t1,s4
80007ac0:	00d1ee63          	bltu	gp,a3,80007adc <sub_2+0x218c>
80007ac4:	0ff0000f          	fence
80007ac8:	c66de993          	ori	s3,s11,-922
80007acc:	00000013          	nop
80007ad0:	019fe0b3          	or	ra,t6,s9
80007ad4:	41ae0833          	sub	a6,t3,s10
80007ad8:	01431733          	sll	a4,t1,s4
80007adc:	0307ca63          	blt	a5,a6,80007b10 <sub_2+0x21c0>
80007ae0:	0072c133          	xor	sp,t0,t2
80007ae4:	01c45713          	srli	a4,s0,0x1c
80007ae8:	01537533          	and	a0,t1,s5
80007aec:	00000013          	nop
80007af0:	03d09063          	bne	ra,t4,80007b10 <sub_2+0x21c0>
80007af4:	e4ccbc97          	auipc	s9,0xe4ccb
80007af8:	0000100f          	fence.i
80007afc:	dd88a013          	slti	zero,a7,-552
80007b00:	016fd863          	bge	t6,s6,80007b10 <sub_2+0x21c0>
80007b04:	bde33713          	sltiu	a4,t1,-1058
80007b08:	01537533          	and	a0,t1,s5
80007b0c:	e5a8cb93          	xori	s7,a7,-422
80007b10:	019fe0b3          	or	ra,t6,s9
80007b14:	41ae08b3          	sub	a7,t3,s10
80007b18:	00432083          	lw	ra,4(t1)
80007b1c:	4158d213          	srai	tp,a7,0x15
80007b20:	41ae08b3          	sub	a7,t3,s10
80007b24:	0ff0000f          	fence
80007b28:	e5a8cc13          	xori	s8,a7,-422
80007b2c:	00d09a13          	slli	s4,ra,0xd
80007b30:	02830313          	addi	t1,t1,40
80007b34:	4022de33          	sra	t3,t0,sp
80007b38:	4022de33          	sra	t3,t0,sp
80007b3c:	00008713          	mv	a4,ra
80007b40:	00070767          	jalr	a4,a4 # 80000000 <_end+0xfffd1180>

80007b44 <sub_4>:
80007b44:	e5a8cc13          	xori	s8,a7,-422
80007b48:	fd430313          	addi	t1,t1,-44
80007b4c:	00000013          	nop
80007b50:	00132223          	sw	ra,4(t1)
80007b54:	00d09a13          	slli	s4,ra,0xd
80007b58:	0072c1b3          	xor	gp,t0,t2
80007b5c:	a08c6937          	lui	s2,0xa08c6
80007b60:	0140b833          	sltu	a6,ra,s4
80007b64:	bde33793          	sltiu	a5,t1,-1058
80007b68:	018084b3          	add	s1,ra,s8
80007b6c:	015375b3          	and	a1,t1,s5
80007b70:	4022de33          	sra	t3,t0,sp
80007b74:	4022ddb3          	sra	s11,t0,sp
80007b78:	0141adb3          	slt	s11,gp,s4
80007b7c:	00d09993          	slli	s3,ra,0xd
80007b80:	019fe0b3          	or	ra,t6,s9
80007b84:	024b7c63          	bgeu	s6,tp,80007bbc <sub_4+0x78>
80007b88:	dd88a013          	slti	zero,a7,-552
80007b8c:	574a0113          	addi	sp,s4,1396
80007b90:	00d09993          	slli	s3,ra,0xd
80007b94:	01465bb3          	srl	s7,a2,s4
80007b98:	e5a8cb93          	xori	s7,a7,-422
80007b9c:	0140b7b3          	sltu	a5,ra,s4
80007ba0:	dd88a013          	slti	zero,a7,-552
80007ba4:	0ff0000f          	fence
80007ba8:	0000100f          	fence.i
80007bac:	00000013          	nop
80007bb0:	0000100f          	fence.i
80007bb4:	0072c133          	xor	sp,t0,t2
80007bb8:	dd88a013          	slti	zero,a7,-552
80007bbc:	0307ca63          	blt	a5,a6,80007bf0 <sub_4+0xac>
80007bc0:	574a0113          	addi	sp,s4,1396
80007bc4:	0072c133          	xor	sp,t0,t2
80007bc8:	a08c68b7          	lui	a7,0xa08c6
80007bcc:	00000013          	nop
80007bd0:	0000100f          	fence.i
80007bd4:	0000100f          	fence.i
80007bd8:	a08c68b7          	lui	a7,0xa08c6
80007bdc:	4158d193          	srai	gp,a7,0x15
80007be0:	0000100f          	fence.i
80007be4:	bde33713          	sltiu	a4,t1,-1058
80007be8:	01431733          	sll	a4,t1,s4
80007bec:	01950c63          	beq	a0,s9,80007c04 <sub_4+0xc0>
80007bf0:	e4ccbc97          	auipc	s9,0xe4ccb
80007bf4:	05950863          	beq	a0,s9,80007c44 <sub_4+0x100>
80007bf8:	bde33713          	sltiu	a4,t1,-1058
80007bfc:	0ff0000f          	fence
80007c00:	0141adb3          	slt	s11,gp,s4
80007c04:	00d1e863          	bltu	gp,a3,80007c14 <sub_4+0xd0>
80007c08:	0140b7b3          	sltu	a5,ra,s4
80007c0c:	dd88a013          	slti	zero,a7,-552
80007c10:	024b7863          	bgeu	s6,tp,80007c40 <sub_4+0xfc>
80007c14:	e5a8cb93          	xori	s7,a7,-422
80007c18:	05d09263          	bne	ra,t4,80007c5c <sub_4+0x118>
80007c1c:	0141adb3          	slt	s11,gp,s4
80007c20:	0072c133          	xor	sp,t0,t2
80007c24:	0000100f          	fence.i
80007c28:	0140b7b3          	sltu	a5,ra,s4
80007c2c:	4158d193          	srai	gp,a7,0x15
80007c30:	0072c133          	xor	sp,t0,t2
80007c34:	05d09663          	bne	ra,t4,80007c80 <sub_4+0x13c>
80007c38:	019fe0b3          	or	ra,t6,s9
80007c3c:	01465bb3          	srl	s7,a2,s4
80007c40:	4158d193          	srai	gp,a7,0x15
80007c44:	03d09263          	bne	ra,t4,80007c68 <sub_4+0x124>
80007c48:	574a0113          	addi	sp,s4,1396
80007c4c:	0072c133          	xor	sp,t0,t2
80007c50:	01431733          	sll	a4,t1,s4
80007c54:	574a0113          	addi	sp,s4,1396
80007c58:	019fe0b3          	or	ra,t6,s9
80007c5c:	a08c68b7          	lui	a7,0xa08c6
80007c60:	0141adb3          	slt	s11,gp,s4
80007c64:	01465bb3          	srl	s7,a2,s4
80007c68:	01465bb3          	srl	s7,a2,s4
80007c6c:	02d1ea63          	bltu	gp,a3,80007ca0 <sub_4+0x15c>
80007c70:	044b7663          	bgeu	s6,tp,80007cbc <sub_4+0x178>
80007c74:	0072c133          	xor	sp,t0,t2
80007c78:	4022ddb3          	sra	s11,t0,sp
80007c7c:	01431733          	sll	a4,t1,s4
80007c80:	03d09663          	bne	ra,t4,80007cac <sub_4+0x168>
80007c84:	0107c463          	blt	a5,a6,80007c8c <sub_4+0x148>
80007c88:	41ae0833          	sub	a6,t3,s10
80007c8c:	00000013          	nop
80007c90:	019fe0b3          	or	ra,t6,s9
80007c94:	01465bb3          	srl	s7,a2,s4
80007c98:	41ae0833          	sub	a6,t3,s10
80007c9c:	01537533          	and	a0,t1,s5
80007ca0:	0000100f          	fence.i
80007ca4:	01431733          	sll	a4,t1,s4
80007ca8:	019fe0b3          	or	ra,t6,s9
80007cac:	056fd663          	bge	t6,s6,80007cf8 <sub_4+0x1b4>
80007cb0:	4022ddb3          	sra	s11,t0,sp
80007cb4:	0140b7b3          	sltu	a5,ra,s4
80007cb8:	4158d193          	srai	gp,a7,0x15
80007cbc:	574a0113          	addi	sp,s4,1396
80007cc0:	0ff0000f          	fence
80007cc4:	574a0113          	addi	sp,s4,1396
80007cc8:	01d09663          	bne	ra,t4,80007cd4 <sub_4+0x190>
80007ccc:	bde33713          	sltiu	a4,t1,-1058
80007cd0:	e4ccbc97          	auipc	s9,0xe4ccb
80007cd4:	e5e3fb93          	andi	s7,t2,-418
80007cd8:	01431733          	sll	a4,t1,s4
80007cdc:	01431733          	sll	a4,t1,s4
80007ce0:	0000100f          	fence.i
80007ce4:	01808433          	add	s0,ra,s8
80007ce8:	e5e3fb93          	andi	s7,t2,-418
80007cec:	044b7063          	bgeu	s6,tp,80007d2c <sub_4+0x1e8>
80007cf0:	e5a8cb93          	xori	s7,a7,-422
80007cf4:	0140b7b3          	sltu	a5,ra,s4
80007cf8:	00d09993          	slli	s3,ra,0xd
80007cfc:	01537533          	and	a0,t1,s5
80007d00:	c66de993          	ori	s3,s11,-922
80007d04:	00000013          	nop
80007d08:	01465bb3          	srl	s7,a2,s4
80007d0c:	0307ce63          	blt	a5,a6,80007d48 <sub_4+0x204>
80007d10:	02d1e263          	bltu	gp,a3,80007d34 <sub_4+0x1f0>
80007d14:	01431733          	sll	a4,t1,s4
80007d18:	01950463          	beq	a0,s9,80007d20 <sub_4+0x1dc>
80007d1c:	0072c133          	xor	sp,t0,t2
80007d20:	01465bb3          	srl	s7,a2,s4
80007d24:	41ae0833          	sub	a6,t3,s10
80007d28:	0000100f          	fence.i
80007d2c:	0ff0000f          	fence
80007d30:	0000100f          	fence.i
80007d34:	0141adb3          	slt	s11,gp,s4
80007d38:	024b7863          	bgeu	s6,tp,80007d68 <sub_4+0x224>
80007d3c:	a08c68b7          	lui	a7,0xa08c6
80007d40:	bde33713          	sltiu	a4,t1,-1058
80007d44:	4158d193          	srai	gp,a7,0x15
80007d48:	574a0113          	addi	sp,s4,1396
80007d4c:	0000100f          	fence.i
80007d50:	00d09993          	slli	s3,ra,0xd
80007d54:	01808433          	add	s0,ra,s8
80007d58:	4022ddb3          	sra	s11,t0,sp
80007d5c:	c66de993          	ori	s3,s11,-922
80007d60:	044b7863          	bgeu	s6,tp,80007db0 <sub_4+0x26c>
80007d64:	41ae0833          	sub	a6,t3,s10
80007d68:	e5e3fb93          	andi	s7,t2,-418
80007d6c:	019fe0b3          	or	ra,t6,s9
80007d70:	01808433          	add	s0,ra,s8
80007d74:	01808433          	add	s0,ra,s8
80007d78:	4022ddb3          	sra	s11,t0,sp
80007d7c:	e4ccbc97          	auipc	s9,0xe4ccb
80007d80:	01537533          	and	a0,t1,s5
80007d84:	01431733          	sll	a4,t1,s4
80007d88:	a08c68b7          	lui	a7,0xa08c6
80007d8c:	0072c133          	xor	sp,t0,t2
80007d90:	02d1ec63          	bltu	gp,a3,80007dc8 <sub_4+0x284>
80007d94:	e5e3fb93          	andi	s7,t2,-418
80007d98:	01808433          	add	s0,ra,s8
80007d9c:	00d09993          	slli	s3,ra,0xd
80007da0:	01431733          	sll	a4,t1,s4
80007da4:	c66de993          	ori	s3,s11,-922
80007da8:	bde33713          	sltiu	a4,t1,-1058
80007dac:	a08c68b7          	lui	a7,0xa08c6
80007db0:	4158d193          	srai	gp,a7,0x15
80007db4:	01c45713          	srli	a4,s0,0x1c
80007db8:	c66de993          	ori	s3,s11,-922
80007dbc:	41ae0833          	sub	a6,t3,s10
80007dc0:	01431733          	sll	a4,t1,s4
80007dc4:	01465bb3          	srl	s7,a2,s4
80007dc8:	019fe0b3          	or	ra,t6,s9
80007dcc:	01537533          	and	a0,t1,s5
80007dd0:	4022ddb3          	sra	s11,t0,sp
80007dd4:	0141adb3          	slt	s11,gp,s4
80007dd8:	01c45713          	srli	a4,s0,0x1c
80007ddc:	0307c863          	blt	a5,a6,80007e0c <sub_4+0x2c8>
80007de0:	02d1ea63          	bltu	gp,a3,80007e14 <sub_4+0x2d0>
80007de4:	036fdc63          	bge	t6,s6,80007e1c <sub_4+0x2d8>
80007de8:	4022ddb3          	sra	s11,t0,sp
80007dec:	0000100f          	fence.i
80007df0:	01537533          	and	a0,t1,s5
80007df4:	0072c133          	xor	sp,t0,t2
80007df8:	04d1e263          	bltu	gp,a3,80007e3c <sub_4+0x2f8>
80007dfc:	e5e3fb93          	andi	s7,t2,-418
80007e00:	574a0113          	addi	sp,s4,1396
80007e04:	4022ddb3          	sra	s11,t0,sp
80007e08:	044b7663          	bgeu	s6,tp,80007e54 <sub_4+0x310>
80007e0c:	04d1e863          	bltu	gp,a3,80007e5c <sub_4+0x318>
80007e10:	e5e3fb93          	andi	s7,t2,-418
80007e14:	4158d193          	srai	gp,a7,0x15
80007e18:	01d09463          	bne	ra,t4,80007e20 <sub_4+0x2dc>
80007e1c:	0072c133          	xor	sp,t0,t2
80007e20:	0141adb3          	slt	s11,gp,s4
80007e24:	01808433          	add	s0,ra,s8
80007e28:	0140b7b3          	sltu	a5,ra,s4
80007e2c:	574a0113          	addi	sp,s4,1396
80007e30:	574a0113          	addi	sp,s4,1396
80007e34:	bde33713          	sltiu	a4,t1,-1058
80007e38:	0140b7b3          	sltu	a5,ra,s4
80007e3c:	0000100f          	fence.i
80007e40:	574a0113          	addi	sp,s4,1396
80007e44:	01465bb3          	srl	s7,a2,s4
80007e48:	4022ddb3          	sra	s11,t0,sp
80007e4c:	00000013          	nop
80007e50:	0000100f          	fence.i
80007e54:	01808433          	add	s0,ra,s8
80007e58:	0307c263          	blt	a5,a6,80007e7c <sub_4+0x338>
80007e5c:	00d09993          	slli	s3,ra,0xd
80007e60:	024b7a63          	bgeu	s6,tp,80007e94 <sub_4+0x350>
80007e64:	05950663          	beq	a0,s9,80007eb0 <sub_4+0x36c>
80007e68:	0140b7b3          	sltu	a5,ra,s4
80007e6c:	0ff0000f          	fence
80007e70:	01c45713          	srli	a4,s0,0x1c
80007e74:	036fd263          	bge	t6,s6,80007e98 <sub_4+0x354>
80007e78:	036fd263          	bge	t6,s6,80007e9c <sub_4+0x358>
80007e7c:	0140b7b3          	sltu	a5,ra,s4
80007e80:	024b7c63          	bgeu	s6,tp,80007eb8 <sub_4+0x374>
80007e84:	019fe0b3          	or	ra,t6,s9
80007e88:	e4ccbc97          	auipc	s9,0xe4ccb
80007e8c:	01431733          	sll	a4,t1,s4
80007e90:	0000100f          	fence.i
80007e94:	41ae0833          	sub	a6,t3,s10
80007e98:	e4ccbc97          	auipc	s9,0xe4ccb
80007e9c:	4158d193          	srai	gp,a7,0x15
80007ea0:	036fdc63          	bge	t6,s6,80007ed8 <sub_4+0x394>
80007ea4:	01950463          	beq	a0,s9,80007eac <sub_4+0x368>
80007ea8:	01431733          	sll	a4,t1,s4
80007eac:	e4ccbc97          	auipc	s9,0xe4ccb
80007eb0:	01c45713          	srli	a4,s0,0x1c
80007eb4:	0ff0000f          	fence
80007eb8:	01950663          	beq	a0,s9,80007ec4 <sub_4+0x380>
80007ebc:	01537533          	and	a0,t1,s5
80007ec0:	00d09993          	slli	s3,ra,0xd
80007ec4:	e5e3fb93          	andi	s7,t2,-418
80007ec8:	0ff0000f          	fence
80007ecc:	05950263          	beq	a0,s9,80007f10 <sub_4+0x3cc>
80007ed0:	01537533          	and	a0,t1,s5
80007ed4:	bde33713          	sltiu	a4,t1,-1058
80007ed8:	01431733          	sll	a4,t1,s4
80007edc:	05950863          	beq	a0,s9,80007f2c <sub_4+0x3e8>
80007ee0:	0307c863          	blt	a5,a6,80007f10 <sub_4+0x3cc>
80007ee4:	01465bb3          	srl	s7,a2,s4
80007ee8:	056fd263          	bge	t6,s6,80007f2c <sub_4+0x3e8>
80007eec:	a08c68b7          	lui	a7,0xa08c6
80007ef0:	03d09a63          	bne	ra,t4,80007f24 <sub_4+0x3e0>
80007ef4:	00d09993          	slli	s3,ra,0xd
80007ef8:	01808433          	add	s0,ra,s8
80007efc:	04d1e663          	bltu	gp,a3,80007f48 <sub_4+0x404>
80007f00:	0000100f          	fence.i
80007f04:	01537533          	and	a0,t1,s5
80007f08:	004b7863          	bgeu	s6,tp,80007f18 <sub_4+0x3d4>
80007f0c:	01808433          	add	s0,ra,s8
80007f10:	0072c133          	xor	sp,t0,t2
80007f14:	019fe0b3          	or	ra,t6,s9
80007f18:	02d1ec63          	bltu	gp,a3,80007f50 <sub_4+0x40c>
80007f1c:	bde33713          	sltiu	a4,t1,-1058
80007f20:	00000013          	nop
80007f24:	a08c68b7          	lui	a7,0xa08c6
80007f28:	044b7063          	bgeu	s6,tp,80007f68 <sub_4+0x424>
80007f2c:	e5a8cb93          	xori	s7,a7,-422
80007f30:	4022ddb3          	sra	s11,t0,sp
80007f34:	a08c68b7          	lui	a7,0xa08c6
80007f38:	e5a8cb93          	xori	s7,a7,-422
80007f3c:	c66de993          	ori	s3,s11,-922
80007f40:	dd88a013          	slti	zero,a7,-552
80007f44:	00d09993          	slli	s3,ra,0xd
80007f48:	01431733          	sll	a4,t1,s4
80007f4c:	e5a8cb93          	xori	s7,a7,-422
80007f50:	01c45713          	srli	a4,s0,0x1c
80007f54:	e4ccbc97          	auipc	s9,0xe4ccb
80007f58:	574a0113          	addi	sp,s4,1396
80007f5c:	574a0113          	addi	sp,s4,1396
80007f60:	a08c68b7          	lui	a7,0xa08c6
80007f64:	0140b7b3          	sltu	a5,ra,s4
80007f68:	4158d193          	srai	gp,a7,0x15
80007f6c:	016fd463          	bge	t6,s6,80007f74 <sub_4+0x430>
80007f70:	019fe0b3          	or	ra,t6,s9
80007f74:	0000100f          	fence.i
80007f78:	0307ca63          	blt	a5,a6,80007fac <sub_4+0x468>
80007f7c:	dd88a013          	slti	zero,a7,-552
80007f80:	dd88a013          	slti	zero,a7,-552
80007f84:	4158d193          	srai	gp,a7,0x15
80007f88:	41ae0833          	sub	a6,t3,s10
80007f8c:	bde33713          	sltiu	a4,t1,-1058
80007f90:	03950e63          	beq	a0,s9,80007fcc <sub_4+0x488>
80007f94:	00000013          	nop
80007f98:	e5e3fb93          	andi	s7,t2,-418
80007f9c:	01537533          	and	a0,t1,s5
80007fa0:	bde33713          	sltiu	a4,t1,-1058
80007fa4:	024b7863          	bgeu	s6,tp,80007fd4 <sub_4+0x490>
80007fa8:	016fdc63          	bge	t6,s6,80007fc0 <sub_4+0x47c>
80007fac:	00d1e463          	bltu	gp,a3,80007fb4 <sub_4+0x470>
80007fb0:	574a0113          	addi	sp,s4,1396
80007fb4:	05d09863          	bne	ra,t4,80008004 <sub_4+0x4c0>
80007fb8:	03950663          	beq	a0,s9,80007fe4 <sub_4+0x4a0>
80007fbc:	01c45713          	srli	a4,s0,0x1c
80007fc0:	01465bb3          	srl	s7,a2,s4
80007fc4:	a08c68b7          	lui	a7,0xa08c6
80007fc8:	bde33713          	sltiu	a4,t1,-1058
80007fcc:	056fd863          	bge	t6,s6,8000801c <sub_4+0x4d8>
80007fd0:	00d09993          	slli	s3,ra,0xd
80007fd4:	01537533          	and	a0,t1,s5
80007fd8:	019fe0b3          	or	ra,t6,s9
80007fdc:	056fd663          	bge	t6,s6,80008028 <sub_4+0x4e4>
80007fe0:	01537533          	and	a0,t1,s5
80007fe4:	e4ccbc97          	auipc	s9,0xe4ccb
80007fe8:	e5e3fb93          	andi	s7,t2,-418
80007fec:	bde33713          	sltiu	a4,t1,-1058
80007ff0:	0141adb3          	slt	s11,gp,s4
80007ff4:	03d09263          	bne	ra,t4,80008018 <sub_4+0x4d4>
80007ff8:	01c45713          	srli	a4,s0,0x1c
80007ffc:	0141adb3          	slt	s11,gp,s4
80008000:	e5e3fb93          	andi	s7,t2,-418
80008004:	0000100f          	fence.i
80008008:	044b7663          	bgeu	s6,tp,80008054 <sub_4+0x510>
8000800c:	0000100f          	fence.i
80008010:	036fd863          	bge	t6,s6,80008040 <sub_4+0x4fc>
80008014:	036fdc63          	bge	t6,s6,8000804c <sub_4+0x508>
80008018:	00000013          	nop
8000801c:	01808433          	add	s0,ra,s8
80008020:	0140b7b3          	sltu	a5,ra,s4
80008024:	0072c133          	xor	sp,t0,t2
80008028:	0000100f          	fence.i
8000802c:	0000100f          	fence.i
80008030:	0072c133          	xor	sp,t0,t2
80008034:	01537533          	and	a0,t1,s5
80008038:	01465bb3          	srl	s7,a2,s4
8000803c:	0307ce63          	blt	a5,a6,80008078 <sub_4+0x534>
80008040:	41ae0833          	sub	a6,t3,s10
80008044:	0000100f          	fence.i
80008048:	00d09993          	slli	s3,ra,0xd
8000804c:	0141adb3          	slt	s11,gp,s4
80008050:	4022ddb3          	sra	s11,t0,sp
80008054:	e5a8cb93          	xori	s7,a7,-422
80008058:	bde33713          	sltiu	a4,t1,-1058
8000805c:	019fe0b3          	or	ra,t6,s9
80008060:	01c45713          	srli	a4,s0,0x1c
80008064:	01431733          	sll	a4,t1,s4
80008068:	4022ddb3          	sra	s11,t0,sp
8000806c:	019fe0b3          	or	ra,t6,s9
80008070:	574a0113          	addi	sp,s4,1396
80008074:	a08c68b7          	lui	a7,0xa08c6
80008078:	0141adb3          	slt	s11,gp,s4
8000807c:	024b7a63          	bgeu	s6,tp,800080b0 <sub_4+0x56c>
80008080:	05d09663          	bne	ra,t4,800080cc <sub_4+0x588>
80008084:	00000013          	nop
80008088:	0140b7b3          	sltu	a5,ra,s4
8000808c:	c66de993          	ori	s3,s11,-922
80008090:	01465bb3          	srl	s7,a2,s4
80008094:	04d1e263          	bltu	gp,a3,800080d8 <sub_4+0x594>
80008098:	bde33713          	sltiu	a4,t1,-1058
8000809c:	01808433          	add	s0,ra,s8
800080a0:	0141adb3          	slt	s11,gp,s4
800080a4:	bde33713          	sltiu	a4,t1,-1058
800080a8:	01537533          	and	a0,t1,s5
800080ac:	4158d193          	srai	gp,a7,0x15
800080b0:	0ff0000f          	fence
800080b4:	01c45713          	srli	a4,s0,0x1c
800080b8:	01537533          	and	a0,t1,s5
800080bc:	0307c863          	blt	a5,a6,800080ec <sub_4+0x5a8>
800080c0:	0000100f          	fence.i
800080c4:	41ae0833          	sub	a6,t3,s10
800080c8:	0072c133          	xor	sp,t0,t2
800080cc:	00000013          	nop
800080d0:	e4ccbc97          	auipc	s9,0xe4ccb
800080d4:	0072c133          	xor	sp,t0,t2
800080d8:	0140b7b3          	sltu	a5,ra,s4
800080dc:	01808433          	add	s0,ra,s8
800080e0:	03950263          	beq	a0,s9,80008104 <sub_4+0x5c0>
800080e4:	01465bb3          	srl	s7,a2,s4
800080e8:	e4ccbc97          	auipc	s9,0xe4ccb
800080ec:	e5a8cb93          	xori	s7,a7,-422
800080f0:	0140b7b3          	sltu	a5,ra,s4
800080f4:	574a0113          	addi	sp,s4,1396
800080f8:	056fd863          	bge	t6,s6,80008148 <sub_4+0x604>
800080fc:	4022ddb3          	sra	s11,t0,sp
80008100:	02d1e663          	bltu	gp,a3,8000812c <sub_4+0x5e8>
80008104:	e5e3fb93          	andi	s7,t2,-418
80008108:	0000100f          	fence.i
8000810c:	04d1e863          	bltu	gp,a3,8000815c <sub_4+0x618>
80008110:	0000100f          	fence.i
80008114:	01c45713          	srli	a4,s0,0x1c
80008118:	dd88a013          	slti	zero,a7,-552
8000811c:	01537533          	and	a0,t1,s5
80008120:	dd88a013          	slti	zero,a7,-552
80008124:	0000100f          	fence.i
80008128:	01431733          	sll	a4,t1,s4
8000812c:	0141adb3          	slt	s11,gp,s4
80008130:	0140b7b3          	sltu	a5,ra,s4
80008134:	0072c133          	xor	sp,t0,t2
80008138:	024b7863          	bgeu	s6,tp,80008168 <sub_4+0x624>
8000813c:	05950663          	beq	a0,s9,80008188 <sub_4+0x644>
80008140:	00d09993          	slli	s3,ra,0xd
80008144:	e5e3fb93          	andi	s7,t2,-418
80008148:	016fd463          	bge	t6,s6,80008150 <sub_4+0x60c>
8000814c:	01465bb3          	srl	s7,a2,s4
80008150:	0072c133          	xor	sp,t0,t2
80008154:	01808433          	add	s0,ra,s8
80008158:	024b7a63          	bgeu	s6,tp,8000818c <sub_4+0x648>
8000815c:	574a0113          	addi	sp,s4,1396
80008160:	01537533          	and	a0,t1,s5
80008164:	019fe0b3          	or	ra,t6,s9
80008168:	0307c263          	blt	a5,a6,8000818c <sub_4+0x648>
8000816c:	e5a8cb93          	xori	s7,a7,-422
80008170:	00000013          	nop
80008174:	01431733          	sll	a4,t1,s4
80008178:	01431733          	sll	a4,t1,s4
8000817c:	00000013          	nop
80008180:	bde33713          	sltiu	a4,t1,-1058
80008184:	024b7a63          	bgeu	s6,tp,800081b8 <sub_4+0x674>
80008188:	01431733          	sll	a4,t1,s4
8000818c:	01d09863          	bne	ra,t4,8000819c <sub_4+0x658>
80008190:	01537533          	and	a0,t1,s5
80008194:	c66de993          	ori	s3,s11,-922
80008198:	4158d193          	srai	gp,a7,0x15
8000819c:	044b7663          	bgeu	s6,tp,800081e8 <sub_4+0x6a4>
800081a0:	4022ddb3          	sra	s11,t0,sp
800081a4:	0000100f          	fence.i
800081a8:	0072c133          	xor	sp,t0,t2
800081ac:	bde33713          	sltiu	a4,t1,-1058
800081b0:	01465bb3          	srl	s7,a2,s4
800081b4:	e5a8cb93          	xori	s7,a7,-422
800081b8:	01537533          	and	a0,t1,s5
800081bc:	036fd263          	bge	t6,s6,800081e0 <sub_4+0x69c>
800081c0:	0000100f          	fence.i
800081c4:	4158d193          	srai	gp,a7,0x15
800081c8:	01537533          	and	a0,t1,s5
800081cc:	bde33713          	sltiu	a4,t1,-1058
800081d0:	574a0113          	addi	sp,s4,1396
800081d4:	4158d193          	srai	gp,a7,0x15
800081d8:	056fd863          	bge	t6,s6,80008228 <sub_4+0x6e4>
800081dc:	0000100f          	fence.i
800081e0:	4158d193          	srai	gp,a7,0x15
800081e4:	0307cc63          	blt	a5,a6,8000821c <sub_4+0x6d8>
800081e8:	e5e3fb93          	andi	s7,t2,-418
800081ec:	574a0113          	addi	sp,s4,1396
800081f0:	0ff0000f          	fence
800081f4:	00000013          	nop
800081f8:	e5e3fb93          	andi	s7,t2,-418
800081fc:	574a0113          	addi	sp,s4,1396
80008200:	574a0113          	addi	sp,s4,1396
80008204:	0141adb3          	slt	s11,gp,s4
80008208:	01d09c63          	bne	ra,t4,80008220 <sub_4+0x6dc>
8000820c:	00d09993          	slli	s3,ra,0xd
80008210:	05d09063          	bne	ra,t4,80008250 <sub_4+0x70c>
80008214:	a08c68b7          	lui	a7,0xa08c6
80008218:	e5a8cb93          	xori	s7,a7,-422
8000821c:	c66de993          	ori	s3,s11,-922
80008220:	0307cc63          	blt	a5,a6,80008258 <sub_4+0x714>
80008224:	e4ccbc97          	auipc	s9,0xe4ccb
80008228:	01808433          	add	s0,ra,s8
8000822c:	00000013          	nop
80008230:	c66de993          	ori	s3,s11,-922
80008234:	bde33713          	sltiu	a4,t1,-1058
80008238:	4022ddb3          	sra	s11,t0,sp
8000823c:	41ae0833          	sub	a6,t3,s10
80008240:	574a0113          	addi	sp,s4,1396
80008244:	0141adb3          	slt	s11,gp,s4
80008248:	0141adb3          	slt	s11,gp,s4
8000824c:	574a0113          	addi	sp,s4,1396
80008250:	e4ccbc97          	auipc	s9,0xe4ccb
80008254:	bde33713          	sltiu	a4,t1,-1058
80008258:	e5a8cb93          	xori	s7,a7,-422
8000825c:	a08c68b7          	lui	a7,0xa08c6
80008260:	e5a8cb93          	xori	s7,a7,-422
80008264:	01950463          	beq	a0,s9,8000826c <sub_4+0x728>
80008268:	574a0113          	addi	sp,s4,1396
8000826c:	c66de993          	ori	s3,s11,-922
80008270:	00000013          	nop
80008274:	044b7663          	bgeu	s6,tp,800082c0 <sub_4+0x77c>
80008278:	dd88a013          	slti	zero,a7,-552
8000827c:	0072c133          	xor	sp,t0,t2
80008280:	dd88a013          	slti	zero,a7,-552
80008284:	01431733          	sll	a4,t1,s4
80008288:	4022ddb3          	sra	s11,t0,sp
8000828c:	bde33713          	sltiu	a4,t1,-1058
80008290:	01808433          	add	s0,ra,s8
80008294:	574a0113          	addi	sp,s4,1396
80008298:	0507c263          	blt	a5,a6,800082dc <sub_4+0x798>
8000829c:	01465bb3          	srl	s7,a2,s4
800082a0:	01808433          	add	s0,ra,s8
800082a4:	00d1e463          	bltu	gp,a3,800082ac <sub_4+0x768>
800082a8:	00000013          	nop
800082ac:	e4ccbc97          	auipc	s9,0xe4ccb
800082b0:	019fe0b3          	or	ra,t6,s9
800082b4:	01465bb3          	srl	s7,a2,s4
800082b8:	03950863          	beq	a0,s9,800082e8 <sub_4+0x7a4>
800082bc:	004b7663          	bgeu	s6,tp,800082c8 <sub_4+0x784>
800082c0:	0ff0000f          	fence
800082c4:	03d09863          	bne	ra,t4,800082f4 <sub_4+0x7b0>
800082c8:	05d09263          	bne	ra,t4,8000830c <sub_4+0x7c8>
800082cc:	0072c133          	xor	sp,t0,t2
800082d0:	00000013          	nop
800082d4:	574a0113          	addi	sp,s4,1396
800082d8:	00d09993          	slli	s3,ra,0xd
800082dc:	024b7e63          	bgeu	s6,tp,80008318 <sub_4+0x7d4>
800082e0:	01465bb3          	srl	s7,a2,s4
800082e4:	e5e3fb93          	andi	s7,t2,-418
800082e8:	a08c68b7          	lui	a7,0xa08c6
800082ec:	c66de993          	ori	s3,s11,-922
800082f0:	01537533          	and	a0,t1,s5
800082f4:	574a0113          	addi	sp,s4,1396
800082f8:	e4ccbc97          	auipc	s9,0xe4ccb
800082fc:	0507c863          	blt	a5,a6,8000834c <sub_4+0x808>
80008300:	e4ccbc97          	auipc	s9,0xe4ccb
80008304:	01808433          	add	s0,ra,s8
80008308:	036fda63          	bge	t6,s6,8000833c <sub_4+0x7f8>
8000830c:	dd88a013          	slti	zero,a7,-552
80008310:	0307c663          	blt	a5,a6,8000833c <sub_4+0x7f8>
80008314:	0ff0000f          	fence
80008318:	574a0113          	addi	sp,s4,1396
8000831c:	e4ccbc97          	auipc	s9,0xe4ccb
80008320:	01537533          	and	a0,t1,s5
80008324:	03950263          	beq	a0,s9,80008348 <sub_4+0x804>
80008328:	01808433          	add	s0,ra,s8
8000832c:	0000100f          	fence.i
80008330:	01c45713          	srli	a4,s0,0x1c
80008334:	e5e3fb93          	andi	s7,t2,-418
80008338:	4158d193          	srai	gp,a7,0x15
8000833c:	4022ddb3          	sra	s11,t0,sp
80008340:	01c45713          	srli	a4,s0,0x1c
80008344:	019fe0b3          	or	ra,t6,s9
80008348:	e4ccbc97          	auipc	s9,0xe4ccb
8000834c:	01431733          	sll	a4,t1,s4
80008350:	00d09993          	slli	s3,ra,0xd
80008354:	0072c133          	xor	sp,t0,t2
80008358:	016fd663          	bge	t6,s6,80008364 <sub_4+0x820>
8000835c:	01465bb3          	srl	s7,a2,s4
80008360:	c66de993          	ori	s3,s11,-922
80008364:	0141adb3          	slt	s11,gp,s4
80008368:	574a0113          	addi	sp,s4,1396
8000836c:	01808433          	add	s0,ra,s8
80008370:	05950663          	beq	a0,s9,800083bc <sub_4+0x878>
80008374:	00000013          	nop
80008378:	0507c863          	blt	a5,a6,800083c8 <sub_4+0x884>
8000837c:	01808433          	add	s0,ra,s8
80008380:	00000013          	nop
80008384:	0ff0000f          	fence
80008388:	574a0113          	addi	sp,s4,1396
8000838c:	01431733          	sll	a4,t1,s4
80008390:	01c45713          	srli	a4,s0,0x1c
80008394:	024b7c63          	bgeu	s6,tp,800083cc <sub_4+0x888>
80008398:	04d1e063          	bltu	gp,a3,800083d8 <sub_4+0x894>
8000839c:	0140b7b3          	sltu	a5,ra,s4
800083a0:	01808433          	add	s0,ra,s8
800083a4:	0ff0000f          	fence
800083a8:	bde33713          	sltiu	a4,t1,-1058
800083ac:	01465bb3          	srl	s7,a2,s4
800083b0:	bde33713          	sltiu	a4,t1,-1058
800083b4:	00000013          	nop
800083b8:	019fe0b3          	or	ra,t6,s9
800083bc:	4158d193          	srai	gp,a7,0x15
800083c0:	e4ccbc97          	auipc	s9,0xe4ccb
800083c4:	02d1e263          	bltu	gp,a3,800083e8 <sub_4+0x8a4>
800083c8:	036fd863          	bge	t6,s6,800083f8 <sub_4+0x8b4>
800083cc:	e4ccbc97          	auipc	s9,0xe4ccb
800083d0:	01d09463          	bne	ra,t4,800083d8 <sub_4+0x894>
800083d4:	dd88a013          	slti	zero,a7,-552
800083d8:	019fe0b3          	or	ra,t6,s9
800083dc:	024b7a63          	bgeu	s6,tp,80008410 <sub_4+0x8cc>
800083e0:	016fdc63          	bge	t6,s6,800083f8 <sub_4+0x8b4>
800083e4:	00000013          	nop
800083e8:	e5e3fb93          	andi	s7,t2,-418
800083ec:	41ae0833          	sub	a6,t3,s10
800083f0:	574a0113          	addi	sp,s4,1396
800083f4:	4158d193          	srai	gp,a7,0x15
800083f8:	bde33713          	sltiu	a4,t1,-1058
800083fc:	dd88a013          	slti	zero,a7,-552
80008400:	0072c133          	xor	sp,t0,t2
80008404:	41ae0833          	sub	a6,t3,s10
80008408:	a08c68b7          	lui	a7,0xa08c6
8000840c:	c66de993          	ori	s3,s11,-922
80008410:	00000013          	nop
80008414:	dd88a013          	slti	zero,a7,-552
80008418:	0141adb3          	slt	s11,gp,s4
8000841c:	dd88a013          	slti	zero,a7,-552
80008420:	e5e3fb93          	andi	s7,t2,-418
80008424:	e5a8cb93          	xori	s7,a7,-422
80008428:	0ff0000f          	fence
8000842c:	01431733          	sll	a4,t1,s4
80008430:	00d1e463          	bltu	gp,a3,80008438 <sub_4+0x8f4>
80008434:	03d09263          	bne	ra,t4,80008458 <sub_4+0x914>
80008438:	dd88a013          	slti	zero,a7,-552
8000843c:	0000100f          	fence.i
80008440:	4158d193          	srai	gp,a7,0x15
80008444:	bde33713          	sltiu	a4,t1,-1058
80008448:	e5a8cb93          	xori	s7,a7,-422
8000844c:	c66de993          	ori	s3,s11,-922
80008450:	0140b7b3          	sltu	a5,ra,s4
80008454:	0ff0000f          	fence
80008458:	41ae0833          	sub	a6,t3,s10
8000845c:	a08c68b7          	lui	a7,0xa08c6
80008460:	0000100f          	fence.i
80008464:	e5a8cb93          	xori	s7,a7,-422
80008468:	a08c68b7          	lui	a7,0xa08c6
8000846c:	0072c133          	xor	sp,t0,t2
80008470:	0507c663          	blt	a5,a6,800084bc <sub_4+0x978>
80008474:	bde33713          	sltiu	a4,t1,-1058
80008478:	e4ccbc97          	auipc	s9,0xe4ccb
8000847c:	c66de993          	ori	s3,s11,-922
80008480:	0140b7b3          	sltu	a5,ra,s4
80008484:	044b7663          	bgeu	s6,tp,800084d0 <sub_4+0x98c>
80008488:	019fe0b3          	or	ra,t6,s9
8000848c:	e5e3fb93          	andi	s7,t2,-418
80008490:	0507c663          	blt	a5,a6,800084dc <sub_4+0x998>
80008494:	e4ccbc97          	auipc	s9,0xe4ccb
80008498:	03950863          	beq	a0,s9,800084c8 <sub_4+0x984>
8000849c:	0ff0000f          	fence
800084a0:	574a0113          	addi	sp,s4,1396
800084a4:	0072c133          	xor	sp,t0,t2
800084a8:	0072c133          	xor	sp,t0,t2
800084ac:	0072c133          	xor	sp,t0,t2
800084b0:	01431733          	sll	a4,t1,s4
800084b4:	e5e3fb93          	andi	s7,t2,-418
800084b8:	01c45713          	srli	a4,s0,0x1c
800084bc:	01d09463          	bne	ra,t4,800084c4 <sub_4+0x980>
800084c0:	02d1ea63          	bltu	gp,a3,800084f4 <sub_4+0x9b0>
800084c4:	01808433          	add	s0,ra,s8
800084c8:	e4ccbc97          	auipc	s9,0xe4ccb
800084cc:	02d1ec63          	bltu	gp,a3,80008504 <sub_4+0x9c0>
800084d0:	01537533          	and	a0,t1,s5
800084d4:	05d09863          	bne	ra,t4,80008524 <sub_4+0x9e0>
800084d8:	00000013          	nop
800084dc:	0072c133          	xor	sp,t0,t2
800084e0:	0507c263          	blt	a5,a6,80008524 <sub_4+0x9e0>
800084e4:	e5e3fb93          	andi	s7,t2,-418
800084e8:	016fd863          	bge	t6,s6,800084f8 <sub_4+0x9b4>
800084ec:	036fdc63          	bge	t6,s6,80008524 <sub_4+0x9e0>
800084f0:	00d1e663          	bltu	gp,a3,800084fc <sub_4+0x9b8>
800084f4:	056fd663          	bge	t6,s6,80008540 <sub_4+0x9fc>
800084f8:	574a0113          	addi	sp,s4,1396
800084fc:	024b7263          	bgeu	s6,tp,80008520 <sub_4+0x9dc>
80008500:	a08c68b7          	lui	a7,0xa08c6
80008504:	e4ccbc97          	auipc	s9,0xe4ccb
80008508:	4022ddb3          	sra	s11,t0,sp
8000850c:	0ff0000f          	fence
80008510:	c66de993          	ori	s3,s11,-922
80008514:	03d09c63          	bne	ra,t4,8000854c <sub_4+0xa08>
80008518:	bde33713          	sltiu	a4,t1,-1058
8000851c:	c66de993          	ori	s3,s11,-922
80008520:	00d09993          	slli	s3,ra,0xd
80008524:	036fd863          	bge	t6,s6,80008554 <sub_4+0xa10>
80008528:	e4ccbc97          	auipc	s9,0xe4ccb
8000852c:	004b7463          	bgeu	s6,tp,80008534 <sub_4+0x9f0>
80008530:	0072c133          	xor	sp,t0,t2
80008534:	a08c68b7          	lui	a7,0xa08c6
80008538:	01431733          	sll	a4,t1,s4
8000853c:	01808433          	add	s0,ra,s8
80008540:	dd88a013          	slti	zero,a7,-552
80008544:	03d09c63          	bne	ra,t4,8000857c <sub_4+0xa38>
80008548:	a08c68b7          	lui	a7,0xa08c6
8000854c:	0ff0000f          	fence
80008550:	e5e3fb93          	andi	s7,t2,-418
80008554:	e4ccbc97          	auipc	s9,0xe4ccb
80008558:	024b7e63          	bgeu	s6,tp,80008594 <sub_4+0xa50>
8000855c:	01465bb3          	srl	s7,a2,s4
80008560:	05950863          	beq	a0,s9,800085b0 <sub_4+0xa6c>
80008564:	574a0113          	addi	sp,s4,1396
80008568:	e4ccbc97          	auipc	s9,0xe4ccb
8000856c:	e5a8cb93          	xori	s7,a7,-422
80008570:	00000013          	nop
80008574:	01465bb3          	srl	s7,a2,s4
80008578:	01808433          	add	s0,ra,s8
8000857c:	e4ccbc97          	auipc	s9,0xe4ccb
80008580:	e5e3fb93          	andi	s7,t2,-418
80008584:	05d09863          	bne	ra,t4,800085d4 <sub_4+0xa90>
80008588:	03950a63          	beq	a0,s9,800085bc <sub_4+0xa78>
8000858c:	0072c133          	xor	sp,t0,t2
80008590:	a08c68b7          	lui	a7,0xa08c6
80008594:	e5a8cb93          	xori	s7,a7,-422
80008598:	024b7263          	bgeu	s6,tp,800085bc <sub_4+0xa78>
8000859c:	0307c863          	blt	a5,a6,800085cc <sub_4+0xa88>
800085a0:	0072c133          	xor	sp,t0,t2
800085a4:	41ae0833          	sub	a6,t3,s10
800085a8:	e4ccbc97          	auipc	s9,0xe4ccb
800085ac:	bde33713          	sltiu	a4,t1,-1058
800085b0:	41ae0833          	sub	a6,t3,s10
800085b4:	41ae0833          	sub	a6,t3,s10
800085b8:	01537533          	and	a0,t1,s5
800085bc:	c66de993          	ori	s3,s11,-922
800085c0:	41ae0833          	sub	a6,t3,s10
800085c4:	004b7463          	bgeu	s6,tp,800085cc <sub_4+0xa88>
800085c8:	4022ddb3          	sra	s11,t0,sp
800085cc:	a08c68b7          	lui	a7,0xa08c6
800085d0:	04d1e663          	bltu	gp,a3,8000861c <sub_4+0xad8>
800085d4:	0000100f          	fence.i
800085d8:	019fe0b3          	or	ra,t6,s9
800085dc:	00d09993          	slli	s3,ra,0xd
800085e0:	00d09993          	slli	s3,ra,0xd
800085e4:	02d1ea63          	bltu	gp,a3,80008618 <sub_4+0xad4>
800085e8:	41ae0833          	sub	a6,t3,s10
800085ec:	c66de993          	ori	s3,s11,-922
800085f0:	0140b7b3          	sltu	a5,ra,s4
800085f4:	a08c68b7          	lui	a7,0xa08c6
800085f8:	e5a8cb93          	xori	s7,a7,-422
800085fc:	01537533          	and	a0,t1,s5
80008600:	01537533          	and	a0,t1,s5
80008604:	05d09663          	bne	ra,t4,80008650 <sub_4+0xb0c>
80008608:	0140b7b3          	sltu	a5,ra,s4
8000860c:	a08c68b7          	lui	a7,0xa08c6
80008610:	e4ccbc97          	auipc	s9,0xe4ccb
80008614:	00d09993          	slli	s3,ra,0xd
80008618:	4022ddb3          	sra	s11,t0,sp
8000861c:	41ae0833          	sub	a6,t3,s10
80008620:	00d09993          	slli	s3,ra,0xd
80008624:	01431733          	sll	a4,t1,s4
80008628:	c66de993          	ori	s3,s11,-922
8000862c:	41ae0833          	sub	a6,t3,s10
80008630:	04d1e263          	bltu	gp,a3,80008674 <sub_4+0xb30>
80008634:	0ff0000f          	fence
80008638:	41ae0833          	sub	a6,t3,s10
8000863c:	0ff0000f          	fence
80008640:	dd88a013          	slti	zero,a7,-552
80008644:	0072c133          	xor	sp,t0,t2
80008648:	0000100f          	fence.i
8000864c:	574a0113          	addi	sp,s4,1396
80008650:	574a0113          	addi	sp,s4,1396
80008654:	0ff0000f          	fence
80008658:	024b7663          	bgeu	s6,tp,80008684 <sub_4+0xb40>
8000865c:	0ff0000f          	fence
80008660:	05d09863          	bne	ra,t4,800086b0 <sub_4+0xb6c>
80008664:	01537533          	and	a0,t1,s5
80008668:	01950863          	beq	a0,s9,80008678 <sub_4+0xb34>
8000866c:	00d09993          	slli	s3,ra,0xd
80008670:	00d09993          	slli	s3,ra,0xd
80008674:	0141adb3          	slt	s11,gp,s4
80008678:	0307cc63          	blt	a5,a6,800086b0 <sub_4+0xb6c>
8000867c:	01537533          	and	a0,t1,s5
80008680:	01808433          	add	s0,ra,s8
80008684:	024b7863          	bgeu	s6,tp,800086b4 <sub_4+0xb70>
80008688:	dd88a013          	slti	zero,a7,-552
8000868c:	574a0113          	addi	sp,s4,1396
80008690:	01c45713          	srli	a4,s0,0x1c
80008694:	05d09663          	bne	ra,t4,800086e0 <sub_4+0xb9c>
80008698:	01537533          	and	a0,t1,s5
8000869c:	0140b7b3          	sltu	a5,ra,s4
800086a0:	044b7263          	bgeu	s6,tp,800086e4 <sub_4+0xba0>
800086a4:	01c45713          	srli	a4,s0,0x1c
800086a8:	0ff0000f          	fence
800086ac:	0140b7b3          	sltu	a5,ra,s4
800086b0:	01431733          	sll	a4,t1,s4
800086b4:	574a0113          	addi	sp,s4,1396
800086b8:	0141adb3          	slt	s11,gp,s4
800086bc:	0307c263          	blt	a5,a6,800086e0 <sub_4+0xb9c>
800086c0:	0140b7b3          	sltu	a5,ra,s4
800086c4:	e4ccbc97          	auipc	s9,0xe4ccb
800086c8:	03950a63          	beq	a0,s9,800086fc <sub_4+0xbb8>
800086cc:	e4ccbc97          	auipc	s9,0xe4ccb
800086d0:	574a0113          	addi	sp,s4,1396
800086d4:	574a0113          	addi	sp,s4,1396
800086d8:	bde33713          	sltiu	a4,t1,-1058
800086dc:	01950c63          	beq	a0,s9,800086f4 <sub_4+0xbb0>
800086e0:	019fe0b3          	or	ra,t6,s9
800086e4:	01537533          	and	a0,t1,s5
800086e8:	0ff0000f          	fence
800086ec:	01950463          	beq	a0,s9,800086f4 <sub_4+0xbb0>
800086f0:	a08c68b7          	lui	a7,0xa08c6
800086f4:	044b7063          	bgeu	s6,tp,80008734 <sub_4+0xbf0>
800086f8:	e5e3fb93          	andi	s7,t2,-418
800086fc:	4158d193          	srai	gp,a7,0x15
80008700:	019fe0b3          	or	ra,t6,s9
80008704:	c66de993          	ori	s3,s11,-922
80008708:	dd88a013          	slti	zero,a7,-552
8000870c:	574a0113          	addi	sp,s4,1396
80008710:	01431733          	sll	a4,t1,s4
80008714:	574a0113          	addi	sp,s4,1396
80008718:	056fd663          	bge	t6,s6,80008764 <sub_4+0xc20>
8000871c:	0140b7b3          	sltu	a5,ra,s4
80008720:	01d09463          	bne	ra,t4,80008728 <sub_4+0xbe4>
80008724:	0141adb3          	slt	s11,gp,s4
80008728:	019fe0b3          	or	ra,t6,s9
8000872c:	03d09a63          	bne	ra,t4,80008760 <sub_4+0xc1c>
80008730:	e4ccbc97          	auipc	s9,0xe4ccb
80008734:	bde33713          	sltiu	a4,t1,-1058
80008738:	00d09993          	slli	s3,ra,0xd
8000873c:	019fe0b3          	or	ra,t6,s9
80008740:	bde33713          	sltiu	a4,t1,-1058
80008744:	02d1e863          	bltu	gp,a3,80008774 <sub_4+0xc30>
80008748:	01c45713          	srli	a4,s0,0x1c
8000874c:	024b7863          	bgeu	s6,tp,8000877c <sub_4+0xc38>
80008750:	044b7863          	bgeu	s6,tp,800087a0 <sub_4+0xc5c>
80008754:	4022ddb3          	sra	s11,t0,sp
80008758:	05d09663          	bne	ra,t4,800087a4 <sub_4+0xc60>
8000875c:	01537533          	and	a0,t1,s5
80008760:	4158d193          	srai	gp,a7,0x15
80008764:	00000013          	nop
80008768:	00d09993          	slli	s3,ra,0xd
8000876c:	41ae0833          	sub	a6,t3,s10
80008770:	01431733          	sll	a4,t1,s4
80008774:	01808433          	add	s0,ra,s8
80008778:	0072c133          	xor	sp,t0,t2
8000877c:	0307ca63          	blt	a5,a6,800087b0 <sub_4+0xc6c>
80008780:	044b7663          	bgeu	s6,tp,800087cc <sub_4+0xc88>
80008784:	0072c133          	xor	sp,t0,t2
80008788:	01431733          	sll	a4,t1,s4
8000878c:	a08c68b7          	lui	a7,0xa08c6
80008790:	01808433          	add	s0,ra,s8
80008794:	41ae0833          	sub	a6,t3,s10
80008798:	574a0113          	addi	sp,s4,1396
8000879c:	0ff0000f          	fence
800087a0:	0140b7b3          	sltu	a5,ra,s4
800087a4:	574a0113          	addi	sp,s4,1396
800087a8:	a08c68b7          	lui	a7,0xa08c6
800087ac:	01c45713          	srli	a4,s0,0x1c
800087b0:	00000013          	nop
800087b4:	03d09263          	bne	ra,t4,800087d8 <sub_4+0xc94>
800087b8:	0140b7b3          	sltu	a5,ra,s4
800087bc:	036fd263          	bge	t6,s6,800087e0 <sub_4+0xc9c>
800087c0:	0ff0000f          	fence
800087c4:	019fe0b3          	or	ra,t6,s9
800087c8:	019fe0b3          	or	ra,t6,s9
800087cc:	01950863          	beq	a0,s9,800087dc <sub_4+0xc98>
800087d0:	e5e3fb93          	andi	s7,t2,-418
800087d4:	bde33713          	sltiu	a4,t1,-1058
800087d8:	41ae0833          	sub	a6,t3,s10
800087dc:	0072c133          	xor	sp,t0,t2
800087e0:	036fd663          	bge	t6,s6,8000880c <sub_4+0xcc8>
800087e4:	574a0113          	addi	sp,s4,1396
800087e8:	a08c68b7          	lui	a7,0xa08c6
800087ec:	01465bb3          	srl	s7,a2,s4
800087f0:	0140b7b3          	sltu	a5,ra,s4
800087f4:	01950663          	beq	a0,s9,80008800 <sub_4+0xcbc>
800087f8:	0072c133          	xor	sp,t0,t2
800087fc:	dd88a013          	slti	zero,a7,-552
80008800:	01808433          	add	s0,ra,s8
80008804:	4022ddb3          	sra	s11,t0,sp
80008808:	41ae0833          	sub	a6,t3,s10
8000880c:	00d09993          	slli	s3,ra,0xd
80008810:	0307cc63          	blt	a5,a6,80008848 <sub_4+0xd04>
80008814:	02d1ee63          	bltu	gp,a3,80008850 <sub_4+0xd0c>
80008818:	00000013          	nop
8000881c:	024b7c63          	bgeu	s6,tp,80008854 <sub_4+0xd10>
80008820:	c66de993          	ori	s3,s11,-922
80008824:	0507c863          	blt	a5,a6,80008874 <sub_4+0xd30>
80008828:	056fd063          	bge	t6,s6,80008868 <sub_4+0xd24>
8000882c:	01431733          	sll	a4,t1,s4
80008830:	dd88a013          	slti	zero,a7,-552
80008834:	0000100f          	fence.i
80008838:	00000013          	nop
8000883c:	0307c863          	blt	a5,a6,8000886c <sub_4+0xd28>
80008840:	01537533          	and	a0,t1,s5
80008844:	c66de993          	ori	s3,s11,-922
80008848:	0141adb3          	slt	s11,gp,s4
8000884c:	01808433          	add	s0,ra,s8
80008850:	e4ccbc97          	auipc	s9,0xe4ccb
80008854:	0000100f          	fence.i
80008858:	0072c133          	xor	sp,t0,t2
8000885c:	03950c63          	beq	a0,s9,80008894 <sub_4+0xd50>
80008860:	0140b7b3          	sltu	a5,ra,s4
80008864:	e5e3fb93          	andi	s7,t2,-418
80008868:	0140b7b3          	sltu	a5,ra,s4
8000886c:	01808433          	add	s0,ra,s8
80008870:	004b7c63          	bgeu	s6,tp,80008888 <sub_4+0xd44>
80008874:	c66de993          	ori	s3,s11,-922
80008878:	0ff0000f          	fence
8000887c:	bde33713          	sltiu	a4,t1,-1058
80008880:	019fe0b3          	or	ra,t6,s9
80008884:	0140b7b3          	sltu	a5,ra,s4
80008888:	0140b7b3          	sltu	a5,ra,s4
8000888c:	05950863          	beq	a0,s9,800088dc <sub_4+0xd98>
80008890:	e5a8cb93          	xori	s7,a7,-422
80008894:	e4ccbc97          	auipc	s9,0xe4ccb
80008898:	00000013          	nop
8000889c:	00d09993          	slli	s3,ra,0xd
800088a0:	4022ddb3          	sra	s11,t0,sp
800088a4:	0141adb3          	slt	s11,gp,s4
800088a8:	a08c68b7          	lui	a7,0xa08c6
800088ac:	0072c133          	xor	sp,t0,t2
800088b0:	05950263          	beq	a0,s9,800088f4 <sub_4+0xdb0>
800088b4:	0072c133          	xor	sp,t0,t2
800088b8:	044b7663          	bgeu	s6,tp,80008904 <sub_4+0xdc0>
800088bc:	019fe0b3          	or	ra,t6,s9
800088c0:	02d1e263          	bltu	gp,a3,800088e4 <sub_4+0xda0>
800088c4:	0000100f          	fence.i
800088c8:	01808433          	add	s0,ra,s8
800088cc:	574a0113          	addi	sp,s4,1396
800088d0:	e5e3fb93          	andi	s7,t2,-418
800088d4:	0307ca63          	blt	a5,a6,80008908 <sub_4+0xdc4>
800088d8:	01d09463          	bne	ra,t4,800088e0 <sub_4+0xd9c>
800088dc:	044b7263          	bgeu	s6,tp,80008920 <sub_4+0xddc>
800088e0:	a08c68b7          	lui	a7,0xa08c6
800088e4:	4022ddb3          	sra	s11,t0,sp
800088e8:	01c45713          	srli	a4,s0,0x1c
800088ec:	0141adb3          	slt	s11,gp,s4
800088f0:	e5a8cb93          	xori	s7,a7,-422
800088f4:	01465bb3          	srl	s7,a2,s4
800088f8:	01808433          	add	s0,ra,s8
800088fc:	e5e3fb93          	andi	s7,t2,-418
80008900:	4022ddb3          	sra	s11,t0,sp
80008904:	41ae0833          	sub	a6,t3,s10
80008908:	01537533          	and	a0,t1,s5
8000890c:	004b7463          	bgeu	s6,tp,80008914 <sub_4+0xdd0>
80008910:	e4ccbc97          	auipc	s9,0xe4ccb
80008914:	0141adb3          	slt	s11,gp,s4
80008918:	019fe0b3          	or	ra,t6,s9
8000891c:	00d09993          	slli	s3,ra,0xd
80008920:	01c45713          	srli	a4,s0,0x1c
80008924:	a08c68b7          	lui	a7,0xa08c6
80008928:	0140b7b3          	sltu	a5,ra,s4
8000892c:	024b7c63          	bgeu	s6,tp,80008964 <sub_4+0xe20>
80008930:	574a0113          	addi	sp,s4,1396
80008934:	0307ca63          	blt	a5,a6,80008968 <sub_4+0xe24>
80008938:	01808433          	add	s0,ra,s8
8000893c:	4022ddb3          	sra	s11,t0,sp
80008940:	4158d193          	srai	gp,a7,0x15
80008944:	0141adb3          	slt	s11,gp,s4
80008948:	03d09263          	bne	ra,t4,8000896c <sub_4+0xe28>
8000894c:	019fe0b3          	or	ra,t6,s9
80008950:	0141adb3          	slt	s11,gp,s4
80008954:	e4ccbc97          	auipc	s9,0xe4ccb
80008958:	4158d193          	srai	gp,a7,0x15
8000895c:	bde33713          	sltiu	a4,t1,-1058
80008960:	c66de993          	ori	s3,s11,-922
80008964:	e5a8cb93          	xori	s7,a7,-422
80008968:	00d09993          	slli	s3,ra,0xd
8000896c:	00d09993          	slli	s3,ra,0xd
80008970:	03950e63          	beq	a0,s9,800089ac <sub_4+0xe68>
80008974:	a08c68b7          	lui	a7,0xa08c6
80008978:	41ae0833          	sub	a6,t3,s10
8000897c:	01c45713          	srli	a4,s0,0x1c
80008980:	01431733          	sll	a4,t1,s4
80008984:	01c45713          	srli	a4,s0,0x1c
80008988:	05d09663          	bne	ra,t4,800089d4 <sub_4+0xe90>
8000898c:	04d1e263          	bltu	gp,a3,800089d0 <sub_4+0xe8c>
80008990:	e5e3fb93          	andi	s7,t2,-418
80008994:	4022ddb3          	sra	s11,t0,sp
80008998:	03d09c63          	bne	ra,t4,800089d0 <sub_4+0xe8c>
8000899c:	0000100f          	fence.i
800089a0:	bde33713          	sltiu	a4,t1,-1058
800089a4:	00d09993          	slli	s3,ra,0xd
800089a8:	0107c463          	blt	a5,a6,800089b0 <sub_4+0xe6c>
800089ac:	4022ddb3          	sra	s11,t0,sp
800089b0:	05d09863          	bne	ra,t4,80008a00 <sub_4+0xebc>
800089b4:	00000013          	nop
800089b8:	c66de993          	ori	s3,s11,-922
800089bc:	0072c133          	xor	sp,t0,t2
800089c0:	01c45713          	srli	a4,s0,0x1c
800089c4:	01808433          	add	s0,ra,s8
800089c8:	0107c863          	blt	a5,a6,800089d8 <sub_4+0xe94>
800089cc:	0000100f          	fence.i
800089d0:	574a0113          	addi	sp,s4,1396
800089d4:	01465bb3          	srl	s7,a2,s4
800089d8:	044b7663          	bgeu	s6,tp,80008a24 <sub_4+0xee0>
800089dc:	0107c663          	blt	a5,a6,800089e8 <sub_4+0xea4>
800089e0:	0141adb3          	slt	s11,gp,s4
800089e4:	03950663          	beq	a0,s9,80008a10 <sub_4+0xecc>
800089e8:	0072c133          	xor	sp,t0,t2
800089ec:	dd88a013          	slti	zero,a7,-552
800089f0:	00000013          	nop
800089f4:	574a0113          	addi	sp,s4,1396
800089f8:	03950863          	beq	a0,s9,80008a28 <sub_4+0xee4>
800089fc:	056fd863          	bge	t6,s6,80008a4c <sub_4+0xf08>
80008a00:	01c45713          	srli	a4,s0,0x1c
80008a04:	01431733          	sll	a4,t1,s4
80008a08:	036fda63          	bge	t6,s6,80008a3c <sub_4+0xef8>
80008a0c:	bde33713          	sltiu	a4,t1,-1058
80008a10:	01431733          	sll	a4,t1,s4
80008a14:	c66de993          	ori	s3,s11,-922
80008a18:	01537533          	and	a0,t1,s5
80008a1c:	0140b7b3          	sltu	a5,ra,s4
80008a20:	0507c063          	blt	a5,a6,80008a60 <sub_4+0xf1c>
80008a24:	c66de993          	ori	s3,s11,-922
80008a28:	0307cc63          	blt	a5,a6,80008a60 <sub_4+0xf1c>
80008a2c:	41ae0833          	sub	a6,t3,s10
80008a30:	4022ddb3          	sra	s11,t0,sp
80008a34:	e4ccbc97          	auipc	s9,0xe4ccb
80008a38:	01537533          	and	a0,t1,s5
80008a3c:	c66de993          	ori	s3,s11,-922
80008a40:	0072c133          	xor	sp,t0,t2
80008a44:	e5e3fb93          	andi	s7,t2,-418
80008a48:	41ae0833          	sub	a6,t3,s10
80008a4c:	0141adb3          	slt	s11,gp,s4
80008a50:	01808433          	add	s0,ra,s8
80008a54:	00000013          	nop
80008a58:	0141adb3          	slt	s11,gp,s4
80008a5c:	4158d193          	srai	gp,a7,0x15
80008a60:	0072c133          	xor	sp,t0,t2
80008a64:	016fdc63          	bge	t6,s6,80008a7c <sub_4+0xf38>
80008a68:	e4ccbc97          	auipc	s9,0xe4ccb
80008a6c:	e5a8cb93          	xori	s7,a7,-422
80008a70:	4158d193          	srai	gp,a7,0x15
80008a74:	a08c68b7          	lui	a7,0xa08c6
80008a78:	01465bb3          	srl	s7,a2,s4
80008a7c:	41ae0833          	sub	a6,t3,s10
80008a80:	04d1e663          	bltu	gp,a3,80008acc <sub_4+0xf88>
80008a84:	01c45713          	srli	a4,s0,0x1c
80008a88:	01c45713          	srli	a4,s0,0x1c
80008a8c:	0141adb3          	slt	s11,gp,s4
80008a90:	04d1e263          	bltu	gp,a3,80008ad4 <sub_4+0xf90>
80008a94:	e5a8cb93          	xori	s7,a7,-422
80008a98:	00d1e463          	bltu	gp,a3,80008aa0 <sub_4+0xf5c>
80008a9c:	0ff0000f          	fence
80008aa0:	01431733          	sll	a4,t1,s4
80008aa4:	01808433          	add	s0,ra,s8
80008aa8:	e5a8cb93          	xori	s7,a7,-422
80008aac:	036fd863          	bge	t6,s6,80008adc <sub_4+0xf98>
80008ab0:	a08c68b7          	lui	a7,0xa08c6
80008ab4:	0072c133          	xor	sp,t0,t2
80008ab8:	01808433          	add	s0,ra,s8
80008abc:	0140b7b3          	sltu	a5,ra,s4
80008ac0:	00d1e463          	bltu	gp,a3,80008ac8 <sub_4+0xf84>
80008ac4:	0140b7b3          	sltu	a5,ra,s4
80008ac8:	e5a8cb93          	xori	s7,a7,-422
80008acc:	e5a8cb93          	xori	s7,a7,-422
80008ad0:	0141adb3          	slt	s11,gp,s4
80008ad4:	044b7863          	bgeu	s6,tp,80008b24 <sub_4+0xfe0>
80008ad8:	00000013          	nop
80008adc:	01537533          	and	a0,t1,s5
80008ae0:	41ae0833          	sub	a6,t3,s10
80008ae4:	e4ccbc97          	auipc	s9,0xe4ccb
80008ae8:	dd88a013          	slti	zero,a7,-552
80008aec:	0140b7b3          	sltu	a5,ra,s4
80008af0:	e5e3fb93          	andi	s7,t2,-418
80008af4:	036fd863          	bge	t6,s6,80008b24 <sub_4+0xfe0>
80008af8:	01537533          	and	a0,t1,s5
80008afc:	4022ddb3          	sra	s11,t0,sp
80008b00:	0000100f          	fence.i
80008b04:	01c45713          	srli	a4,s0,0x1c
80008b08:	e5a8cb93          	xori	s7,a7,-422
80008b0c:	03d09a63          	bne	ra,t4,80008b40 <sub_4+0xffc>
80008b10:	41ae0833          	sub	a6,t3,s10
80008b14:	036fd263          	bge	t6,s6,80008b38 <sub_4+0xff4>
80008b18:	036fd263          	bge	t6,s6,80008b3c <sub_4+0xff8>
80008b1c:	a08c68b7          	lui	a7,0xa08c6
80008b20:	0000100f          	fence.i
80008b24:	0000100f          	fence.i
80008b28:	01808433          	add	s0,ra,s8
80008b2c:	0ff0000f          	fence
80008b30:	01808433          	add	s0,ra,s8
80008b34:	00000013          	nop
80008b38:	05950663          	beq	a0,s9,80008b84 <sub_4+0x1040>
80008b3c:	e5a8cb93          	xori	s7,a7,-422
80008b40:	019fe0b3          	or	ra,t6,s9
80008b44:	0072c133          	xor	sp,t0,t2
80008b48:	01465bb3          	srl	s7,a2,s4
80008b4c:	4158d193          	srai	gp,a7,0x15
80008b50:	036fdc63          	bge	t6,s6,80008b88 <sub_4+0x1044>
80008b54:	01465bb3          	srl	s7,a2,s4
80008b58:	00000013          	nop
80008b5c:	0000100f          	fence.i
80008b60:	00d09993          	slli	s3,ra,0xd
80008b64:	04d1e863          	bltu	gp,a3,80008bb4 <sub_4+0x1070>
80008b68:	0000100f          	fence.i
80008b6c:	01465bb3          	srl	s7,a2,s4
80008b70:	e5a8cb93          	xori	s7,a7,-422
80008b74:	01c45713          	srli	a4,s0,0x1c
80008b78:	0ff0000f          	fence
80008b7c:	0307c263          	blt	a5,a6,80008ba0 <sub_4+0x105c>
80008b80:	01c45713          	srli	a4,s0,0x1c
80008b84:	4158d193          	srai	gp,a7,0x15
80008b88:	016fd463          	bge	t6,s6,80008b90 <sub_4+0x104c>
80008b8c:	056fd863          	bge	t6,s6,80008bdc <sub_4+0x1098>
80008b90:	41ae0833          	sub	a6,t3,s10
80008b94:	01c45713          	srli	a4,s0,0x1c
80008b98:	c66de993          	ori	s3,s11,-922
80008b9c:	4158d193          	srai	gp,a7,0x15
80008ba0:	0072c133          	xor	sp,t0,t2
80008ba4:	01465bb3          	srl	s7,a2,s4
80008ba8:	0141adb3          	slt	s11,gp,s4
80008bac:	03950263          	beq	a0,s9,80008bd0 <sub_4+0x108c>
80008bb0:	019fe0b3          	or	ra,t6,s9
80008bb4:	574a0113          	addi	sp,s4,1396
80008bb8:	e4ccbc97          	auipc	s9,0xe4ccb
80008bbc:	dd88a013          	slti	zero,a7,-552
80008bc0:	00d09993          	slli	s3,ra,0xd
80008bc4:	0072c133          	xor	sp,t0,t2
80008bc8:	00d09993          	slli	s3,ra,0xd
80008bcc:	016fdc63          	bge	t6,s6,80008be4 <sub_4+0x10a0>
80008bd0:	0307ca63          	blt	a5,a6,80008c04 <sub_4+0x10c0>
80008bd4:	4022ddb3          	sra	s11,t0,sp
80008bd8:	01c45713          	srli	a4,s0,0x1c
80008bdc:	bde33713          	sltiu	a4,t1,-1058
80008be0:	e5a8cb93          	xori	s7,a7,-422
80008be4:	4022ddb3          	sra	s11,t0,sp
80008be8:	01c45713          	srli	a4,s0,0x1c
80008bec:	41ae0833          	sub	a6,t3,s10
80008bf0:	01537533          	and	a0,t1,s5
80008bf4:	01431733          	sll	a4,t1,s4
80008bf8:	01465bb3          	srl	s7,a2,s4
80008bfc:	01c45713          	srli	a4,s0,0x1c
80008c00:	024b7c63          	bgeu	s6,tp,80008c38 <sub_4+0x10f4>
80008c04:	036fd263          	bge	t6,s6,80008c28 <sub_4+0x10e4>
80008c08:	01537533          	and	a0,t1,s5
80008c0c:	a08c68b7          	lui	a7,0xa08c6
80008c10:	a08c68b7          	lui	a7,0xa08c6
80008c14:	0141adb3          	slt	s11,gp,s4
80008c18:	e5e3fb93          	andi	s7,t2,-418
80008c1c:	00d09993          	slli	s3,ra,0xd
80008c20:	0072c133          	xor	sp,t0,t2
80008c24:	e5a8cb93          	xori	s7,a7,-422
80008c28:	bde33713          	sltiu	a4,t1,-1058
80008c2c:	01c45713          	srli	a4,s0,0x1c
80008c30:	0507c263          	blt	a5,a6,80008c74 <sub_4+0x1130>
80008c34:	574a0113          	addi	sp,s4,1396
80008c38:	dd88a013          	slti	zero,a7,-552
80008c3c:	e5e3fb93          	andi	s7,t2,-418
80008c40:	01c45713          	srli	a4,s0,0x1c
80008c44:	a08c68b7          	lui	a7,0xa08c6
80008c48:	0000100f          	fence.i
80008c4c:	01950863          	beq	a0,s9,80008c5c <sub_4+0x1118>
80008c50:	03d09863          	bne	ra,t4,80008c80 <sub_4+0x113c>
80008c54:	c66de993          	ori	s3,s11,-922
80008c58:	0ff0000f          	fence
80008c5c:	01950463          	beq	a0,s9,80008c64 <sub_4+0x1120>
80008c60:	bde33713          	sltiu	a4,t1,-1058
80008c64:	4158d193          	srai	gp,a7,0x15
80008c68:	036fda63          	bge	t6,s6,80008c9c <sub_4+0x1158>
80008c6c:	41ae0833          	sub	a6,t3,s10
80008c70:	0072c133          	xor	sp,t0,t2
80008c74:	05950063          	beq	a0,s9,80008cb4 <sub_4+0x1170>
80008c78:	01465bb3          	srl	s7,a2,s4
80008c7c:	bde33713          	sltiu	a4,t1,-1058
80008c80:	00000013          	nop
80008c84:	4022ddb3          	sra	s11,t0,sp
80008c88:	00000013          	nop
80008c8c:	044b7663          	bgeu	s6,tp,80008cd8 <sub_4+0x1194>
80008c90:	4158d193          	srai	gp,a7,0x15
80008c94:	0000100f          	fence.i
80008c98:	0ff0000f          	fence
80008c9c:	01808433          	add	s0,ra,s8
80008ca0:	00d09993          	slli	s3,ra,0xd
80008ca4:	00000013          	nop
80008ca8:	0072c133          	xor	sp,t0,t2
80008cac:	01c45713          	srli	a4,s0,0x1c
80008cb0:	e5e3fb93          	andi	s7,t2,-418
80008cb4:	41ae0833          	sub	a6,t3,s10
80008cb8:	e4ccbc97          	auipc	s9,0xe4ccb
80008cbc:	574a0113          	addi	sp,s4,1396
80008cc0:	04d1e663          	bltu	gp,a3,80008d0c <sub_4+0x11c8>
80008cc4:	024b7663          	bgeu	s6,tp,80008cf0 <sub_4+0x11ac>
80008cc8:	01465bb3          	srl	s7,a2,s4
80008ccc:	0141adb3          	slt	s11,gp,s4
80008cd0:	e5a8cb93          	xori	s7,a7,-422
80008cd4:	00d09993          	slli	s3,ra,0xd
80008cd8:	0307ce63          	blt	a5,a6,80008d14 <sub_4+0x11d0>
80008cdc:	0ff0000f          	fence
80008ce0:	574a0113          	addi	sp,s4,1396
80008ce4:	0072c133          	xor	sp,t0,t2
80008ce8:	0000100f          	fence.i
80008cec:	0072c133          	xor	sp,t0,t2
80008cf0:	e5e3fb93          	andi	s7,t2,-418
80008cf4:	00d09993          	slli	s3,ra,0xd
80008cf8:	01537533          	and	a0,t1,s5
80008cfc:	02d1e863          	bltu	gp,a3,80008d2c <sub_4+0x11e8>
80008d00:	01c45713          	srli	a4,s0,0x1c
80008d04:	004b7463          	bgeu	s6,tp,80008d0c <sub_4+0x11c8>
80008d08:	01808433          	add	s0,ra,s8
80008d0c:	4158d193          	srai	gp,a7,0x15
80008d10:	4022ddb3          	sra	s11,t0,sp
80008d14:	0ff0000f          	fence
80008d18:	056fd663          	bge	t6,s6,80008d64 <sub_4+0x1220>
80008d1c:	4158d193          	srai	gp,a7,0x15
80008d20:	e5a8cb93          	xori	s7,a7,-422
80008d24:	0072c133          	xor	sp,t0,t2
80008d28:	044b7263          	bgeu	s6,tp,80008d6c <sub_4+0x1228>
80008d2c:	01465bb3          	srl	s7,a2,s4
80008d30:	01537533          	and	a0,t1,s5
80008d34:	036fd863          	bge	t6,s6,80008d64 <sub_4+0x1220>
80008d38:	00d1e663          	bltu	gp,a3,80008d44 <sub_4+0x1200>
80008d3c:	01431733          	sll	a4,t1,s4
80008d40:	e5e3fb93          	andi	s7,t2,-418
80008d44:	0000100f          	fence.i
80008d48:	0ff0000f          	fence
80008d4c:	bde33713          	sltiu	a4,t1,-1058
80008d50:	41ae0833          	sub	a6,t3,s10
80008d54:	0507c663          	blt	a5,a6,80008da0 <sub_4+0x125c>
80008d58:	036fda63          	bge	t6,s6,80008d8c <sub_4+0x1248>
80008d5c:	01465bb3          	srl	s7,a2,s4
80008d60:	4022ddb3          	sra	s11,t0,sp
80008d64:	0000100f          	fence.i
80008d68:	03d09c63          	bne	ra,t4,80008da0 <sub_4+0x125c>
80008d6c:	4022ddb3          	sra	s11,t0,sp
80008d70:	05d09863          	bne	ra,t4,80008dc0 <sub_4+0x127c>
80008d74:	05d09663          	bne	ra,t4,80008dc0 <sub_4+0x127c>
80008d78:	dd88a013          	slti	zero,a7,-552
80008d7c:	574a0113          	addi	sp,s4,1396
80008d80:	04d1e663          	bltu	gp,a3,80008dcc <sub_4+0x1288>
80008d84:	4022ddb3          	sra	s11,t0,sp
80008d88:	00000013          	nop
80008d8c:	0141adb3          	slt	s11,gp,s4
80008d90:	01c45713          	srli	a4,s0,0x1c
80008d94:	c66de993          	ori	s3,s11,-922
80008d98:	03950c63          	beq	a0,s9,80008dd0 <sub_4+0x128c>
80008d9c:	024b7863          	bgeu	s6,tp,80008dcc <sub_4+0x1288>
80008da0:	a08c68b7          	lui	a7,0xa08c6
80008da4:	0ff0000f          	fence
80008da8:	03950c63          	beq	a0,s9,80008de0 <sub_4+0x129c>
80008dac:	e4ccbc97          	auipc	s9,0xe4ccb
80008db0:	0107c863          	blt	a5,a6,80008dc0 <sub_4+0x127c>
80008db4:	bde33713          	sltiu	a4,t1,-1058
80008db8:	dd88a013          	slti	zero,a7,-552
80008dbc:	41ae0833          	sub	a6,t3,s10
80008dc0:	dd88a013          	slti	zero,a7,-552
80008dc4:	e4ccbc97          	auipc	s9,0xe4ccb
80008dc8:	01950463          	beq	a0,s9,80008dd0 <sub_4+0x128c>
80008dcc:	e5e3fb93          	andi	s7,t2,-418
80008dd0:	00d09993          	slli	s3,ra,0xd
80008dd4:	0507c863          	blt	a5,a6,80008e24 <sub_4+0x12e0>
80008dd8:	a08c68b7          	lui	a7,0xa08c6
80008ddc:	036fde63          	bge	t6,s6,80008e18 <sub_4+0x12d4>
80008de0:	04d1e263          	bltu	gp,a3,80008e24 <sub_4+0x12e0>
80008de4:	01431733          	sll	a4,t1,s4
80008de8:	dd88a013          	slti	zero,a7,-552
80008dec:	01808433          	add	s0,ra,s8
80008df0:	bde33713          	sltiu	a4,t1,-1058
80008df4:	01431733          	sll	a4,t1,s4
80008df8:	a08c68b7          	lui	a7,0xa08c6
80008dfc:	0000100f          	fence.i
80008e00:	0141adb3          	slt	s11,gp,s4
80008e04:	019fe0b3          	or	ra,t6,s9
80008e08:	4022ddb3          	sra	s11,t0,sp
80008e0c:	05d09263          	bne	ra,t4,80008e50 <sub_4+0x130c>
80008e10:	004b7463          	bgeu	s6,tp,80008e18 <sub_4+0x12d4>
80008e14:	0140b7b3          	sltu	a5,ra,s4
80008e18:	01465bb3          	srl	s7,a2,s4
80008e1c:	01431733          	sll	a4,t1,s4
80008e20:	41ae0833          	sub	a6,t3,s10
80008e24:	dd88a013          	slti	zero,a7,-552
80008e28:	0072c133          	xor	sp,t0,t2
80008e2c:	e5e3fb93          	andi	s7,t2,-418
80008e30:	c66de993          	ori	s3,s11,-922
80008e34:	01808433          	add	s0,ra,s8
80008e38:	01431733          	sll	a4,t1,s4
80008e3c:	41ae0833          	sub	a6,t3,s10
80008e40:	01808433          	add	s0,ra,s8
80008e44:	e5a8cb93          	xori	s7,a7,-422
80008e48:	0140b7b3          	sltu	a5,ra,s4
80008e4c:	01465bb3          	srl	s7,a2,s4
80008e50:	0000100f          	fence.i
80008e54:	c66de993          	ori	s3,s11,-922
80008e58:	e4ccbc97          	auipc	s9,0xe4ccb
80008e5c:	0000100f          	fence.i
80008e60:	024b7863          	bgeu	s6,tp,80008e90 <sub_4+0x134c>
80008e64:	0307cc63          	blt	a5,a6,80008e9c <sub_4+0x1358>
80008e68:	00d09993          	slli	s3,ra,0xd
80008e6c:	00d09993          	slli	s3,ra,0xd
80008e70:	a08c68b7          	lui	a7,0xa08c6
80008e74:	00000013          	nop
80008e78:	a08c68b7          	lui	a7,0xa08c6
80008e7c:	0ff0000f          	fence
80008e80:	0107c463          	blt	a5,a6,80008e88 <sub_4+0x1344>
80008e84:	00000013          	nop
80008e88:	01431733          	sll	a4,t1,s4
80008e8c:	02d1ea63          	bltu	gp,a3,80008ec0 <sub_4+0x137c>
80008e90:	01950c63          	beq	a0,s9,80008ea8 <sub_4+0x1364>
80008e94:	00d09993          	slli	s3,ra,0xd
80008e98:	01537533          	and	a0,t1,s5
80008e9c:	0141adb3          	slt	s11,gp,s4
80008ea0:	4158d193          	srai	gp,a7,0x15
80008ea4:	0072c133          	xor	sp,t0,t2
80008ea8:	c66de993          	ori	s3,s11,-922
80008eac:	0072c133          	xor	sp,t0,t2
80008eb0:	4158d193          	srai	gp,a7,0x15
80008eb4:	bde33713          	sltiu	a4,t1,-1058
80008eb8:	0140b7b3          	sltu	a5,ra,s4
80008ebc:	e5e3fb93          	andi	s7,t2,-418
80008ec0:	e5a8cb93          	xori	s7,a7,-422
80008ec4:	0000100f          	fence.i
80008ec8:	0507c063          	blt	a5,a6,80008f08 <sub_4+0x13c4>
80008ecc:	01537533          	and	a0,t1,s5
80008ed0:	574a0113          	addi	sp,s4,1396
80008ed4:	4022ddb3          	sra	s11,t0,sp
80008ed8:	00000013          	nop
80008edc:	e5a8cb93          	xori	s7,a7,-422
80008ee0:	a08c68b7          	lui	a7,0xa08c6
80008ee4:	4158d193          	srai	gp,a7,0x15
80008ee8:	4022ddb3          	sra	s11,t0,sp
80008eec:	4158d193          	srai	gp,a7,0x15
80008ef0:	bde33713          	sltiu	a4,t1,-1058
80008ef4:	01431733          	sll	a4,t1,s4
80008ef8:	02d1ea63          	bltu	gp,a3,80008f2c <sub_4+0x13e8>
80008efc:	0072c133          	xor	sp,t0,t2
80008f00:	c66de993          	ori	s3,s11,-922
80008f04:	00000013          	nop
80008f08:	01808433          	add	s0,ra,s8
80008f0c:	036fd263          	bge	t6,s6,80008f30 <sub_4+0x13ec>
80008f10:	c66de993          	ori	s3,s11,-922
80008f14:	0000100f          	fence.i
80008f18:	01537533          	and	a0,t1,s5
80008f1c:	dd88a013          	slti	zero,a7,-552
80008f20:	c66de993          	ori	s3,s11,-922
80008f24:	01808433          	add	s0,ra,s8
80008f28:	0140b7b3          	sltu	a5,ra,s4
80008f2c:	01431733          	sll	a4,t1,s4
80008f30:	0140b7b3          	sltu	a5,ra,s4
80008f34:	0107c663          	blt	a5,a6,80008f40 <sub_4+0x13fc>
80008f38:	01465bb3          	srl	s7,a2,s4
80008f3c:	03950a63          	beq	a0,s9,80008f70 <sub_4+0x142c>
80008f40:	e4ccbc97          	auipc	s9,0xe4ccb
80008f44:	e4ccbc97          	auipc	s9,0xe4ccb
80008f48:	00d09993          	slli	s3,ra,0xd
80008f4c:	01808433          	add	s0,ra,s8
80008f50:	03950263          	beq	a0,s9,80008f74 <sub_4+0x1430>
80008f54:	019fe0b3          	or	ra,t6,s9
80008f58:	01537533          	and	a0,t1,s5
80008f5c:	e5e3fb93          	andi	s7,t2,-418
80008f60:	0ff0000f          	fence
80008f64:	0307c863          	blt	a5,a6,80008f94 <sub_4+0x1450>
80008f68:	01c45713          	srli	a4,s0,0x1c
80008f6c:	03950263          	beq	a0,s9,80008f90 <sub_4+0x144c>
80008f70:	4022ddb3          	sra	s11,t0,sp
80008f74:	c66de993          	ori	s3,s11,-922
80008f78:	41ae0833          	sub	a6,t3,s10
80008f7c:	019fe0b3          	or	ra,t6,s9
80008f80:	01465bb3          	srl	s7,a2,s4
80008f84:	036fd663          	bge	t6,s6,80008fb0 <sub_4+0x146c>
80008f88:	41ae0833          	sub	a6,t3,s10
80008f8c:	e5e3fb93          	andi	s7,t2,-418
80008f90:	574a0113          	addi	sp,s4,1396
80008f94:	04d1e663          	bltu	gp,a3,80008fe0 <sub_4+0x149c>
80008f98:	0507c863          	blt	a5,a6,80008fe8 <sub_4+0x14a4>
80008f9c:	e4ccbc97          	auipc	s9,0xe4ccb
80008fa0:	0ff0000f          	fence
80008fa4:	056fd663          	bge	t6,s6,80008ff0 <sub_4+0x14ac>
80008fa8:	e5e3fb93          	andi	s7,t2,-418
80008fac:	044b7863          	bgeu	s6,tp,80008ffc <sub_4+0x14b8>
80008fb0:	0141adb3          	slt	s11,gp,s4
80008fb4:	00000013          	nop
80008fb8:	019fe0b3          	or	ra,t6,s9
80008fbc:	0140b7b3          	sltu	a5,ra,s4
80008fc0:	dd88a013          	slti	zero,a7,-552
80008fc4:	00000013          	nop
80008fc8:	4022ddb3          	sra	s11,t0,sp
80008fcc:	01d09c63          	bne	ra,t4,80008fe4 <sub_4+0x14a0>
80008fd0:	4158d193          	srai	gp,a7,0x15
80008fd4:	41ae0833          	sub	a6,t3,s10
80008fd8:	036fda63          	bge	t6,s6,8000900c <sub_4+0x14c8>
80008fdc:	004b7463          	bgeu	s6,tp,80008fe4 <sub_4+0x14a0>
80008fe0:	01431733          	sll	a4,t1,s4
80008fe4:	dd88a013          	slti	zero,a7,-552
80008fe8:	05950663          	beq	a0,s9,80009034 <sub_4+0x14f0>
80008fec:	0000100f          	fence.i
80008ff0:	c66de993          	ori	s3,s11,-922
80008ff4:	41ae0833          	sub	a6,t3,s10
80008ff8:	4022ddb3          	sra	s11,t0,sp
80008ffc:	bde33713          	sltiu	a4,t1,-1058
80009000:	01465bb3          	srl	s7,a2,s4
80009004:	0000100f          	fence.i
80009008:	a08c68b7          	lui	a7,0xa08c6
8000900c:	41ae0833          	sub	a6,t3,s10
80009010:	dd88a013          	slti	zero,a7,-552
80009014:	bde33713          	sltiu	a4,t1,-1058
80009018:	0140b7b3          	sltu	a5,ra,s4
8000901c:	00000013          	nop
80009020:	01465bb3          	srl	s7,a2,s4
80009024:	00000013          	nop
80009028:	056fd263          	bge	t6,s6,8000906c <sub_4+0x1528>
8000902c:	e5a8cb93          	xori	s7,a7,-422
80009030:	41ae0833          	sub	a6,t3,s10
80009034:	e5e3fb93          	andi	s7,t2,-418
80009038:	0140b7b3          	sltu	a5,ra,s4
8000903c:	a08c68b7          	lui	a7,0xa08c6
80009040:	e4ccbc97          	auipc	s9,0xe4ccb
80009044:	4158d193          	srai	gp,a7,0x15
80009048:	01537533          	and	a0,t1,s5
8000904c:	0072c133          	xor	sp,t0,t2
80009050:	4022ddb3          	sra	s11,t0,sp
80009054:	0140b7b3          	sltu	a5,ra,s4
80009058:	03950263          	beq	a0,s9,8000907c <sub_4+0x1538>
8000905c:	e4ccbc97          	auipc	s9,0xe4ccb
80009060:	bde33713          	sltiu	a4,t1,-1058
80009064:	bde33713          	sltiu	a4,t1,-1058
80009068:	00000013          	nop
8000906c:	dd88a013          	slti	zero,a7,-552
80009070:	574a0113          	addi	sp,s4,1396
80009074:	04d1e663          	bltu	gp,a3,800090c0 <sub_4+0x157c>
80009078:	4158d193          	srai	gp,a7,0x15
8000907c:	016fd663          	bge	t6,s6,80009088 <sub_4+0x1544>
80009080:	01537533          	and	a0,t1,s5
80009084:	02d1ec63          	bltu	gp,a3,800090bc <sub_4+0x1578>
80009088:	0000100f          	fence.i
8000908c:	03d09a63          	bne	ra,t4,800090c0 <sub_4+0x157c>
80009090:	e4ccbc97          	auipc	s9,0xe4ccb
80009094:	a08c68b7          	lui	a7,0xa08c6
80009098:	e5a8cb93          	xori	s7,a7,-422
8000909c:	bde33713          	sltiu	a4,t1,-1058
800090a0:	574a0113          	addi	sp,s4,1396
800090a4:	036fd863          	bge	t6,s6,800090d4 <sub_4+0x1590>
800090a8:	00d09993          	slli	s3,ra,0xd
800090ac:	0141adb3          	slt	s11,gp,s4
800090b0:	0072c133          	xor	sp,t0,t2
800090b4:	019fe0b3          	or	ra,t6,s9
800090b8:	0141adb3          	slt	s11,gp,s4
800090bc:	03d09263          	bne	ra,t4,800090e0 <sub_4+0x159c>
800090c0:	016fd863          	bge	t6,s6,800090d0 <sub_4+0x158c>
800090c4:	0107c463          	blt	a5,a6,800090cc <sub_4+0x1588>
800090c8:	dd88a013          	slti	zero,a7,-552
800090cc:	e5a8cb93          	xori	s7,a7,-422
800090d0:	05d09863          	bne	ra,t4,80009120 <sub_4+0x15dc>
800090d4:	01431733          	sll	a4,t1,s4
800090d8:	00d09993          	slli	s3,ra,0xd
800090dc:	00d09993          	slli	s3,ra,0xd
800090e0:	05950263          	beq	a0,s9,80009124 <sub_4+0x15e0>
800090e4:	01431733          	sll	a4,t1,s4
800090e8:	01808433          	add	s0,ra,s8
800090ec:	0072c133          	xor	sp,t0,t2
800090f0:	574a0113          	addi	sp,s4,1396
800090f4:	02d1ec63          	bltu	gp,a3,8000912c <sub_4+0x15e8>
800090f8:	0141adb3          	slt	s11,gp,s4
800090fc:	c66de993          	ori	s3,s11,-922
80009100:	e4ccbc97          	auipc	s9,0xe4ccb
80009104:	c66de993          	ori	s3,s11,-922
80009108:	00d09993          	slli	s3,ra,0xd
8000910c:	dd88a013          	slti	zero,a7,-552
80009110:	a08c68b7          	lui	a7,0xa08c6
80009114:	0140b7b3          	sltu	a5,ra,s4
80009118:	03d09863          	bne	ra,t4,80009148 <sub_4+0x1604>
8000911c:	e5a8cb93          	xori	s7,a7,-422
80009120:	00000013          	nop
80009124:	e4ccbc97          	auipc	s9,0xe4ccb
80009128:	0307c663          	blt	a5,a6,80009154 <sub_4+0x1610>
8000912c:	e5a8cb93          	xori	s7,a7,-422
80009130:	bde33713          	sltiu	a4,t1,-1058
80009134:	dd88a013          	slti	zero,a7,-552
80009138:	0140b7b3          	sltu	a5,ra,s4
8000913c:	4022ddb3          	sra	s11,t0,sp
80009140:	019fe0b3          	or	ra,t6,s9
80009144:	c66de993          	ori	s3,s11,-922
80009148:	019fe0b3          	or	ra,t6,s9
8000914c:	00d09993          	slli	s3,ra,0xd
80009150:	0ff0000f          	fence
80009154:	0307ce63          	blt	a5,a6,80009190 <sub_4+0x164c>
80009158:	41ae0833          	sub	a6,t3,s10
8000915c:	4158d193          	srai	gp,a7,0x15
80009160:	0140b7b3          	sltu	a5,ra,s4
80009164:	e5e3fb93          	andi	s7,t2,-418
80009168:	e4ccbc97          	auipc	s9,0xe4ccb
8000916c:	0140b7b3          	sltu	a5,ra,s4
80009170:	0140b7b3          	sltu	a5,ra,s4
80009174:	00d09993          	slli	s3,ra,0xd
80009178:	e5a8cb93          	xori	s7,a7,-422
8000917c:	01431733          	sll	a4,t1,s4
80009180:	dd88a013          	slti	zero,a7,-552
80009184:	574a0113          	addi	sp,s4,1396
80009188:	a08c68b7          	lui	a7,0xa08c6
8000918c:	4158d193          	srai	gp,a7,0x15
80009190:	4158d193          	srai	gp,a7,0x15
80009194:	41ae0833          	sub	a6,t3,s10
80009198:	01431733          	sll	a4,t1,s4
8000919c:	0ff0000f          	fence
800091a0:	0ff0000f          	fence
800091a4:	01c45713          	srli	a4,s0,0x1c
800091a8:	00000013          	nop
800091ac:	04d1e863          	bltu	gp,a3,800091fc <sub_4+0x16b8>
800091b0:	a08c68b7          	lui	a7,0xa08c6
800091b4:	e5a8cb93          	xori	s7,a7,-422
800091b8:	e4ccbc97          	auipc	s9,0xe4ccb
800091bc:	41ae0833          	sub	a6,t3,s10
800091c0:	0307c863          	blt	a5,a6,800091f0 <sub_4+0x16ac>
800091c4:	0141adb3          	slt	s11,gp,s4
800091c8:	4158d193          	srai	gp,a7,0x15
800091cc:	4158d193          	srai	gp,a7,0x15
800091d0:	c66de993          	ori	s3,s11,-922
800091d4:	01c45713          	srli	a4,s0,0x1c
800091d8:	00000013          	nop
800091dc:	0000100f          	fence.i
800091e0:	01431733          	sll	a4,t1,s4
800091e4:	04d1e663          	bltu	gp,a3,80009230 <sub_4+0x16ec>
800091e8:	01537533          	and	a0,t1,s5
800091ec:	0ff0000f          	fence
800091f0:	0072c133          	xor	sp,t0,t2
800091f4:	bde33713          	sltiu	a4,t1,-1058
800091f8:	0000100f          	fence.i
800091fc:	4158d193          	srai	gp,a7,0x15
80009200:	dd88a013          	slti	zero,a7,-552
80009204:	0000100f          	fence.i
80009208:	a08c68b7          	lui	a7,0xa08c6
8000920c:	0ff0000f          	fence
80009210:	01431733          	sll	a4,t1,s4
80009214:	01c45713          	srli	a4,s0,0x1c
80009218:	e4ccbc97          	auipc	s9,0xe4ccb
8000921c:	05d09663          	bne	ra,t4,80009268 <sub_4+0x1724>
80009220:	01808433          	add	s0,ra,s8
80009224:	05d09063          	bne	ra,t4,80009264 <sub_4+0x1720>
80009228:	41ae0833          	sub	a6,t3,s10
8000922c:	0072c133          	xor	sp,t0,t2
80009230:	4022ddb3          	sra	s11,t0,sp
80009234:	01465bb3          	srl	s7,a2,s4
80009238:	01465bb3          	srl	s7,a2,s4
8000923c:	044b7863          	bgeu	s6,tp,8000928c <sub_4+0x1748>
80009240:	4022ddb3          	sra	s11,t0,sp
80009244:	0307cc63          	blt	a5,a6,8000927c <sub_4+0x1738>
80009248:	bde33713          	sltiu	a4,t1,-1058
8000924c:	00000013          	nop
80009250:	0307ca63          	blt	a5,a6,80009284 <sub_4+0x1740>
80009254:	574a0113          	addi	sp,s4,1396
80009258:	01465bb3          	srl	s7,a2,s4
8000925c:	41ae0833          	sub	a6,t3,s10
80009260:	4158d193          	srai	gp,a7,0x15
80009264:	0000100f          	fence.i
80009268:	4022ddb3          	sra	s11,t0,sp
8000926c:	e5a8cb93          	xori	s7,a7,-422
80009270:	bde33713          	sltiu	a4,t1,-1058
80009274:	0141adb3          	slt	s11,gp,s4
80009278:	00d1e463          	bltu	gp,a3,80009280 <sub_4+0x173c>
8000927c:	4158d193          	srai	gp,a7,0x15
80009280:	00d09993          	slli	s3,ra,0xd
80009284:	036fd263          	bge	t6,s6,800092a8 <sub_4+0x1764>
80009288:	019fe0b3          	or	ra,t6,s9
8000928c:	e4ccbc97          	auipc	s9,0xe4ccb
80009290:	01808433          	add	s0,ra,s8
80009294:	0141adb3          	slt	s11,gp,s4
80009298:	0ff0000f          	fence
8000929c:	e5a8cb93          	xori	s7,a7,-422
800092a0:	dd88a013          	slti	zero,a7,-552
800092a4:	02d1ec63          	bltu	gp,a3,800092dc <sub_4+0x1798>
800092a8:	e5a8cb93          	xori	s7,a7,-422
800092ac:	01808433          	add	s0,ra,s8
800092b0:	e5e3fb93          	andi	s7,t2,-418
800092b4:	c66de993          	ori	s3,s11,-922
800092b8:	0141adb3          	slt	s11,gp,s4
800092bc:	04d1e663          	bltu	gp,a3,80009308 <sub_4+0x17c4>
800092c0:	019fe0b3          	or	ra,t6,s9
800092c4:	02d1e863          	bltu	gp,a3,800092f4 <sub_4+0x17b0>
800092c8:	0072c133          	xor	sp,t0,t2
800092cc:	4158d193          	srai	gp,a7,0x15
800092d0:	e4ccbc97          	auipc	s9,0xe4ccb
800092d4:	41ae0833          	sub	a6,t3,s10
800092d8:	0072c133          	xor	sp,t0,t2
800092dc:	0140b7b3          	sltu	a5,ra,s4
800092e0:	0000100f          	fence.i
800092e4:	0507c263          	blt	a5,a6,80009328 <sub_4+0x17e4>
800092e8:	01537533          	and	a0,t1,s5
800092ec:	01465bb3          	srl	s7,a2,s4
800092f0:	41ae0833          	sub	a6,t3,s10
800092f4:	0ff0000f          	fence
800092f8:	0107c463          	blt	a5,a6,80009300 <sub_4+0x17bc>
800092fc:	41ae0833          	sub	a6,t3,s10
80009300:	c66de993          	ori	s3,s11,-922
80009304:	05950863          	beq	a0,s9,80009354 <sub_4+0x1810>
80009308:	01808433          	add	s0,ra,s8
8000930c:	0307ce63          	blt	a5,a6,80009348 <sub_4+0x1804>
80009310:	0ff0000f          	fence
80009314:	bde33713          	sltiu	a4,t1,-1058
80009318:	e4ccbc97          	auipc	s9,0xe4ccb
8000931c:	00000013          	nop
80009320:	00d09993          	slli	s3,ra,0xd
80009324:	01c45713          	srli	a4,s0,0x1c
80009328:	004b7463          	bgeu	s6,tp,80009330 <sub_4+0x17ec>
8000932c:	bde33713          	sltiu	a4,t1,-1058
80009330:	0000100f          	fence.i
80009334:	41ae0833          	sub	a6,t3,s10
80009338:	03950263          	beq	a0,s9,8000935c <sub_4+0x1818>
8000933c:	019fe0b3          	or	ra,t6,s9
80009340:	0307c663          	blt	a5,a6,8000936c <sub_4+0x1828>
80009344:	e5a8cb93          	xori	s7,a7,-422
80009348:	0ff0000f          	fence
8000934c:	00d09993          	slli	s3,ra,0xd
80009350:	036fd263          	bge	t6,s6,80009374 <sub_4+0x1830>
80009354:	4022ddb3          	sra	s11,t0,sp
80009358:	4022ddb3          	sra	s11,t0,sp
8000935c:	e5e3fb93          	andi	s7,t2,-418
80009360:	bde33713          	sltiu	a4,t1,-1058
80009364:	0141adb3          	slt	s11,gp,s4
80009368:	0307c263          	blt	a5,a6,8000938c <sub_4+0x1848>
8000936c:	019fe0b3          	or	ra,t6,s9
80009370:	00d09993          	slli	s3,ra,0xd
80009374:	019fe0b3          	or	ra,t6,s9
80009378:	0107c663          	blt	a5,a6,80009384 <sub_4+0x1840>
8000937c:	e5e3fb93          	andi	s7,t2,-418
80009380:	00000013          	nop
80009384:	a08c68b7          	lui	a7,0xa08c6
80009388:	e5a8cb93          	xori	s7,a7,-422
8000938c:	e5e3fb93          	andi	s7,t2,-418
80009390:	01808433          	add	s0,ra,s8
80009394:	4022ddb3          	sra	s11,t0,sp
80009398:	04d1e863          	bltu	gp,a3,800093e8 <sub_4+0x18a4>
8000939c:	bde33713          	sltiu	a4,t1,-1058
800093a0:	0141adb3          	slt	s11,gp,s4
800093a4:	e5a8cb93          	xori	s7,a7,-422
800093a8:	01808433          	add	s0,ra,s8
800093ac:	01c45713          	srli	a4,s0,0x1c
800093b0:	00000013          	nop
800093b4:	01431733          	sll	a4,t1,s4
800093b8:	036fd863          	bge	t6,s6,800093e8 <sub_4+0x18a4>
800093bc:	01465bb3          	srl	s7,a2,s4
800093c0:	41ae0833          	sub	a6,t3,s10
800093c4:	574a0113          	addi	sp,s4,1396
800093c8:	e5a8cb93          	xori	s7,a7,-422
800093cc:	02d1e863          	bltu	gp,a3,800093fc <sub_4+0x18b8>
800093d0:	00d1ec63          	bltu	gp,a3,800093e8 <sub_4+0x18a4>
800093d4:	05d09663          	bne	ra,t4,80009420 <sub_4+0x18dc>
800093d8:	c66de993          	ori	s3,s11,-922
800093dc:	574a0113          	addi	sp,s4,1396
800093e0:	0140b7b3          	sltu	a5,ra,s4
800093e4:	01431733          	sll	a4,t1,s4
800093e8:	bde33713          	sltiu	a4,t1,-1058
800093ec:	41ae0833          	sub	a6,t3,s10
800093f0:	01537533          	and	a0,t1,s5
800093f4:	00d09993          	slli	s3,ra,0xd
800093f8:	01465bb3          	srl	s7,a2,s4
800093fc:	dd88a013          	slti	zero,a7,-552
80009400:	0ff0000f          	fence
80009404:	a08c68b7          	lui	a7,0xa08c6
80009408:	01c45713          	srli	a4,s0,0x1c
8000940c:	01431733          	sll	a4,t1,s4
80009410:	01c45713          	srli	a4,s0,0x1c
80009414:	01c45713          	srli	a4,s0,0x1c
80009418:	01537533          	and	a0,t1,s5
8000941c:	bde33713          	sltiu	a4,t1,-1058
80009420:	01537533          	and	a0,t1,s5
80009424:	e4ccbc97          	auipc	s9,0xe4ccb
80009428:	4158d193          	srai	gp,a7,0x15
8000942c:	e5a8cb93          	xori	s7,a7,-422
80009430:	0000100f          	fence.i
80009434:	00d09993          	slli	s3,ra,0xd
80009438:	044b7663          	bgeu	s6,tp,80009484 <sub_4+0x1940>
8000943c:	e5e3fb93          	andi	s7,t2,-418
80009440:	0000100f          	fence.i
80009444:	41ae0833          	sub	a6,t3,s10
80009448:	01465bb3          	srl	s7,a2,s4
8000944c:	03950c63          	beq	a0,s9,80009484 <sub_4+0x1940>
80009450:	056fd863          	bge	t6,s6,800094a0 <sub_4+0x195c>
80009454:	00d09993          	slli	s3,ra,0xd
80009458:	01431733          	sll	a4,t1,s4
8000945c:	0140b7b3          	sltu	a5,ra,s4
80009460:	016fd463          	bge	t6,s6,80009468 <sub_4+0x1924>
80009464:	01808433          	add	s0,ra,s8
80009468:	01537533          	and	a0,t1,s5
8000946c:	0ff0000f          	fence
80009470:	0307ca63          	blt	a5,a6,800094a4 <sub_4+0x1960>
80009474:	4158d193          	srai	gp,a7,0x15
80009478:	03d09a63          	bne	ra,t4,800094ac <sub_4+0x1968>
8000947c:	0141adb3          	slt	s11,gp,s4
80009480:	574a0113          	addi	sp,s4,1396
80009484:	05d09663          	bne	ra,t4,800094d0 <sub_4+0x198c>
80009488:	41ae0833          	sub	a6,t3,s10
8000948c:	e4ccbc97          	auipc	s9,0xe4ccb
80009490:	00000013          	nop
80009494:	019fe0b3          	or	ra,t6,s9
80009498:	41ae0833          	sub	a6,t3,s10
8000949c:	4158d193          	srai	gp,a7,0x15
800094a0:	a08c68b7          	lui	a7,0xa08c6
800094a4:	e5e3fb93          	andi	s7,t2,-418
800094a8:	00000013          	nop
800094ac:	004b7863          	bgeu	s6,tp,800094bc <sub_4+0x1978>
800094b0:	01465bb3          	srl	s7,a2,s4
800094b4:	bde33713          	sltiu	a4,t1,-1058
800094b8:	a08c68b7          	lui	a7,0xa08c6
800094bc:	41ae0833          	sub	a6,t3,s10
800094c0:	036fdc63          	bge	t6,s6,800094f8 <sub_4+0x19b4>
800094c4:	01537533          	and	a0,t1,s5
800094c8:	e5a8cb93          	xori	s7,a7,-422
800094cc:	01431733          	sll	a4,t1,s4
800094d0:	056fd263          	bge	t6,s6,80009514 <sub_4+0x19d0>
800094d4:	02d1ea63          	bltu	gp,a3,80009508 <sub_4+0x19c4>
800094d8:	01431733          	sll	a4,t1,s4
800094dc:	bde33713          	sltiu	a4,t1,-1058
800094e0:	0000100f          	fence.i
800094e4:	01c45713          	srli	a4,s0,0x1c
800094e8:	41ae0833          	sub	a6,t3,s10
800094ec:	01431733          	sll	a4,t1,s4
800094f0:	0ff0000f          	fence
800094f4:	01808433          	add	s0,ra,s8
800094f8:	019fe0b3          	or	ra,t6,s9
800094fc:	056fd063          	bge	t6,s6,8000953c <sub_4+0x19f8>
80009500:	01808433          	add	s0,ra,s8
80009504:	01808433          	add	s0,ra,s8
80009508:	0307cc63          	blt	a5,a6,80009540 <sub_4+0x19fc>
8000950c:	a08c68b7          	lui	a7,0xa08c6
80009510:	4022ddb3          	sra	s11,t0,sp
80009514:	4022ddb3          	sra	s11,t0,sp
80009518:	dd88a013          	slti	zero,a7,-552
8000951c:	4158d193          	srai	gp,a7,0x15
80009520:	0141adb3          	slt	s11,gp,s4
80009524:	4158d193          	srai	gp,a7,0x15
80009528:	00000013          	nop
8000952c:	41ae0833          	sub	a6,t3,s10
80009530:	01465bb3          	srl	s7,a2,s4
80009534:	dd88a013          	slti	zero,a7,-552
80009538:	0000100f          	fence.i
8000953c:	e5a8cb93          	xori	s7,a7,-422
80009540:	00d09993          	slli	s3,ra,0xd
80009544:	056fd263          	bge	t6,s6,80009588 <sub_4+0x1a44>
80009548:	01431733          	sll	a4,t1,s4
8000954c:	01d09c63          	bne	ra,t4,80009564 <sub_4+0x1a20>
80009550:	00000013          	nop
80009554:	41ae0833          	sub	a6,t3,s10
80009558:	a08c68b7          	lui	a7,0xa08c6
8000955c:	01537533          	and	a0,t1,s5
80009560:	00d09993          	slli	s3,ra,0xd
80009564:	dd88a013          	slti	zero,a7,-552
80009568:	056fd263          	bge	t6,s6,800095ac <sub_4+0x1a68>
8000956c:	036fd263          	bge	t6,s6,80009590 <sub_4+0x1a4c>
80009570:	004b7463          	bgeu	s6,tp,80009578 <sub_4+0x1a34>
80009574:	01c45713          	srli	a4,s0,0x1c
80009578:	03d09c63          	bne	ra,t4,800095b0 <sub_4+0x1a6c>
8000957c:	01537533          	and	a0,t1,s5
80009580:	e5e3fb93          	andi	s7,t2,-418
80009584:	0ff0000f          	fence
80009588:	01431733          	sll	a4,t1,s4
8000958c:	0141adb3          	slt	s11,gp,s4
80009590:	00d09993          	slli	s3,ra,0xd
80009594:	0000100f          	fence.i
80009598:	a08c68b7          	lui	a7,0xa08c6
8000959c:	bde33713          	sltiu	a4,t1,-1058
800095a0:	41ae0833          	sub	a6,t3,s10
800095a4:	01431733          	sll	a4,t1,s4
800095a8:	01537533          	and	a0,t1,s5
800095ac:	e5a8cb93          	xori	s7,a7,-422
800095b0:	0ff0000f          	fence
800095b4:	41ae0833          	sub	a6,t3,s10
800095b8:	4022ddb3          	sra	s11,t0,sp
800095bc:	016fd663          	bge	t6,s6,800095c8 <sub_4+0x1a84>
800095c0:	0000100f          	fence.i
800095c4:	0140b7b3          	sltu	a5,ra,s4
800095c8:	4158d193          	srai	gp,a7,0x15
800095cc:	016fd463          	bge	t6,s6,800095d4 <sub_4+0x1a90>
800095d0:	02d1ee63          	bltu	gp,a3,8000960c <sub_4+0x1ac8>
800095d4:	01537533          	and	a0,t1,s5
800095d8:	01537533          	and	a0,t1,s5
800095dc:	e4ccbc97          	auipc	s9,0xe4ccb
800095e0:	00d09993          	slli	s3,ra,0xd
800095e4:	c66de993          	ori	s3,s11,-922
800095e8:	00000013          	nop
800095ec:	03950663          	beq	a0,s9,80009618 <sub_4+0x1ad4>
800095f0:	01808433          	add	s0,ra,s8
800095f4:	e4ccbc97          	auipc	s9,0xe4ccb
800095f8:	41ae0833          	sub	a6,t3,s10
800095fc:	e4ccbc97          	auipc	s9,0xe4ccb
80009600:	01c45713          	srli	a4,s0,0x1c
80009604:	41ae0833          	sub	a6,t3,s10
80009608:	01431733          	sll	a4,t1,s4
8000960c:	dd88a013          	slti	zero,a7,-552
80009610:	e5a8cb93          	xori	s7,a7,-422
80009614:	4158d193          	srai	gp,a7,0x15
80009618:	4022ddb3          	sra	s11,t0,sp
8000961c:	0000100f          	fence.i
80009620:	0140b7b3          	sltu	a5,ra,s4
80009624:	01465bb3          	srl	s7,a2,s4
80009628:	03950863          	beq	a0,s9,80009658 <sub_4+0x1b14>
8000962c:	01808433          	add	s0,ra,s8
80009630:	574a0113          	addi	sp,s4,1396
80009634:	01537533          	and	a0,t1,s5
80009638:	0140b7b3          	sltu	a5,ra,s4
8000963c:	00000013          	nop
80009640:	00d09993          	slli	s3,ra,0xd
80009644:	4158d193          	srai	gp,a7,0x15
80009648:	01431733          	sll	a4,t1,s4
8000964c:	e5e3fb93          	andi	s7,t2,-418
80009650:	01537533          	and	a0,t1,s5
80009654:	4022ddb3          	sra	s11,t0,sp
80009658:	574a0113          	addi	sp,s4,1396
8000965c:	01465bb3          	srl	s7,a2,s4
80009660:	e5e3fb93          	andi	s7,t2,-418
80009664:	bde33713          	sltiu	a4,t1,-1058
80009668:	00000013          	nop
8000966c:	a08c68b7          	lui	a7,0xa08c6
80009670:	0140b7b3          	sltu	a5,ra,s4
80009674:	4158d193          	srai	gp,a7,0x15
80009678:	019fe0b3          	or	ra,t6,s9
8000967c:	4158d193          	srai	gp,a7,0x15
80009680:	03d09a63          	bne	ra,t4,800096b4 <sub_4+0x1b70>
80009684:	01537533          	and	a0,t1,s5
80009688:	e4ccbc97          	auipc	s9,0xe4ccb
8000968c:	e5e3fb93          	andi	s7,t2,-418
80009690:	e4ccbc97          	auipc	s9,0xe4ccb
80009694:	01c45713          	srli	a4,s0,0x1c
80009698:	0141adb3          	slt	s11,gp,s4
8000969c:	0000100f          	fence.i
800096a0:	00000013          	nop
800096a4:	0140b7b3          	sltu	a5,ra,s4
800096a8:	4022ddb3          	sra	s11,t0,sp
800096ac:	02d1e263          	bltu	gp,a3,800096d0 <sub_4+0x1b8c>
800096b0:	01431733          	sll	a4,t1,s4
800096b4:	0507c863          	blt	a5,a6,80009704 <sub_4+0x1bc0>
800096b8:	01537533          	and	a0,t1,s5
800096bc:	0000100f          	fence.i
800096c0:	0141adb3          	slt	s11,gp,s4
800096c4:	41ae0833          	sub	a6,t3,s10
800096c8:	a08c68b7          	lui	a7,0xa08c6
800096cc:	e4ccbc97          	auipc	s9,0xe4ccb
800096d0:	02d1e863          	bltu	gp,a3,80009700 <sub_4+0x1bbc>
800096d4:	05d09063          	bne	ra,t4,80009714 <sub_4+0x1bd0>
800096d8:	01c45713          	srli	a4,s0,0x1c
800096dc:	0107c863          	blt	a5,a6,800096ec <sub_4+0x1ba8>
800096e0:	0141adb3          	slt	s11,gp,s4
800096e4:	00d09993          	slli	s3,ra,0xd
800096e8:	574a0113          	addi	sp,s4,1396
800096ec:	bde33713          	sltiu	a4,t1,-1058
800096f0:	036fd263          	bge	t6,s6,80009714 <sub_4+0x1bd0>
800096f4:	01808433          	add	s0,ra,s8
800096f8:	a08c68b7          	lui	a7,0xa08c6
800096fc:	4022ddb3          	sra	s11,t0,sp
80009700:	c66de993          	ori	s3,s11,-922
80009704:	4158d193          	srai	gp,a7,0x15
80009708:	c66de993          	ori	s3,s11,-922
8000970c:	00000013          	nop
80009710:	00d09993          	slli	s3,ra,0xd
80009714:	019fe0b3          	or	ra,t6,s9
80009718:	e4ccbc97          	auipc	s9,0xe4ccb
8000971c:	a08c68b7          	lui	a7,0xa08c6
80009720:	01808433          	add	s0,ra,s8
80009724:	00d09993          	slli	s3,ra,0xd
80009728:	01c45713          	srli	a4,s0,0x1c
8000972c:	0000100f          	fence.i
80009730:	01950463          	beq	a0,s9,80009738 <sub_4+0x1bf4>
80009734:	01c45713          	srli	a4,s0,0x1c
80009738:	0507c663          	blt	a5,a6,80009784 <sub_4+0x1c40>
8000973c:	0000100f          	fence.i
80009740:	0307ca63          	blt	a5,a6,80009774 <sub_4+0x1c30>
80009744:	00d09993          	slli	s3,ra,0xd
80009748:	00d09993          	slli	s3,ra,0xd
8000974c:	01808433          	add	s0,ra,s8
80009750:	05950663          	beq	a0,s9,8000979c <sub_4+0x1c58>
80009754:	e5e3fb93          	andi	s7,t2,-418
80009758:	e5e3fb93          	andi	s7,t2,-418
8000975c:	00000013          	nop
80009760:	e5e3fb93          	andi	s7,t2,-418
80009764:	574a0113          	addi	sp,s4,1396
80009768:	574a0113          	addi	sp,s4,1396
8000976c:	0072c133          	xor	sp,t0,t2
80009770:	e5e3fb93          	andi	s7,t2,-418
80009774:	e5e3fb93          	andi	s7,t2,-418
80009778:	a08c68b7          	lui	a7,0xa08c6
8000977c:	056fd863          	bge	t6,s6,800097cc <sub_4+0x1c88>
80009780:	e5e3fb93          	andi	s7,t2,-418
80009784:	02d1e863          	bltu	gp,a3,800097b4 <sub_4+0x1c70>
80009788:	c66de993          	ori	s3,s11,-922
8000978c:	01c45713          	srli	a4,s0,0x1c
80009790:	00d09993          	slli	s3,ra,0xd
80009794:	0140b7b3          	sltu	a5,ra,s4
80009798:	056fd863          	bge	t6,s6,800097e8 <sub_4+0x1ca4>
8000979c:	4158d193          	srai	gp,a7,0x15
800097a0:	01431733          	sll	a4,t1,s4
800097a4:	c66de993          	ori	s3,s11,-922
800097a8:	0000100f          	fence.i
800097ac:	dd88a013          	slti	zero,a7,-552
800097b0:	a08c68b7          	lui	a7,0xa08c6
800097b4:	019fe0b3          	or	ra,t6,s9
800097b8:	574a0113          	addi	sp,s4,1396
800097bc:	41ae0833          	sub	a6,t3,s10
800097c0:	01465bb3          	srl	s7,a2,s4
800097c4:	01808433          	add	s0,ra,s8
800097c8:	4022ddb3          	sra	s11,t0,sp
800097cc:	4022ddb3          	sra	s11,t0,sp
800097d0:	0000100f          	fence.i
800097d4:	019fe0b3          	or	ra,t6,s9
800097d8:	4158d193          	srai	gp,a7,0x15
800097dc:	024b7c63          	bgeu	s6,tp,80009814 <sub_4+0x1cd0>
800097e0:	41ae0833          	sub	a6,t3,s10
800097e4:	0140b7b3          	sltu	a5,ra,s4
800097e8:	05d09663          	bne	ra,t4,80009834 <sub_4+0x1cf0>
800097ec:	4158d193          	srai	gp,a7,0x15
800097f0:	019fe0b3          	or	ra,t6,s9
800097f4:	a08c68b7          	lui	a7,0xa08c6
800097f8:	01c45713          	srli	a4,s0,0x1c
800097fc:	01808433          	add	s0,ra,s8
80009800:	4022ddb3          	sra	s11,t0,sp
80009804:	019fe0b3          	or	ra,t6,s9
80009808:	0307ca63          	blt	a5,a6,8000983c <sub_4+0x1cf8>
8000980c:	0141adb3          	slt	s11,gp,s4
80009810:	044b7663          	bgeu	s6,tp,8000985c <sub_4+0x1d18>
80009814:	e5a8cb93          	xori	s7,a7,-422
80009818:	0140b7b3          	sltu	a5,ra,s4
8000981c:	05950063          	beq	a0,s9,8000985c <sub_4+0x1d18>
80009820:	0000100f          	fence.i
80009824:	4022ddb3          	sra	s11,t0,sp
80009828:	dd88a013          	slti	zero,a7,-552
8000982c:	01808433          	add	s0,ra,s8
80009830:	004b7c63          	bgeu	s6,tp,80009848 <sub_4+0x1d04>
80009834:	004b7463          	bgeu	s6,tp,8000983c <sub_4+0x1cf8>
80009838:	036fda63          	bge	t6,s6,8000986c <sub_4+0x1d28>
8000983c:	4158d193          	srai	gp,a7,0x15
80009840:	01537533          	and	a0,t1,s5
80009844:	01808433          	add	s0,ra,s8
80009848:	bde33713          	sltiu	a4,t1,-1058
8000984c:	00d09993          	slli	s3,ra,0xd
80009850:	01465bb3          	srl	s7,a2,s4
80009854:	01465bb3          	srl	s7,a2,s4
80009858:	574a0113          	addi	sp,s4,1396
8000985c:	01d09663          	bne	ra,t4,80009868 <sub_4+0x1d24>
80009860:	0000100f          	fence.i
80009864:	01c45713          	srli	a4,s0,0x1c
80009868:	01431733          	sll	a4,t1,s4
8000986c:	0107c863          	blt	a5,a6,8000987c <sub_4+0x1d38>
80009870:	0507c663          	blt	a5,a6,800098bc <sub_4+0x1d78>
80009874:	01465bb3          	srl	s7,a2,s4
80009878:	01c45713          	srli	a4,s0,0x1c
8000987c:	019fe0b3          	or	ra,t6,s9
80009880:	0072c133          	xor	sp,t0,t2
80009884:	4022ddb3          	sra	s11,t0,sp
80009888:	574a0113          	addi	sp,s4,1396
8000988c:	01c45713          	srli	a4,s0,0x1c
80009890:	0307cc63          	blt	a5,a6,800098c8 <sub_4+0x1d84>
80009894:	0ff0000f          	fence
80009898:	01431733          	sll	a4,t1,s4
8000989c:	0000100f          	fence.i
800098a0:	004b7463          	bgeu	s6,tp,800098a8 <sub_4+0x1d64>
800098a4:	01465bb3          	srl	s7,a2,s4
800098a8:	a08c68b7          	lui	a7,0xa08c6
800098ac:	c66de993          	ori	s3,s11,-922
800098b0:	044b7863          	bgeu	s6,tp,80009900 <sub_4+0x1dbc>
800098b4:	dd88a013          	slti	zero,a7,-552
800098b8:	019fe0b3          	or	ra,t6,s9
800098bc:	a08c68b7          	lui	a7,0xa08c6
800098c0:	41ae0833          	sub	a6,t3,s10
800098c4:	0140b7b3          	sltu	a5,ra,s4
800098c8:	0072c133          	xor	sp,t0,t2
800098cc:	a08c68b7          	lui	a7,0xa08c6
800098d0:	a08c68b7          	lui	a7,0xa08c6
800098d4:	dd88a013          	slti	zero,a7,-552
800098d8:	e4ccbc97          	auipc	s9,0xe4ccb
800098dc:	41ae0833          	sub	a6,t3,s10
800098e0:	01431733          	sll	a4,t1,s4
800098e4:	e5e3fb93          	andi	s7,t2,-418
800098e8:	01c45713          	srli	a4,s0,0x1c
800098ec:	019fe0b3          	or	ra,t6,s9
800098f0:	41ae0833          	sub	a6,t3,s10
800098f4:	0307c663          	blt	a5,a6,80009920 <sub_4+0x1ddc>
800098f8:	01431733          	sll	a4,t1,s4
800098fc:	044b7863          	bgeu	s6,tp,8000994c <sub_4+0x1e08>
80009900:	bde33713          	sltiu	a4,t1,-1058
80009904:	e5e3fb93          	andi	s7,t2,-418
80009908:	0ff0000f          	fence
8000990c:	03d09263          	bne	ra,t4,80009930 <sub_4+0x1dec>
80009910:	bde33713          	sltiu	a4,t1,-1058
80009914:	dd88a013          	slti	zero,a7,-552
80009918:	024b7863          	bgeu	s6,tp,80009948 <sub_4+0x1e04>
8000991c:	01808433          	add	s0,ra,s8
80009920:	e5a8cb93          	xori	s7,a7,-422
80009924:	e5a8cb93          	xori	s7,a7,-422
80009928:	dd88a013          	slti	zero,a7,-552
8000992c:	01808433          	add	s0,ra,s8
80009930:	c66de993          	ori	s3,s11,-922
80009934:	0141adb3          	slt	s11,gp,s4
80009938:	019fe0b3          	or	ra,t6,s9
8000993c:	0141adb3          	slt	s11,gp,s4
80009940:	036fdc63          	bge	t6,s6,80009978 <sub_4+0x1e34>
80009944:	01465bb3          	srl	s7,a2,s4
80009948:	01c45713          	srli	a4,s0,0x1c
8000994c:	019fe0b3          	or	ra,t6,s9
80009950:	dd88a013          	slti	zero,a7,-552
80009954:	01465bb3          	srl	s7,a2,s4
80009958:	bde33713          	sltiu	a4,t1,-1058
8000995c:	bde33713          	sltiu	a4,t1,-1058
80009960:	bde33713          	sltiu	a4,t1,-1058
80009964:	574a0113          	addi	sp,s4,1396
80009968:	0ff0000f          	fence
8000996c:	bde33713          	sltiu	a4,t1,-1058
80009970:	036fd863          	bge	t6,s6,800099a0 <sub_4+0x1e5c>
80009974:	019fe0b3          	or	ra,t6,s9
80009978:	574a0113          	addi	sp,s4,1396
8000997c:	a08c68b7          	lui	a7,0xa08c6
80009980:	4022ddb3          	sra	s11,t0,sp
80009984:	024b7c63          	bgeu	s6,tp,800099bc <sub_4+0x1e78>
80009988:	01537533          	and	a0,t1,s5
8000998c:	bde33713          	sltiu	a4,t1,-1058
80009990:	01c45713          	srli	a4,s0,0x1c
80009994:	01465bb3          	srl	s7,a2,s4
80009998:	dd88a013          	slti	zero,a7,-552
8000999c:	05950863          	beq	a0,s9,800099ec <sub_4+0x1ea8>
800099a0:	0000100f          	fence.i
800099a4:	01c45713          	srli	a4,s0,0x1c
800099a8:	a08c68b7          	lui	a7,0xa08c6
800099ac:	e5e3fb93          	andi	s7,t2,-418
800099b0:	0107c463          	blt	a5,a6,800099b8 <sub_4+0x1e74>
800099b4:	01808433          	add	s0,ra,s8
800099b8:	01808433          	add	s0,ra,s8
800099bc:	0307c263          	blt	a5,a6,800099e0 <sub_4+0x1e9c>
800099c0:	4158d193          	srai	gp,a7,0x15
800099c4:	0000100f          	fence.i
800099c8:	01465bb3          	srl	s7,a2,s4
800099cc:	02d1e863          	bltu	gp,a3,800099fc <sub_4+0x1eb8>
800099d0:	574a0113          	addi	sp,s4,1396
800099d4:	e4ccbc97          	auipc	s9,0xe4ccb
800099d8:	00000013          	nop
800099dc:	0141adb3          	slt	s11,gp,s4
800099e0:	0140b7b3          	sltu	a5,ra,s4
800099e4:	dd88a013          	slti	zero,a7,-552
800099e8:	a08c68b7          	lui	a7,0xa08c6
800099ec:	036fde63          	bge	t6,s6,80009a28 <sub_4+0x1ee4>
800099f0:	0ff0000f          	fence
800099f4:	e5e3fb93          	andi	s7,t2,-418
800099f8:	03d09a63          	bne	ra,t4,80009a2c <sub_4+0x1ee8>
800099fc:	01808433          	add	s0,ra,s8
80009a00:	0140b7b3          	sltu	a5,ra,s4
80009a04:	dd88a013          	slti	zero,a7,-552
80009a08:	01537533          	and	a0,t1,s5
80009a0c:	41ae0833          	sub	a6,t3,s10
80009a10:	0507c263          	blt	a5,a6,80009a54 <sub_4+0x1f10>
80009a14:	c66de993          	ori	s3,s11,-922
80009a18:	05950663          	beq	a0,s9,80009a64 <sub_4+0x1f20>
80009a1c:	01808433          	add	s0,ra,s8
80009a20:	0000100f          	fence.i
80009a24:	574a0113          	addi	sp,s4,1396
80009a28:	01c45713          	srli	a4,s0,0x1c
80009a2c:	0ff0000f          	fence
80009a30:	0140b7b3          	sltu	a5,ra,s4
80009a34:	0507c263          	blt	a5,a6,80009a78 <sub_4+0x1f34>
80009a38:	01c45713          	srli	a4,s0,0x1c
80009a3c:	01431733          	sll	a4,t1,s4
80009a40:	01808433          	add	s0,ra,s8
80009a44:	c66de993          	ori	s3,s11,-922
80009a48:	0140b7b3          	sltu	a5,ra,s4
80009a4c:	01465bb3          	srl	s7,a2,s4
80009a50:	e5a8cb93          	xori	s7,a7,-422
80009a54:	00d09993          	slli	s3,ra,0xd
80009a58:	05950663          	beq	a0,s9,80009aa4 <sub_4+0x1f60>
80009a5c:	05950663          	beq	a0,s9,80009aa8 <sub_4+0x1f64>
80009a60:	41ae0833          	sub	a6,t3,s10
80009a64:	0307c263          	blt	a5,a6,80009a88 <sub_4+0x1f44>
80009a68:	00000013          	nop
80009a6c:	0140b7b3          	sltu	a5,ra,s4
80009a70:	03d09a63          	bne	ra,t4,80009aa4 <sub_4+0x1f60>
80009a74:	0307ca63          	blt	a5,a6,80009aa8 <sub_4+0x1f64>
80009a78:	01431733          	sll	a4,t1,s4
80009a7c:	036fdc63          	bge	t6,s6,80009ab4 <sub_4+0x1f70>
80009a80:	0000100f          	fence.i
80009a84:	0ff0000f          	fence
80009a88:	019fe0b3          	or	ra,t6,s9
80009a8c:	019fe0b3          	or	ra,t6,s9
80009a90:	01431733          	sll	a4,t1,s4
80009a94:	00000013          	nop
80009a98:	04d1e663          	bltu	gp,a3,80009ae4 <sub_4+0x1fa0>
80009a9c:	0000100f          	fence.i
80009aa0:	0107c463          	blt	a5,a6,80009aa8 <sub_4+0x1f64>
80009aa4:	0072c133          	xor	sp,t0,t2
80009aa8:	4158d193          	srai	gp,a7,0x15
80009aac:	019fe0b3          	or	ra,t6,s9
80009ab0:	019fe0b3          	or	ra,t6,s9
80009ab4:	01537533          	and	a0,t1,s5
80009ab8:	05d09663          	bne	ra,t4,80009b04 <sub_4+0x1fc0>
80009abc:	dd88a013          	slti	zero,a7,-552
80009ac0:	0000100f          	fence.i
80009ac4:	019fe0b3          	or	ra,t6,s9
80009ac8:	a08c68b7          	lui	a7,0xa08c6
80009acc:	bde33713          	sltiu	a4,t1,-1058
80009ad0:	00d09993          	slli	s3,ra,0xd
80009ad4:	4158d193          	srai	gp,a7,0x15
80009ad8:	01c45713          	srli	a4,s0,0x1c
80009adc:	004b7463          	bgeu	s6,tp,80009ae4 <sub_4+0x1fa0>
80009ae0:	0000100f          	fence.i
80009ae4:	e5a8cb93          	xori	s7,a7,-422
80009ae8:	019fe0b3          	or	ra,t6,s9
80009aec:	01431733          	sll	a4,t1,s4
80009af0:	01431733          	sll	a4,t1,s4
80009af4:	0072c133          	xor	sp,t0,t2
80009af8:	dd88a013          	slti	zero,a7,-552
80009afc:	00d09993          	slli	s3,ra,0xd
80009b00:	01c45713          	srli	a4,s0,0x1c
80009b04:	a08c68b7          	lui	a7,0xa08c6
80009b08:	01808433          	add	s0,ra,s8
80009b0c:	024b7c63          	bgeu	s6,tp,80009b44 <sub_4+0x2000>
80009b10:	574a0113          	addi	sp,s4,1396
80009b14:	e5a8cb93          	xori	s7,a7,-422
80009b18:	574a0113          	addi	sp,s4,1396
80009b1c:	056fd663          	bge	t6,s6,80009b68 <sub_4+0x2024>
80009b20:	e5a8cb93          	xori	s7,a7,-422
80009b24:	01465bb3          	srl	s7,a2,s4
80009b28:	41ae0833          	sub	a6,t3,s10
80009b2c:	036fd863          	bge	t6,s6,80009b5c <sub_4+0x2018>
80009b30:	a08c68b7          	lui	a7,0xa08c6
80009b34:	01537533          	and	a0,t1,s5
80009b38:	0ff0000f          	fence
80009b3c:	01537533          	and	a0,t1,s5
80009b40:	024b7263          	bgeu	s6,tp,80009b64 <sub_4+0x2020>
80009b44:	4158d193          	srai	gp,a7,0x15
80009b48:	03950a63          	beq	a0,s9,80009b7c <sub_4+0x2038>
80009b4c:	019fe0b3          	or	ra,t6,s9
80009b50:	0107c863          	blt	a5,a6,80009b60 <sub_4+0x201c>
80009b54:	00000013          	nop
80009b58:	00d09993          	slli	s3,ra,0xd
80009b5c:	0140b7b3          	sltu	a5,ra,s4
80009b60:	0140b7b3          	sltu	a5,ra,s4
80009b64:	41ae0833          	sub	a6,t3,s10
80009b68:	574a0113          	addi	sp,s4,1396
80009b6c:	01465bb3          	srl	s7,a2,s4
80009b70:	0000100f          	fence.i
80009b74:	03950463          	beq	a0,s9,80009b9c <sub_4+0x2058>
80009b78:	0ff0000f          	fence
80009b7c:	574a0113          	addi	sp,s4,1396
80009b80:	574a0113          	addi	sp,s4,1396
80009b84:	4022ddb3          	sra	s11,t0,sp
80009b88:	0141adb3          	slt	s11,gp,s4
80009b8c:	0141adb3          	slt	s11,gp,s4
80009b90:	00d1e663          	bltu	gp,a3,80009b9c <sub_4+0x2058>
80009b94:	c66de993          	ori	s3,s11,-922
80009b98:	dd88a013          	slti	zero,a7,-552
80009b9c:	e5a8cb93          	xori	s7,a7,-422
80009ba0:	0141ae33          	slt	t3,gp,s4
80009ba4:	00432083          	lw	ra,4(t1)
80009ba8:	0141ae33          	slt	t3,gp,s4
80009bac:	019fe133          	or	sp,t6,s9
80009bb0:	0140b833          	sltu	a6,ra,s4
80009bb4:	0ff0000f          	fence
80009bb8:	0000100f          	fence.i
80009bbc:	018084b3          	add	s1,ra,s8
80009bc0:	02c30313          	addi	t1,t1,44
80009bc4:	00000013          	nop
80009bc8:	00008393          	mv	t2,ra
80009bcc:	000383e7          	jalr	t2,t2 # 80000000 <_end+0xfffd1180>

80009bd0 <sub_5>:
80009bd0:	015375b3          	and	a1,t1,s5
80009bd4:	fc030313          	addi	t1,t1,-64
80009bd8:	e5e3fc13          	andi	s8,t2,-418
80009bdc:	574a0193          	addi	gp,s4,1396
80009be0:	00132223          	sw	ra,4(t1)
80009be4:	01465c33          	srl	s8,a2,s4
80009be8:	a08c6937          	lui	s2,0xa08c6
80009bec:	dd88a013          	slti	zero,a7,-552
80009bf0:	4158d193          	srai	gp,a7,0x15
80009bf4:	c66de993          	ori	s3,s11,-922
80009bf8:	004b7a63          	bgeu	s6,tp,80009c0c <sub_5+0x3c>
80009bfc:	0000100f          	fence.i
80009c00:	c66de993          	ori	s3,s11,-922
80009c04:	0072c133          	xor	sp,t0,t2
80009c08:	c66de993          	ori	s3,s11,-922
80009c0c:	0072c133          	xor	sp,t0,t2
80009c10:	dd88a013          	slti	zero,a7,-552
80009c14:	0507c663          	blt	a5,a6,80009c60 <sub_5+0x90>
80009c18:	00d09993          	slli	s3,ra,0xd
80009c1c:	4022ddb3          	sra	s11,t0,sp
80009c20:	41ae0833          	sub	a6,t3,s10
80009c24:	4022ddb3          	sra	s11,t0,sp
80009c28:	a08c68b7          	lui	a7,0xa08c6
80009c2c:	0307c863          	blt	a5,a6,80009c5c <sub_5+0x8c>
80009c30:	c66de993          	ori	s3,s11,-922
80009c34:	004b7263          	bgeu	s6,tp,80009c38 <sub_5+0x68>
80009c38:	574a0113          	addi	sp,s4,1396
80009c3c:	c66de993          	ori	s3,s11,-922
80009c40:	0140b7b3          	sltu	a5,ra,s4
80009c44:	00d09993          	slli	s3,ra,0xd
80009c48:	00d09993          	slli	s3,ra,0xd
80009c4c:	019fe0b3          	or	ra,t6,s9
80009c50:	e4ccbc97          	auipc	s9,0xe4ccb
80009c54:	016fda63          	bge	t6,s6,80009c68 <sub_5+0x98>
80009c58:	04d1e663          	bltu	gp,a3,80009ca4 <sub_5+0xd4>
80009c5c:	01d09263          	bne	ra,t4,80009c60 <sub_5+0x90>
80009c60:	0ff0000f          	fence
80009c64:	016fde63          	bge	t6,s6,80009c80 <sub_5+0xb0>
80009c68:	02d1e063          	bltu	gp,a3,80009c88 <sub_5+0xb8>
80009c6c:	01d09863          	bne	ra,t4,80009c7c <sub_5+0xac>
80009c70:	036fd463          	bge	t6,s6,80009c98 <sub_5+0xc8>
80009c74:	00d09993          	slli	s3,ra,0xd
80009c78:	41ae0833          	sub	a6,t3,s10
80009c7c:	019fe0b3          	or	ra,t6,s9
80009c80:	e4ccbc97          	auipc	s9,0xe4ccb
80009c84:	036fdc63          	bge	t6,s6,80009cbc <sub_5+0xec>
80009c88:	dd88a013          	slti	zero,a7,-552
80009c8c:	01465bb3          	srl	s7,a2,s4
80009c90:	0000100f          	fence.i
80009c94:	e5e3fb93          	andi	s7,t2,-418
80009c98:	056fd863          	bge	t6,s6,80009ce8 <sub_5+0x118>
80009c9c:	0072c133          	xor	sp,t0,t2
80009ca0:	01431733          	sll	a4,t1,s4
80009ca4:	e4ccbc97          	auipc	s9,0xe4ccb
80009ca8:	00d09993          	slli	s3,ra,0xd
80009cac:	04d1e463          	bltu	gp,a3,80009cf4 <sub_5+0x124>
80009cb0:	01537533          	and	a0,t1,s5
80009cb4:	03950463          	beq	a0,s9,80009cdc <sub_5+0x10c>
80009cb8:	05950263          	beq	a0,s9,80009cfc <sub_5+0x12c>
80009cbc:	019fe0b3          	or	ra,t6,s9
80009cc0:	01808433          	add	s0,ra,s8
80009cc4:	01808433          	add	s0,ra,s8
80009cc8:	4022ddb3          	sra	s11,t0,sp
80009ccc:	019fe0b3          	or	ra,t6,s9
80009cd0:	c66de993          	ori	s3,s11,-922
80009cd4:	024b7063          	bgeu	s6,tp,80009cf4 <sub_5+0x124>
80009cd8:	00000013          	nop
80009cdc:	01c45713          	srli	a4,s0,0x1c
80009ce0:	05950263          	beq	a0,s9,80009d24 <sub_5+0x154>
80009ce4:	00000013          	nop
80009ce8:	0000100f          	fence.i
80009cec:	e5a8cb93          	xori	s7,a7,-422
80009cf0:	02d1e463          	bltu	gp,a3,80009d18 <sub_5+0x148>
80009cf4:	036fdc63          	bge	t6,s6,80009d2c <sub_5+0x15c>
80009cf8:	4022ddb3          	sra	s11,t0,sp
80009cfc:	00d09993          	slli	s3,ra,0xd
80009d00:	574a0113          	addi	sp,s4,1396
80009d04:	4158d193          	srai	gp,a7,0x15
80009d08:	a08c68b7          	lui	a7,0xa08c6
80009d0c:	0072c133          	xor	sp,t0,t2
80009d10:	4158d193          	srai	gp,a7,0x15
80009d14:	01808433          	add	s0,ra,s8
80009d18:	e4ccbc97          	auipc	s9,0xe4ccb
80009d1c:	01537533          	and	a0,t1,s5
80009d20:	05d09863          	bne	ra,t4,80009d70 <sub_5+0x1a0>
80009d24:	024b7063          	bgeu	s6,tp,80009d44 <sub_5+0x174>
80009d28:	574a0113          	addi	sp,s4,1396
80009d2c:	bde33713          	sltiu	a4,t1,-1058
80009d30:	016fda63          	bge	t6,s6,80009d44 <sub_5+0x174>
80009d34:	e5a8cb93          	xori	s7,a7,-422
80009d38:	056fd463          	bge	t6,s6,80009d80 <sub_5+0x1b0>
80009d3c:	0ff0000f          	fence
80009d40:	0140b7b3          	sltu	a5,ra,s4
80009d44:	dd88a013          	slti	zero,a7,-552
80009d48:	41ae0833          	sub	a6,t3,s10
80009d4c:	41ae0833          	sub	a6,t3,s10
80009d50:	01808433          	add	s0,ra,s8
80009d54:	0000100f          	fence.i
80009d58:	01c45713          	srli	a4,s0,0x1c
80009d5c:	0307ce63          	blt	a5,a6,80009d98 <sub_5+0x1c8>
80009d60:	0307c463          	blt	a5,a6,80009d88 <sub_5+0x1b8>
80009d64:	e5a8cb93          	xori	s7,a7,-422
80009d68:	056fd263          	bge	t6,s6,80009dac <sub_5+0x1dc>
80009d6c:	00000013          	nop
80009d70:	056fd063          	bge	t6,s6,80009db0 <sub_5+0x1e0>
80009d74:	01465bb3          	srl	s7,a2,s4
80009d78:	e5e3fb93          	andi	s7,t2,-418
80009d7c:	0140b7b3          	sltu	a5,ra,s4
80009d80:	4022ddb3          	sra	s11,t0,sp
80009d84:	01537533          	and	a0,t1,s5
80009d88:	01c45713          	srli	a4,s0,0x1c
80009d8c:	05d09263          	bne	ra,t4,80009dd0 <sub_5+0x200>
80009d90:	c66de993          	ori	s3,s11,-922
80009d94:	41ae0833          	sub	a6,t3,s10
80009d98:	dd88a013          	slti	zero,a7,-552
80009d9c:	01537533          	and	a0,t1,s5
80009da0:	01537533          	and	a0,t1,s5
80009da4:	0141adb3          	slt	s11,gp,s4
80009da8:	00000013          	nop
80009dac:	01c45713          	srli	a4,s0,0x1c
80009db0:	01465bb3          	srl	s7,a2,s4
80009db4:	41ae0833          	sub	a6,t3,s10
80009db8:	05d09663          	bne	ra,t4,80009e04 <sub_5+0x234>
80009dbc:	044b7263          	bgeu	s6,tp,80009e00 <sub_5+0x230>
80009dc0:	0ff0000f          	fence
80009dc4:	a08c68b7          	lui	a7,0xa08c6
80009dc8:	05d09663          	bne	ra,t4,80009e14 <sub_5+0x244>
80009dcc:	0141adb3          	slt	s11,gp,s4
80009dd0:	04d1e263          	bltu	gp,a3,80009e14 <sub_5+0x244>
80009dd4:	01465bb3          	srl	s7,a2,s4
80009dd8:	574a0113          	addi	sp,s4,1396
80009ddc:	03d09c63          	bne	ra,t4,80009e14 <sub_5+0x244>
80009de0:	0140b7b3          	sltu	a5,ra,s4
80009de4:	bde33713          	sltiu	a4,t1,-1058
80009de8:	c66de993          	ori	s3,s11,-922
80009dec:	e5a8cb93          	xori	s7,a7,-422
80009df0:	00d09993          	slli	s3,ra,0xd
80009df4:	4022ddb3          	sra	s11,t0,sp
80009df8:	e4ccbc97          	auipc	s9,0xe4ccb
80009dfc:	0000100f          	fence.i
80009e00:	019fe0b3          	or	ra,t6,s9
80009e04:	e5a8cb93          	xori	s7,a7,-422
80009e08:	574a0113          	addi	sp,s4,1396
80009e0c:	0000100f          	fence.i
80009e10:	a08c68b7          	lui	a7,0xa08c6
80009e14:	03d09463          	bne	ra,t4,80009e3c <sub_5+0x26c>
80009e18:	e4ccbc97          	auipc	s9,0xe4ccb
80009e1c:	01537533          	and	a0,t1,s5
80009e20:	01808433          	add	s0,ra,s8
80009e24:	4158d193          	srai	gp,a7,0x15
80009e28:	01465bb3          	srl	s7,a2,s4
80009e2c:	00000013          	nop
80009e30:	c66de993          	ori	s3,s11,-922
80009e34:	00d09993          	slli	s3,ra,0xd
80009e38:	01431733          	sll	a4,t1,s4
80009e3c:	e4ccbc97          	auipc	s9,0xe4ccb
80009e40:	a08c68b7          	lui	a7,0xa08c6
80009e44:	41ae0833          	sub	a6,t3,s10
80009e48:	01431733          	sll	a4,t1,s4
80009e4c:	dd88a013          	slti	zero,a7,-552
80009e50:	0140b7b3          	sltu	a5,ra,s4
80009e54:	04d1e863          	bltu	gp,a3,80009ea4 <sub_5+0x2d4>
80009e58:	024b7463          	bgeu	s6,tp,80009e80 <sub_5+0x2b0>
80009e5c:	024b7863          	bgeu	s6,tp,80009e8c <sub_5+0x2bc>
80009e60:	03d09463          	bne	ra,t4,80009e88 <sub_5+0x2b8>
80009e64:	044b7063          	bgeu	s6,tp,80009ea4 <sub_5+0x2d4>
80009e68:	01465bb3          	srl	s7,a2,s4
80009e6c:	016fde63          	bge	t6,s6,80009e88 <sub_5+0x2b8>
80009e70:	0507c263          	blt	a5,a6,80009eb4 <sub_5+0x2e4>
80009e74:	0107ca63          	blt	a5,a6,80009e88 <sub_5+0x2b8>
80009e78:	4022ddb3          	sra	s11,t0,sp
80009e7c:	044b7663          	bgeu	s6,tp,80009ec8 <sub_5+0x2f8>
80009e80:	00d09993          	slli	s3,ra,0xd
80009e84:	00000013          	nop
80009e88:	01431733          	sll	a4,t1,s4
80009e8c:	01465bb3          	srl	s7,a2,s4
80009e90:	016fda63          	bge	t6,s6,80009ea4 <sub_5+0x2d4>
80009e94:	036fd063          	bge	t6,s6,80009eb4 <sub_5+0x2e4>
80009e98:	41ae0833          	sub	a6,t3,s10
80009e9c:	0ff0000f          	fence
80009ea0:	0000100f          	fence.i
80009ea4:	a08c68b7          	lui	a7,0xa08c6
80009ea8:	e4ccbc97          	auipc	s9,0xe4ccb
80009eac:	e5a8cb93          	xori	s7,a7,-422
80009eb0:	00d1e863          	bltu	gp,a3,80009ec0 <sub_5+0x2f0>
80009eb4:	4022ddb3          	sra	s11,t0,sp
80009eb8:	0141adb3          	slt	s11,gp,s4
80009ebc:	0ff0000f          	fence
80009ec0:	024b7e63          	bgeu	s6,tp,80009efc <sub_5+0x32c>
80009ec4:	0107ca63          	blt	a5,a6,80009ed8 <sub_5+0x308>
80009ec8:	056fd663          	bge	t6,s6,80009f14 <sub_5+0x344>
80009ecc:	0307cc63          	blt	a5,a6,80009f04 <sub_5+0x334>
80009ed0:	c66de993          	ori	s3,s11,-922
80009ed4:	01465bb3          	srl	s7,a2,s4
80009ed8:	e4ccbc97          	auipc	s9,0xe4ccb
80009edc:	c66de993          	ori	s3,s11,-922
80009ee0:	0000100f          	fence.i
80009ee4:	4022ddb3          	sra	s11,t0,sp
80009ee8:	0072c133          	xor	sp,t0,t2
80009eec:	e4ccbc97          	auipc	s9,0xe4ccb
80009ef0:	0000100f          	fence.i
80009ef4:	00d1e263          	bltu	gp,a3,80009ef8 <sub_5+0x328>
80009ef8:	a08c68b7          	lui	a7,0xa08c6
80009efc:	0507c863          	blt	a5,a6,80009f4c <sub_5+0x37c>
80009f00:	019fe0b3          	or	ra,t6,s9
80009f04:	056fd463          	bge	t6,s6,80009f4c <sub_5+0x37c>
80009f08:	0072c133          	xor	sp,t0,t2
80009f0c:	00d1e263          	bltu	gp,a3,80009f10 <sub_5+0x340>
80009f10:	024b7063          	bgeu	s6,tp,80009f30 <sub_5+0x360>
80009f14:	0072c133          	xor	sp,t0,t2
80009f18:	0000100f          	fence.i
80009f1c:	05950463          	beq	a0,s9,80009f64 <sub_5+0x394>
80009f20:	0ff0000f          	fence
80009f24:	0072c133          	xor	sp,t0,t2
80009f28:	01465bb3          	srl	s7,a2,s4
80009f2c:	0072c133          	xor	sp,t0,t2
80009f30:	036fd063          	bge	t6,s6,80009f50 <sub_5+0x380>
80009f34:	019fe0b3          	or	ra,t6,s9
80009f38:	01808433          	add	s0,ra,s8
80009f3c:	019fe0b3          	or	ra,t6,s9
80009f40:	036fd463          	bge	t6,s6,80009f68 <sub_5+0x398>
80009f44:	4022ddb3          	sra	s11,t0,sp
80009f48:	4022ddb3          	sra	s11,t0,sp
80009f4c:	01c45713          	srli	a4,s0,0x1c
80009f50:	0140b7b3          	sltu	a5,ra,s4
80009f54:	05d09263          	bne	ra,t4,80009f98 <sub_5+0x3c8>
80009f58:	0ff0000f          	fence
80009f5c:	0140b7b3          	sltu	a5,ra,s4
80009f60:	bde33713          	sltiu	a4,t1,-1058
80009f64:	e5a8cb93          	xori	s7,a7,-422
80009f68:	0140b7b3          	sltu	a5,ra,s4
80009f6c:	0072c133          	xor	sp,t0,t2
80009f70:	04d1e063          	bltu	gp,a3,80009fb0 <sub_5+0x3e0>
80009f74:	41ae0833          	sub	a6,t3,s10
80009f78:	0140b7b3          	sltu	a5,ra,s4
80009f7c:	03d09463          	bne	ra,t4,80009fa4 <sub_5+0x3d4>
80009f80:	0ff0000f          	fence
80009f84:	0140b7b3          	sltu	a5,ra,s4
80009f88:	036fd463          	bge	t6,s6,80009fb0 <sub_5+0x3e0>
80009f8c:	c66de993          	ori	s3,s11,-922
80009f90:	c66de993          	ori	s3,s11,-922
80009f94:	044b7463          	bgeu	s6,tp,80009fdc <sub_5+0x40c>
80009f98:	0ff0000f          	fence
80009f9c:	01c45713          	srli	a4,s0,0x1c
80009fa0:	0000100f          	fence.i
80009fa4:	0072c133          	xor	sp,t0,t2
80009fa8:	00000013          	nop
80009fac:	056fd463          	bge	t6,s6,80009ff4 <sub_5+0x424>
80009fb0:	00d09993          	slli	s3,ra,0xd
80009fb4:	01537533          	and	a0,t1,s5
80009fb8:	0072c133          	xor	sp,t0,t2
80009fbc:	0141adb3          	slt	s11,gp,s4
80009fc0:	00000013          	nop
80009fc4:	01c45713          	srli	a4,s0,0x1c
80009fc8:	01537533          	and	a0,t1,s5
80009fcc:	4158d193          	srai	gp,a7,0x15
80009fd0:	dd88a013          	slti	zero,a7,-552
80009fd4:	dd88a013          	slti	zero,a7,-552
80009fd8:	01465bb3          	srl	s7,a2,s4
80009fdc:	00d1ea63          	bltu	gp,a3,80009ff0 <sub_5+0x420>
80009fe0:	01808433          	add	s0,ra,s8
80009fe4:	e5e3fb93          	andi	s7,t2,-418
80009fe8:	01c45713          	srli	a4,s0,0x1c
80009fec:	00000013          	nop
80009ff0:	e4ccbc97          	auipc	s9,0xe4ccb
80009ff4:	0000100f          	fence.i
80009ff8:	01465bb3          	srl	s7,a2,s4
80009ffc:	a08c68b7          	lui	a7,0xa08c6
8000a000:	0140b7b3          	sltu	a5,ra,s4
8000a004:	4022ddb3          	sra	s11,t0,sp
8000a008:	41ae0833          	sub	a6,t3,s10
8000a00c:	01465bb3          	srl	s7,a2,s4
8000a010:	01808433          	add	s0,ra,s8
8000a014:	004b7263          	bgeu	s6,tp,8000a018 <sub_5+0x448>
8000a018:	019fe0b3          	or	ra,t6,s9
8000a01c:	00432083          	lw	ra,4(t1)
8000a020:	0ff0000f          	fence
8000a024:	0ff0000f          	fence
8000a028:	018084b3          	add	s1,ra,s8
8000a02c:	014317b3          	sll	a5,t1,s4
8000a030:	04030313          	addi	t1,t1,64
8000a034:	e5a8cc13          	xori	s8,a7,-422
8000a038:	a08c6937          	lui	s2,0xa08c6
8000a03c:	0000100f          	fence.i
8000a040:	c66dea13          	ori	s4,s11,-922
8000a044:	00008593          	mv	a1,ra
8000a048:	000585e7          	jalr	a1,a1

8000a04c <write_tohost>:
8000a04c:	00008f17          	auipc	t5,0x8
8000a050:	fa3f2a23          	sw	gp,-76(t5) # 80012000 <tohost>

8000a054 <_exit>:
8000a054:	ff9ff06f          	j	8000a04c <write_tohost>

8000a058 <instr_end>:
8000a058:	00000013          	nop

8000a05c <umode_program>:
8000a05c:	ff830313          	addi	t1,t1,-8
8000a060:	0ff0000f          	fence
8000a064:	01465c33          	srl	s8,a2,s4
8000a068:	01465c33          	srl	s8,a2,s4
8000a06c:	4158d213          	srai	tp,a7,0x15
8000a070:	41ae08b3          	sub	a7,t3,s10
8000a074:	014317b3          	sll	a5,t1,s4
8000a078:	014317b3          	sll	a5,t1,s4
8000a07c:	00132223          	sw	ra,4(t1)
8000a080:	0140b833          	sltu	a6,ra,s4
8000a084:	bde33793          	sltiu	a5,t1,-1058
8000a088:	044b7263          	bgeu	s6,tp,8000a0cc <umode_program+0x70>
8000a08c:	056fd663          	bge	t6,s6,8000a0d8 <umode_program+0x7c>
8000a090:	004b7a63          	bgeu	s6,tp,8000a0a4 <umode_program+0x48>
8000a094:	0140b7b3          	sltu	a5,ra,s4
8000a098:	4158d193          	srai	gp,a7,0x15
8000a09c:	e5e3fb93          	andi	s7,t2,-418
8000a0a0:	01808433          	add	s0,ra,s8
8000a0a4:	01950663          	beq	a0,s9,8000a0b0 <umode_program+0x54>
8000a0a8:	c66de993          	ori	s3,s11,-922
8000a0ac:	01808433          	add	s0,ra,s8
8000a0b0:	0140b7b3          	sltu	a5,ra,s4
8000a0b4:	01431733          	sll	a4,t1,s4
8000a0b8:	019fe0b3          	or	ra,t6,s9
8000a0bc:	00d09993          	slli	s3,ra,0xd
8000a0c0:	00d09993          	slli	s3,ra,0xd
8000a0c4:	41ae0833          	sub	a6,t3,s10
8000a0c8:	05950263          	beq	a0,s9,8000a10c <umode_program+0xb0>
8000a0cc:	01537533          	and	a0,t1,s5
8000a0d0:	01c45713          	srli	a4,s0,0x1c
8000a0d4:	a08c68b7          	lui	a7,0xa08c6
8000a0d8:	04d1e663          	bltu	gp,a3,8000a124 <umode_program+0xc8>
8000a0dc:	00000013          	nop
8000a0e0:	574a0113          	addi	sp,s4,1396
8000a0e4:	00000013          	nop
8000a0e8:	0141adb3          	slt	s11,gp,s4
8000a0ec:	01808433          	add	s0,ra,s8
8000a0f0:	05d09863          	bne	ra,t4,8000a140 <umode_program+0xe4>
8000a0f4:	0140b7b3          	sltu	a5,ra,s4
8000a0f8:	0ff0000f          	fence
8000a0fc:	01465bb3          	srl	s7,a2,s4
8000a100:	0ff0000f          	fence
8000a104:	0141adb3          	slt	s11,gp,s4
8000a108:	019fe0b3          	or	ra,t6,s9
8000a10c:	00d09993          	slli	s3,ra,0xd
8000a110:	e5a8cb93          	xori	s7,a7,-422
8000a114:	0141adb3          	slt	s11,gp,s4
8000a118:	04d1e863          	bltu	gp,a3,8000a168 <umode_program+0x10c>
8000a11c:	0ff0000f          	fence
8000a120:	03950e63          	beq	a0,s9,8000a15c <umode_program+0x100>
8000a124:	0ff0000f          	fence
8000a128:	056fd663          	bge	t6,s6,8000a174 <umode_program+0x118>
8000a12c:	0107ca63          	blt	a5,a6,8000a140 <umode_program+0xe4>
8000a130:	0072c133          	xor	sp,t0,t2
8000a134:	c66de993          	ori	s3,s11,-922
8000a138:	01431733          	sll	a4,t1,s4
8000a13c:	019fe0b3          	or	ra,t6,s9
8000a140:	01537533          	and	a0,t1,s5
8000a144:	04d1e263          	bltu	gp,a3,8000a188 <umode_program+0x12c>
8000a148:	01537533          	and	a0,t1,s5
8000a14c:	e5e3fb93          	andi	s7,t2,-418
8000a150:	036fd863          	bge	t6,s6,8000a180 <umode_program+0x124>
8000a154:	036fda63          	bge	t6,s6,8000a188 <umode_program+0x12c>
8000a158:	01431733          	sll	a4,t1,s4
8000a15c:	036fd863          	bge	t6,s6,8000a18c <umode_program+0x130>
8000a160:	03d09263          	bne	ra,t4,8000a184 <umode_program+0x128>
8000a164:	03d09463          	bne	ra,t4,8000a18c <umode_program+0x130>
8000a168:	00d09993          	slli	s3,ra,0xd
8000a16c:	e4ccbc97          	auipc	s9,0xe4ccb
8000a170:	03d09863          	bne	ra,t4,8000a1a0 <umode_program+0x144>
8000a174:	019fe0b3          	or	ra,t6,s9
8000a178:	019fe0b3          	or	ra,t6,s9
8000a17c:	019fe0b3          	or	ra,t6,s9
8000a180:	019fe0b3          	or	ra,t6,s9
8000a184:	00000013          	nop
8000a188:	e5a8cb93          	xori	s7,a7,-422
8000a18c:	574a0113          	addi	sp,s4,1396
8000a190:	a08c68b7          	lui	a7,0xa08c6
8000a194:	0141adb3          	slt	s11,gp,s4
8000a198:	c66de993          	ori	s3,s11,-922
8000a19c:	00d1ea63          	bltu	gp,a3,8000a1b0 <umode_program+0x154>
8000a1a0:	01d09663          	bne	ra,t4,8000a1ac <umode_program+0x150>
8000a1a4:	e4ccbc97          	auipc	s9,0xe4ccb
8000a1a8:	0140b7b3          	sltu	a5,ra,s4
8000a1ac:	00000013          	nop
8000a1b0:	4022ddb3          	sra	s11,t0,sp
8000a1b4:	0000100f          	fence.i
8000a1b8:	01808433          	add	s0,ra,s8
8000a1bc:	01808433          	add	s0,ra,s8
8000a1c0:	00000013          	nop
8000a1c4:	02d1ea63          	bltu	gp,a3,8000a1f8 <umode_program+0x19c>
8000a1c8:	4158d193          	srai	gp,a7,0x15
8000a1cc:	0141adb3          	slt	s11,gp,s4
8000a1d0:	0ff0000f          	fence
8000a1d4:	e4ccbc97          	auipc	s9,0xe4ccb
8000a1d8:	e5e3fb93          	andi	s7,t2,-418
8000a1dc:	01c45713          	srli	a4,s0,0x1c
8000a1e0:	574a0113          	addi	sp,s4,1396
8000a1e4:	024b7663          	bgeu	s6,tp,8000a210 <umode_program+0x1b4>
8000a1e8:	a08c68b7          	lui	a7,0xa08c6
8000a1ec:	e5a8cb93          	xori	s7,a7,-422
8000a1f0:	0141adb3          	slt	s11,gp,s4
8000a1f4:	01808433          	add	s0,ra,s8
8000a1f8:	01537533          	and	a0,t1,s5
8000a1fc:	41ae0833          	sub	a6,t3,s10
8000a200:	00000013          	nop
8000a204:	574a0113          	addi	sp,s4,1396
8000a208:	a08c68b7          	lui	a7,0xa08c6
8000a20c:	019fe0b3          	or	ra,t6,s9
8000a210:	01537533          	and	a0,t1,s5
8000a214:	0ff0000f          	fence
8000a218:	574a0113          	addi	sp,s4,1396
8000a21c:	00000013          	nop
8000a220:	0140b7b3          	sltu	a5,ra,s4
8000a224:	41ae0833          	sub	a6,t3,s10
8000a228:	004b7863          	bgeu	s6,tp,8000a238 <umode_program+0x1dc>
8000a22c:	036fd863          	bge	t6,s6,8000a25c <umode_program+0x200>
8000a230:	01808433          	add	s0,ra,s8
8000a234:	019fe0b3          	or	ra,t6,s9
8000a238:	01465bb3          	srl	s7,a2,s4
8000a23c:	0072c133          	xor	sp,t0,t2
8000a240:	0ff0000f          	fence
8000a244:	a08c68b7          	lui	a7,0xa08c6
8000a248:	01537533          	and	a0,t1,s5
8000a24c:	dd88a013          	slti	zero,a7,-552
8000a250:	0000100f          	fence.i
8000a254:	01d09663          	bne	ra,t4,8000a260 <umode_program+0x204>
8000a258:	019fe0b3          	or	ra,t6,s9
8000a25c:	bde33713          	sltiu	a4,t1,-1058
8000a260:	c66de993          	ori	s3,s11,-922
8000a264:	0141adb3          	slt	s11,gp,s4
8000a268:	01808433          	add	s0,ra,s8
8000a26c:	0ff0000f          	fence
8000a270:	bde33713          	sltiu	a4,t1,-1058
8000a274:	044b7063          	bgeu	s6,tp,8000a2b4 <umode_program+0x258>
8000a278:	574a0113          	addi	sp,s4,1396
8000a27c:	00000013          	nop
8000a280:	a08c68b7          	lui	a7,0xa08c6
8000a284:	41ae0833          	sub	a6,t3,s10
8000a288:	00000013          	nop
8000a28c:	03950c63          	beq	a0,s9,8000a2c4 <umode_program+0x268>
8000a290:	0ff0000f          	fence
8000a294:	4022ddb3          	sra	s11,t0,sp
8000a298:	019fe0b3          	or	ra,t6,s9
8000a29c:	c66de993          	ori	s3,s11,-922
8000a2a0:	dd88a013          	slti	zero,a7,-552
8000a2a4:	01537533          	and	a0,t1,s5
8000a2a8:	e5e3fb93          	andi	s7,t2,-418
8000a2ac:	0000100f          	fence.i
8000a2b0:	c66de993          	ori	s3,s11,-922
8000a2b4:	00d09993          	slli	s3,ra,0xd
8000a2b8:	05950663          	beq	a0,s9,8000a304 <umode_program+0x2a8>
8000a2bc:	574a0113          	addi	sp,s4,1396
8000a2c0:	e5e3fb93          	andi	s7,t2,-418
8000a2c4:	03950463          	beq	a0,s9,8000a2ec <umode_program+0x290>
8000a2c8:	00d09993          	slli	s3,ra,0xd
8000a2cc:	01950e63          	beq	a0,s9,8000a2e8 <umode_program+0x28c>
8000a2d0:	a08c68b7          	lui	a7,0xa08c6
8000a2d4:	01537533          	and	a0,t1,s5
8000a2d8:	0072c133          	xor	sp,t0,t2
8000a2dc:	01c45713          	srli	a4,s0,0x1c
8000a2e0:	4022ddb3          	sra	s11,t0,sp
8000a2e4:	01808433          	add	s0,ra,s8
8000a2e8:	04d1e063          	bltu	gp,a3,8000a328 <umode_program+0x2cc>
8000a2ec:	41ae0833          	sub	a6,t3,s10
8000a2f0:	00d1ea63          	bltu	gp,a3,8000a304 <umode_program+0x2a8>
8000a2f4:	a08c68b7          	lui	a7,0xa08c6
8000a2f8:	02d1ea63          	bltu	gp,a3,8000a32c <umode_program+0x2d0>
8000a2fc:	016fd663          	bge	t6,s6,8000a308 <umode_program+0x2ac>
8000a300:	00d09993          	slli	s3,ra,0xd
8000a304:	4022ddb3          	sra	s11,t0,sp
8000a308:	4022ddb3          	sra	s11,t0,sp
8000a30c:	019fe0b3          	or	ra,t6,s9
8000a310:	03d09a63          	bne	ra,t4,8000a344 <umode_program+0x2e8>
8000a314:	e5a8cb93          	xori	s7,a7,-422
8000a318:	a08c68b7          	lui	a7,0xa08c6
8000a31c:	e5a8cb93          	xori	s7,a7,-422
8000a320:	05d09663          	bne	ra,t4,8000a36c <umode_program+0x310>
8000a324:	0000100f          	fence.i
8000a328:	01808433          	add	s0,ra,s8
8000a32c:	024b7463          	bgeu	s6,tp,8000a354 <umode_program+0x2f8>
8000a330:	a08c68b7          	lui	a7,0xa08c6
8000a334:	e5a8cb93          	xori	s7,a7,-422
8000a338:	c66de993          	ori	s3,s11,-922
8000a33c:	a08c68b7          	lui	a7,0xa08c6
8000a340:	41ae0833          	sub	a6,t3,s10
8000a344:	01808433          	add	s0,ra,s8
8000a348:	01c45713          	srli	a4,s0,0x1c
8000a34c:	00000013          	nop
8000a350:	41ae0833          	sub	a6,t3,s10
8000a354:	0000100f          	fence.i
8000a358:	01537533          	and	a0,t1,s5
8000a35c:	00000013          	nop
8000a360:	01808433          	add	s0,ra,s8
8000a364:	01431733          	sll	a4,t1,s4
8000a368:	0072c133          	xor	sp,t0,t2
8000a36c:	044b7863          	bgeu	s6,tp,8000a3bc <umode_program+0x360>
8000a370:	01431733          	sll	a4,t1,s4
8000a374:	01431733          	sll	a4,t1,s4
8000a378:	00d09993          	slli	s3,ra,0xd
8000a37c:	016fd863          	bge	t6,s6,8000a38c <umode_program+0x330>
8000a380:	41ae0833          	sub	a6,t3,s10
8000a384:	4022ddb3          	sra	s11,t0,sp
8000a388:	bde33713          	sltiu	a4,t1,-1058
8000a38c:	a08c68b7          	lui	a7,0xa08c6
8000a390:	bde33713          	sltiu	a4,t1,-1058
8000a394:	00000013          	nop
8000a398:	574a0113          	addi	sp,s4,1396
8000a39c:	01c45713          	srli	a4,s0,0x1c
8000a3a0:	dd88a013          	slti	zero,a7,-552
8000a3a4:	e5e3fb93          	andi	s7,t2,-418
8000a3a8:	04d1e663          	bltu	gp,a3,8000a3f4 <umode_program+0x398>
8000a3ac:	0141adb3          	slt	s11,gp,s4
8000a3b0:	574a0113          	addi	sp,s4,1396
8000a3b4:	0072c133          	xor	sp,t0,t2
8000a3b8:	04d1e663          	bltu	gp,a3,8000a404 <umode_program+0x3a8>
8000a3bc:	574a0113          	addi	sp,s4,1396
8000a3c0:	4158d193          	srai	gp,a7,0x15
8000a3c4:	dd88a013          	slti	zero,a7,-552
8000a3c8:	036fdc63          	bge	t6,s6,8000a400 <umode_program+0x3a4>
8000a3cc:	574a0113          	addi	sp,s4,1396
8000a3d0:	00000013          	nop
8000a3d4:	0141adb3          	slt	s11,gp,s4
8000a3d8:	01c45713          	srli	a4,s0,0x1c
8000a3dc:	0140b7b3          	sltu	a5,ra,s4
8000a3e0:	03950e63          	beq	a0,s9,8000a41c <umode_program+0x3c0>
8000a3e4:	bde33713          	sltiu	a4,t1,-1058
8000a3e8:	05950263          	beq	a0,s9,8000a42c <umode_program+0x3d0>
8000a3ec:	0072c133          	xor	sp,t0,t2
8000a3f0:	0141adb3          	slt	s11,gp,s4
8000a3f4:	0072c133          	xor	sp,t0,t2
8000a3f8:	dd88a013          	slti	zero,a7,-552
8000a3fc:	036fd863          	bge	t6,s6,8000a42c <umode_program+0x3d0>
8000a400:	00000013          	nop
8000a404:	02d1e263          	bltu	gp,a3,8000a428 <umode_program+0x3cc>
8000a408:	019fe0b3          	or	ra,t6,s9
8000a40c:	e5a8cb93          	xori	s7,a7,-422
8000a410:	00000013          	nop
8000a414:	036fd463          	bge	t6,s6,8000a43c <umode_program+0x3e0>
8000a418:	05950863          	beq	a0,s9,8000a468 <umode_program+0x40c>
8000a41c:	0ff0000f          	fence
8000a420:	004b7e63          	bgeu	s6,tp,8000a43c <umode_program+0x3e0>
8000a424:	a08c68b7          	lui	a7,0xa08c6
8000a428:	e5a8cb93          	xori	s7,a7,-422
8000a42c:	03d09863          	bne	ra,t4,8000a45c <umode_program+0x400>
8000a430:	004b7663          	bgeu	s6,tp,8000a43c <umode_program+0x3e0>
8000a434:	01950663          	beq	a0,s9,8000a440 <umode_program+0x3e4>
8000a438:	01808433          	add	s0,ra,s8
8000a43c:	4158d193          	srai	gp,a7,0x15
8000a440:	024b7863          	bgeu	s6,tp,8000a470 <umode_program+0x414>
8000a444:	4022ddb3          	sra	s11,t0,sp
8000a448:	0141adb3          	slt	s11,gp,s4
8000a44c:	03950663          	beq	a0,s9,8000a478 <umode_program+0x41c>
8000a450:	e4ccbc97          	auipc	s9,0xe4ccb
8000a454:	e5e3fb93          	andi	s7,t2,-418
8000a458:	01537533          	and	a0,t1,s5
8000a45c:	a08c68b7          	lui	a7,0xa08c6
8000a460:	0141adb3          	slt	s11,gp,s4
8000a464:	01537533          	and	a0,t1,s5
8000a468:	01537533          	and	a0,t1,s5
8000a46c:	00d09993          	slli	s3,ra,0xd
8000a470:	c66de993          	ori	s3,s11,-922
8000a474:	0ff0000f          	fence
8000a478:	01c45713          	srli	a4,s0,0x1c
8000a47c:	dd88a013          	slti	zero,a7,-552
8000a480:	0107ca63          	blt	a5,a6,8000a494 <umode_program+0x438>
8000a484:	00d09993          	slli	s3,ra,0xd
8000a488:	e4ccbc97          	auipc	s9,0xe4ccb
8000a48c:	4158d193          	srai	gp,a7,0x15
8000a490:	01537533          	and	a0,t1,s5
8000a494:	0140b7b3          	sltu	a5,ra,s4
8000a498:	0000100f          	fence.i
8000a49c:	0000100f          	fence.i
8000a4a0:	056fd663          	bge	t6,s6,8000a4ec <umode_program+0x490>
8000a4a4:	019fe0b3          	or	ra,t6,s9
8000a4a8:	41ae0833          	sub	a6,t3,s10
8000a4ac:	01465bb3          	srl	s7,a2,s4
8000a4b0:	574a0113          	addi	sp,s4,1396
8000a4b4:	4022ddb3          	sra	s11,t0,sp
8000a4b8:	dd88a013          	slti	zero,a7,-552
8000a4bc:	05d09263          	bne	ra,t4,8000a500 <umode_program+0x4a4>
8000a4c0:	4022ddb3          	sra	s11,t0,sp
8000a4c4:	01465bb3          	srl	s7,a2,s4
8000a4c8:	01808433          	add	s0,ra,s8
8000a4cc:	dd88a013          	slti	zero,a7,-552
8000a4d0:	00d09993          	slli	s3,ra,0xd
8000a4d4:	4158d193          	srai	gp,a7,0x15
8000a4d8:	019fe0b3          	or	ra,t6,s9
8000a4dc:	e5a8cb93          	xori	s7,a7,-422
8000a4e0:	0141adb3          	slt	s11,gp,s4
8000a4e4:	00d1ea63          	bltu	gp,a3,8000a4f8 <umode_program+0x49c>
8000a4e8:	c66de993          	ori	s3,s11,-922
8000a4ec:	0140b7b3          	sltu	a5,ra,s4
8000a4f0:	00d09993          	slli	s3,ra,0xd
8000a4f4:	0ff0000f          	fence
8000a4f8:	dd88a013          	slti	zero,a7,-552
8000a4fc:	e4ccbc97          	auipc	s9,0xe4ccb
8000a500:	4022ddb3          	sra	s11,t0,sp
8000a504:	4158d193          	srai	gp,a7,0x15
8000a508:	03d09863          	bne	ra,t4,8000a538 <umode_program+0x4dc>
8000a50c:	a08c68b7          	lui	a7,0xa08c6
8000a510:	a08c68b7          	lui	a7,0xa08c6
8000a514:	e4ccbc97          	auipc	s9,0xe4ccb
8000a518:	4022ddb3          	sra	s11,t0,sp
8000a51c:	01431733          	sll	a4,t1,s4
8000a520:	01c45713          	srli	a4,s0,0x1c
8000a524:	05950263          	beq	a0,s9,8000a568 <umode_program+0x50c>
8000a528:	01808433          	add	s0,ra,s8
8000a52c:	c66de993          	ori	s3,s11,-922
8000a530:	4158d193          	srai	gp,a7,0x15
8000a534:	41ae0833          	sub	a6,t3,s10
8000a538:	01431733          	sll	a4,t1,s4
8000a53c:	01c45713          	srli	a4,s0,0x1c
8000a540:	bde33713          	sltiu	a4,t1,-1058
8000a544:	bde33713          	sltiu	a4,t1,-1058
8000a548:	0140b7b3          	sltu	a5,ra,s4
8000a54c:	4158d193          	srai	gp,a7,0x15
8000a550:	01465bb3          	srl	s7,a2,s4
8000a554:	03d09863          	bne	ra,t4,8000a584 <umode_program+0x528>
8000a558:	01c45713          	srli	a4,s0,0x1c
8000a55c:	4022ddb3          	sra	s11,t0,sp
8000a560:	00d09993          	slli	s3,ra,0xd
8000a564:	04d1e663          	bltu	gp,a3,8000a5b0 <umode_program+0x554>
8000a568:	00000013          	nop
8000a56c:	01431733          	sll	a4,t1,s4
8000a570:	0ff0000f          	fence
8000a574:	00000013          	nop
8000a578:	016fd863          	bge	t6,s6,8000a588 <umode_program+0x52c>
8000a57c:	a08c68b7          	lui	a7,0xa08c6
8000a580:	c66de993          	ori	s3,s11,-922
8000a584:	01c45713          	srli	a4,s0,0x1c
8000a588:	574a0113          	addi	sp,s4,1396
8000a58c:	dd88a013          	slti	zero,a7,-552
8000a590:	0ff0000f          	fence
8000a594:	e5a8cb93          	xori	s7,a7,-422
8000a598:	4158d193          	srai	gp,a7,0x15
8000a59c:	41ae0833          	sub	a6,t3,s10
8000a5a0:	01c45713          	srli	a4,s0,0x1c
8000a5a4:	04d1e663          	bltu	gp,a3,8000a5f0 <umode_program+0x594>
8000a5a8:	01950663          	beq	a0,s9,8000a5b4 <umode_program+0x558>
8000a5ac:	01808433          	add	s0,ra,s8
8000a5b0:	0000100f          	fence.i
8000a5b4:	bde33713          	sltiu	a4,t1,-1058
8000a5b8:	00d09993          	slli	s3,ra,0xd
8000a5bc:	4158d193          	srai	gp,a7,0x15
8000a5c0:	e5a8cb93          	xori	s7,a7,-422
8000a5c4:	0140b7b3          	sltu	a5,ra,s4
8000a5c8:	4158d193          	srai	gp,a7,0x15
8000a5cc:	e5a8cb93          	xori	s7,a7,-422
8000a5d0:	01c45713          	srli	a4,s0,0x1c
8000a5d4:	01431733          	sll	a4,t1,s4
8000a5d8:	dd88a013          	slti	zero,a7,-552
8000a5dc:	044b7863          	bgeu	s6,tp,8000a62c <umode_program+0x5d0>
8000a5e0:	0000100f          	fence.i
8000a5e4:	a08c68b7          	lui	a7,0xa08c6
8000a5e8:	0ff0000f          	fence
8000a5ec:	c66de993          	ori	s3,s11,-922
8000a5f0:	05950263          	beq	a0,s9,8000a634 <umode_program+0x5d8>
8000a5f4:	dd88a013          	slti	zero,a7,-552
8000a5f8:	036fd863          	bge	t6,s6,8000a628 <umode_program+0x5cc>
8000a5fc:	0140b7b3          	sltu	a5,ra,s4
8000a600:	016fde63          	bge	t6,s6,8000a61c <umode_program+0x5c0>
8000a604:	574a0113          	addi	sp,s4,1396
8000a608:	574a0113          	addi	sp,s4,1396
8000a60c:	019fe0b3          	or	ra,t6,s9
8000a610:	004b7663          	bgeu	s6,tp,8000a61c <umode_program+0x5c0>
8000a614:	019fe0b3          	or	ra,t6,s9
8000a618:	c66de993          	ori	s3,s11,-922
8000a61c:	0ff0000f          	fence
8000a620:	e5a8cb93          	xori	s7,a7,-422
8000a624:	01537533          	and	a0,t1,s5
8000a628:	e4ccbc97          	auipc	s9,0xe4ccb
8000a62c:	dd88a013          	slti	zero,a7,-552
8000a630:	03d09a63          	bne	ra,t4,8000a664 <umode_program+0x608>
8000a634:	e5e3fb93          	andi	s7,t2,-418
8000a638:	a08c68b7          	lui	a7,0xa08c6
8000a63c:	bde33713          	sltiu	a4,t1,-1058
8000a640:	01c45713          	srli	a4,s0,0x1c
8000a644:	044b7263          	bgeu	s6,tp,8000a688 <umode_program+0x62c>
8000a648:	574a0113          	addi	sp,s4,1396
8000a64c:	e5e3fb93          	andi	s7,t2,-418
8000a650:	0000100f          	fence.i
8000a654:	4022ddb3          	sra	s11,t0,sp
8000a658:	05d09663          	bne	ra,t4,8000a6a4 <umode_program+0x648>
8000a65c:	e5e3fb93          	andi	s7,t2,-418
8000a660:	044b7063          	bgeu	s6,tp,8000a6a0 <umode_program+0x644>
8000a664:	01808433          	add	s0,ra,s8
8000a668:	0141adb3          	slt	s11,gp,s4
8000a66c:	e5e3fb93          	andi	s7,t2,-418
8000a670:	0307c863          	blt	a5,a6,8000a6a0 <umode_program+0x644>
8000a674:	01537533          	and	a0,t1,s5
8000a678:	0072c133          	xor	sp,t0,t2
8000a67c:	4022ddb3          	sra	s11,t0,sp
8000a680:	00d09993          	slli	s3,ra,0xd
8000a684:	e4ccbc97          	auipc	s9,0xe4ccb
8000a688:	e5a8cb93          	xori	s7,a7,-422
8000a68c:	004b7a63          	bgeu	s6,tp,8000a6a0 <umode_program+0x644>
8000a690:	0000100f          	fence.i
8000a694:	00000013          	nop
8000a698:	0072c133          	xor	sp,t0,t2
8000a69c:	0ff0000f          	fence
8000a6a0:	bde33713          	sltiu	a4,t1,-1058
8000a6a4:	4158d193          	srai	gp,a7,0x15
8000a6a8:	01c45713          	srli	a4,s0,0x1c
8000a6ac:	0107ca63          	blt	a5,a6,8000a6c0 <umode_program+0x664>
8000a6b0:	01c45713          	srli	a4,s0,0x1c
8000a6b4:	a08c68b7          	lui	a7,0xa08c6
8000a6b8:	0107c463          	blt	a5,a6,8000a6c0 <umode_program+0x664>
8000a6bc:	e4ccbc97          	auipc	s9,0xe4ccb
8000a6c0:	e5e3fb93          	andi	s7,t2,-418
8000a6c4:	00432083          	lw	ra,4(t1)
8000a6c8:	00830313          	addi	t1,t1,8
8000a6cc:	00000013          	nop
8000a6d0:	01c45793          	srli	a5,s0,0x1c
8000a6d4:	4022de33          	sra	t3,t0,sp
8000a6d8:	0072c1b3          	xor	gp,t0,t2
8000a6dc:	00008593          	mv	a1,ra
8000a6e0:	000585e7          	jalr	a1,a1

8000a6e4 <smode_program>:
8000a6e4:	00d09a13          	slli	s4,ra,0xd
8000a6e8:	e4ccbd17          	auipc	s10,0xe4ccb
8000a6ec:	0ff0000f          	fence
8000a6f0:	00000013          	nop
8000a6f4:	ff030313          	addi	t1,t1,-16
8000a6f8:	e5a8cc13          	xori	s8,a7,-422
8000a6fc:	01465c33          	srl	s8,a2,s4
8000a700:	00132223          	sw	ra,4(t1)
8000a704:	0141ae33          	slt	t3,gp,s4
8000a708:	e4ccbd17          	auipc	s10,0xe4ccb
8000a70c:	e5e3fb93          	andi	s7,t2,-418
8000a710:	c66de993          	ori	s3,s11,-922
8000a714:	01465bb3          	srl	s7,a2,s4
8000a718:	01d09e63          	bne	ra,t4,8000a734 <smode_program+0x50>
8000a71c:	01950a63          	beq	a0,s9,8000a730 <smode_program+0x4c>
8000a720:	01431733          	sll	a4,t1,s4
8000a724:	41ae0833          	sub	a6,t3,s10
8000a728:	00000013          	nop
8000a72c:	e5e3fb93          	andi	s7,t2,-418
8000a730:	01431733          	sll	a4,t1,s4
8000a734:	4022ddb3          	sra	s11,t0,sp
8000a738:	4022ddb3          	sra	s11,t0,sp
8000a73c:	0140b7b3          	sltu	a5,ra,s4
8000a740:	574a0113          	addi	sp,s4,1396
8000a744:	a08c68b7          	lui	a7,0xa08c6
8000a748:	02d1e863          	bltu	gp,a3,8000a778 <smode_program+0x94>
8000a74c:	4158d193          	srai	gp,a7,0x15
8000a750:	00000013          	nop
8000a754:	e5a8cb93          	xori	s7,a7,-422
8000a758:	bde33713          	sltiu	a4,t1,-1058
8000a75c:	bde33713          	sltiu	a4,t1,-1058
8000a760:	00000013          	nop
8000a764:	01431733          	sll	a4,t1,s4
8000a768:	01c45713          	srli	a4,s0,0x1c
8000a76c:	0072c133          	xor	sp,t0,t2
8000a770:	01465bb3          	srl	s7,a2,s4
8000a774:	e4ccbc97          	auipc	s9,0xe4ccb
8000a778:	0072c133          	xor	sp,t0,t2
8000a77c:	04d1e863          	bltu	gp,a3,8000a7cc <smode_program+0xe8>
8000a780:	056fd063          	bge	t6,s6,8000a7c0 <smode_program+0xdc>
8000a784:	4158d193          	srai	gp,a7,0x15
8000a788:	0ff0000f          	fence
8000a78c:	bde33713          	sltiu	a4,t1,-1058
8000a790:	019fe0b3          	or	ra,t6,s9
8000a794:	044b7263          	bgeu	s6,tp,8000a7d8 <smode_program+0xf4>
8000a798:	024b7063          	bgeu	s6,tp,8000a7b8 <smode_program+0xd4>
8000a79c:	01465bb3          	srl	s7,a2,s4
8000a7a0:	019fe0b3          	or	ra,t6,s9
8000a7a4:	e5a8cb93          	xori	s7,a7,-422
8000a7a8:	e5a8cb93          	xori	s7,a7,-422
8000a7ac:	01465bb3          	srl	s7,a2,s4
8000a7b0:	dd88a013          	slti	zero,a7,-552
8000a7b4:	e5a8cb93          	xori	s7,a7,-422
8000a7b8:	04d1e463          	bltu	gp,a3,8000a800 <smode_program+0x11c>
8000a7bc:	0072c133          	xor	sp,t0,t2
8000a7c0:	00000013          	nop
8000a7c4:	dd88a013          	slti	zero,a7,-552
8000a7c8:	01c45713          	srli	a4,s0,0x1c
8000a7cc:	01465bb3          	srl	s7,a2,s4
8000a7d0:	0141adb3          	slt	s11,gp,s4
8000a7d4:	4022ddb3          	sra	s11,t0,sp
8000a7d8:	c66de993          	ori	s3,s11,-922
8000a7dc:	01465bb3          	srl	s7,a2,s4
8000a7e0:	574a0113          	addi	sp,s4,1396
8000a7e4:	01431733          	sll	a4,t1,s4
8000a7e8:	0ff0000f          	fence
8000a7ec:	00d09993          	slli	s3,ra,0xd
8000a7f0:	41ae0833          	sub	a6,t3,s10
8000a7f4:	bde33713          	sltiu	a4,t1,-1058
8000a7f8:	019fe0b3          	or	ra,t6,s9
8000a7fc:	01c45713          	srli	a4,s0,0x1c
8000a800:	0140b7b3          	sltu	a5,ra,s4
8000a804:	a08c68b7          	lui	a7,0xa08c6
8000a808:	01537533          	and	a0,t1,s5
8000a80c:	01537533          	and	a0,t1,s5
8000a810:	e5a8cb93          	xori	s7,a7,-422
8000a814:	0ff0000f          	fence
8000a818:	0141adb3          	slt	s11,gp,s4
8000a81c:	c66de993          	ori	s3,s11,-922
8000a820:	00000013          	nop
8000a824:	03d09c63          	bne	ra,t4,8000a85c <smode_program+0x178>
8000a828:	0141adb3          	slt	s11,gp,s4
8000a82c:	e4ccbc97          	auipc	s9,0xe4ccb
8000a830:	01808433          	add	s0,ra,s8
8000a834:	4022ddb3          	sra	s11,t0,sp
8000a838:	41ae0833          	sub	a6,t3,s10
8000a83c:	41ae0833          	sub	a6,t3,s10
8000a840:	01808433          	add	s0,ra,s8
8000a844:	0000100f          	fence.i
8000a848:	01465bb3          	srl	s7,a2,s4
8000a84c:	05d09463          	bne	ra,t4,8000a894 <smode_program+0x1b0>
8000a850:	036fd463          	bge	t6,s6,8000a878 <smode_program+0x194>
8000a854:	0ff0000f          	fence
8000a858:	00d09993          	slli	s3,ra,0xd
8000a85c:	019fe0b3          	or	ra,t6,s9
8000a860:	0140b7b3          	sltu	a5,ra,s4
8000a864:	019fe0b3          	or	ra,t6,s9
8000a868:	01c45713          	srli	a4,s0,0x1c
8000a86c:	a08c68b7          	lui	a7,0xa08c6
8000a870:	024b7863          	bgeu	s6,tp,8000a8a0 <smode_program+0x1bc>
8000a874:	044b7463          	bgeu	s6,tp,8000a8bc <smode_program+0x1d8>
8000a878:	01431733          	sll	a4,t1,s4
8000a87c:	00d09993          	slli	s3,ra,0xd
8000a880:	00d09993          	slli	s3,ra,0xd
8000a884:	0141adb3          	slt	s11,gp,s4
8000a888:	574a0113          	addi	sp,s4,1396
8000a88c:	41ae0833          	sub	a6,t3,s10
8000a890:	4022ddb3          	sra	s11,t0,sp
8000a894:	024b7863          	bgeu	s6,tp,8000a8c4 <smode_program+0x1e0>
8000a898:	0140b7b3          	sltu	a5,ra,s4
8000a89c:	0000100f          	fence.i
8000a8a0:	0000100f          	fence.i
8000a8a4:	019fe0b3          	or	ra,t6,s9
8000a8a8:	c66de993          	ori	s3,s11,-922
8000a8ac:	e5e3fb93          	andi	s7,t2,-418
8000a8b0:	a08c68b7          	lui	a7,0xa08c6
8000a8b4:	019fe0b3          	or	ra,t6,s9
8000a8b8:	0072c133          	xor	sp,t0,t2
8000a8bc:	574a0113          	addi	sp,s4,1396
8000a8c0:	01c45713          	srli	a4,s0,0x1c
8000a8c4:	e5e3fb93          	andi	s7,t2,-418
8000a8c8:	019fe0b3          	or	ra,t6,s9
8000a8cc:	019fe0b3          	or	ra,t6,s9
8000a8d0:	c66de993          	ori	s3,s11,-922
8000a8d4:	574a0113          	addi	sp,s4,1396
8000a8d8:	0307c263          	blt	a5,a6,8000a8fc <smode_program+0x218>
8000a8dc:	574a0113          	addi	sp,s4,1396
8000a8e0:	0307ca63          	blt	a5,a6,8000a914 <smode_program+0x230>
8000a8e4:	01465bb3          	srl	s7,a2,s4
8000a8e8:	0ff0000f          	fence
8000a8ec:	e5a8cb93          	xori	s7,a7,-422
8000a8f0:	004b7663          	bgeu	s6,tp,8000a8fc <smode_program+0x218>
8000a8f4:	dd88a013          	slti	zero,a7,-552
8000a8f8:	01465bb3          	srl	s7,a2,s4
8000a8fc:	0141adb3          	slt	s11,gp,s4
8000a900:	0140b7b3          	sltu	a5,ra,s4
8000a904:	41ae0833          	sub	a6,t3,s10
8000a908:	e5e3fb93          	andi	s7,t2,-418
8000a90c:	0141adb3          	slt	s11,gp,s4
8000a910:	01808433          	add	s0,ra,s8
8000a914:	056fd463          	bge	t6,s6,8000a95c <smode_program+0x278>
8000a918:	01808433          	add	s0,ra,s8
8000a91c:	bde33713          	sltiu	a4,t1,-1058
8000a920:	01431733          	sll	a4,t1,s4
8000a924:	00d1e863          	bltu	gp,a3,8000a934 <smode_program+0x250>
8000a928:	03950063          	beq	a0,s9,8000a948 <smode_program+0x264>
8000a92c:	0072c133          	xor	sp,t0,t2
8000a930:	e4ccbc97          	auipc	s9,0xe4ccb
8000a934:	4158d193          	srai	gp,a7,0x15
8000a938:	574a0113          	addi	sp,s4,1396
8000a93c:	01537533          	and	a0,t1,s5
8000a940:	bde33713          	sltiu	a4,t1,-1058
8000a944:	e5e3fb93          	andi	s7,t2,-418
8000a948:	0507c063          	blt	a5,a6,8000a988 <smode_program+0x2a4>
8000a94c:	4158d193          	srai	gp,a7,0x15
8000a950:	0072c133          	xor	sp,t0,t2
8000a954:	0ff0000f          	fence
8000a958:	e5e3fb93          	andi	s7,t2,-418
8000a95c:	01465bb3          	srl	s7,a2,s4
8000a960:	e4ccbc97          	auipc	s9,0xe4ccb
8000a964:	05d09263          	bne	ra,t4,8000a9a8 <smode_program+0x2c4>
8000a968:	01950e63          	beq	a0,s9,8000a984 <smode_program+0x2a0>
8000a96c:	05950863          	beq	a0,s9,8000a9bc <smode_program+0x2d8>
8000a970:	01808433          	add	s0,ra,s8
8000a974:	0140b7b3          	sltu	a5,ra,s4
8000a978:	dd88a013          	slti	zero,a7,-552
8000a97c:	0307ce63          	blt	a5,a6,8000a9b8 <smode_program+0x2d4>
8000a980:	00d09993          	slli	s3,ra,0xd
8000a984:	01950a63          	beq	a0,s9,8000a998 <smode_program+0x2b4>
8000a988:	01808433          	add	s0,ra,s8
8000a98c:	00d09993          	slli	s3,ra,0xd
8000a990:	574a0113          	addi	sp,s4,1396
8000a994:	4158d193          	srai	gp,a7,0x15
8000a998:	41ae0833          	sub	a6,t3,s10
8000a99c:	02d1e263          	bltu	gp,a3,8000a9c0 <smode_program+0x2dc>
8000a9a0:	01950663          	beq	a0,s9,8000a9ac <smode_program+0x2c8>
8000a9a4:	01808433          	add	s0,ra,s8
8000a9a8:	0000100f          	fence.i
8000a9ac:	dd88a013          	slti	zero,a7,-552
8000a9b0:	01c45713          	srli	a4,s0,0x1c
8000a9b4:	02d1e063          	bltu	gp,a3,8000a9d4 <smode_program+0x2f0>
8000a9b8:	02d1e063          	bltu	gp,a3,8000a9d8 <smode_program+0x2f4>
8000a9bc:	e5a8cb93          	xori	s7,a7,-422
8000a9c0:	00000013          	nop
8000a9c4:	4158d193          	srai	gp,a7,0x15
8000a9c8:	01465bb3          	srl	s7,a2,s4
8000a9cc:	a08c68b7          	lui	a7,0xa08c6
8000a9d0:	e5a8cb93          	xori	s7,a7,-422
8000a9d4:	c66de993          	ori	s3,s11,-922
8000a9d8:	bde33713          	sltiu	a4,t1,-1058
8000a9dc:	e5a8cb93          	xori	s7,a7,-422
8000a9e0:	01c45713          	srli	a4,s0,0x1c
8000a9e4:	01c45713          	srli	a4,s0,0x1c
8000a9e8:	01431733          	sll	a4,t1,s4
8000a9ec:	e5a8cb93          	xori	s7,a7,-422
8000a9f0:	bde33713          	sltiu	a4,t1,-1058
8000a9f4:	00000013          	nop
8000a9f8:	056fd463          	bge	t6,s6,8000aa40 <smode_program+0x35c>
8000a9fc:	bde33713          	sltiu	a4,t1,-1058
8000aa00:	044b7863          	bgeu	s6,tp,8000aa50 <smode_program+0x36c>
8000aa04:	019fe0b3          	or	ra,t6,s9
8000aa08:	01431733          	sll	a4,t1,s4
8000aa0c:	574a0113          	addi	sp,s4,1396
8000aa10:	c66de993          	ori	s3,s11,-922
8000aa14:	03950c63          	beq	a0,s9,8000aa4c <smode_program+0x368>
8000aa18:	01808433          	add	s0,ra,s8
8000aa1c:	4022ddb3          	sra	s11,t0,sp
8000aa20:	c66de993          	ori	s3,s11,-922
8000aa24:	0140b7b3          	sltu	a5,ra,s4
8000aa28:	00000013          	nop
8000aa2c:	0140b7b3          	sltu	a5,ra,s4
8000aa30:	c66de993          	ori	s3,s11,-922
8000aa34:	01808433          	add	s0,ra,s8
8000aa38:	01c45713          	srli	a4,s0,0x1c
8000aa3c:	dd88a013          	slti	zero,a7,-552
8000aa40:	01c45713          	srli	a4,s0,0x1c
8000aa44:	4158d193          	srai	gp,a7,0x15
8000aa48:	01c45713          	srli	a4,s0,0x1c
8000aa4c:	4022ddb3          	sra	s11,t0,sp
8000aa50:	e5a8cb93          	xori	s7,a7,-422
8000aa54:	05d09863          	bne	ra,t4,8000aaa4 <smode_program+0x3c0>
8000aa58:	574a0113          	addi	sp,s4,1396
8000aa5c:	0072c133          	xor	sp,t0,t2
8000aa60:	01431733          	sll	a4,t1,s4
8000aa64:	01d09e63          	bne	ra,t4,8000aa80 <smode_program+0x39c>
8000aa68:	056fd463          	bge	t6,s6,8000aab0 <smode_program+0x3cc>
8000aa6c:	dd88a013          	slti	zero,a7,-552
8000aa70:	00d09993          	slli	s3,ra,0xd
8000aa74:	01808433          	add	s0,ra,s8
8000aa78:	574a0113          	addi	sp,s4,1396
8000aa7c:	01537533          	and	a0,t1,s5
8000aa80:	4022ddb3          	sra	s11,t0,sp
8000aa84:	0140b7b3          	sltu	a5,ra,s4
8000aa88:	01c45713          	srli	a4,s0,0x1c
8000aa8c:	0072c133          	xor	sp,t0,t2
8000aa90:	4022ddb3          	sra	s11,t0,sp
8000aa94:	036fd863          	bge	t6,s6,8000aac4 <smode_program+0x3e0>
8000aa98:	0140b7b3          	sltu	a5,ra,s4
8000aa9c:	03d09263          	bne	ra,t4,8000aac0 <smode_program+0x3dc>
8000aaa0:	c66de993          	ori	s3,s11,-922
8000aaa4:	0140b7b3          	sltu	a5,ra,s4
8000aaa8:	0140b7b3          	sltu	a5,ra,s4
8000aaac:	dd88a013          	slti	zero,a7,-552
8000aab0:	01431733          	sll	a4,t1,s4
8000aab4:	0140b7b3          	sltu	a5,ra,s4
8000aab8:	056fd463          	bge	t6,s6,8000ab00 <smode_program+0x41c>
8000aabc:	01808433          	add	s0,ra,s8
8000aac0:	dd88a013          	slti	zero,a7,-552
8000aac4:	01950e63          	beq	a0,s9,8000aae0 <smode_program+0x3fc>
8000aac8:	00d1e863          	bltu	gp,a3,8000aad8 <smode_program+0x3f4>
8000aacc:	0072c133          	xor	sp,t0,t2
8000aad0:	e5a8cb93          	xori	s7,a7,-422
8000aad4:	01431733          	sll	a4,t1,s4
8000aad8:	01537533          	and	a0,t1,s5
8000aadc:	0000100f          	fence.i
8000aae0:	4158d193          	srai	gp,a7,0x15
8000aae4:	0072c133          	xor	sp,t0,t2
8000aae8:	574a0113          	addi	sp,s4,1396
8000aaec:	01c45713          	srli	a4,s0,0x1c
8000aaf0:	a08c68b7          	lui	a7,0xa08c6
8000aaf4:	dd88a013          	slti	zero,a7,-552
8000aaf8:	0141adb3          	slt	s11,gp,s4
8000aafc:	03950063          	beq	a0,s9,8000ab1c <smode_program+0x438>
8000ab00:	0072c133          	xor	sp,t0,t2
8000ab04:	036fd463          	bge	t6,s6,8000ab2c <smode_program+0x448>
8000ab08:	4022ddb3          	sra	s11,t0,sp
8000ab0c:	e5e3fb93          	andi	s7,t2,-418
8000ab10:	4022ddb3          	sra	s11,t0,sp
8000ab14:	41ae0833          	sub	a6,t3,s10
8000ab18:	00d09993          	slli	s3,ra,0xd
8000ab1c:	41ae0833          	sub	a6,t3,s10
8000ab20:	01431733          	sll	a4,t1,s4
8000ab24:	4022ddb3          	sra	s11,t0,sp
8000ab28:	01465bb3          	srl	s7,a2,s4
8000ab2c:	0141adb3          	slt	s11,gp,s4
8000ab30:	0141adb3          	slt	s11,gp,s4
8000ab34:	0140b7b3          	sltu	a5,ra,s4
8000ab38:	0000100f          	fence.i
8000ab3c:	03d09863          	bne	ra,t4,8000ab6c <smode_program+0x488>
8000ab40:	4022ddb3          	sra	s11,t0,sp
8000ab44:	02d1e863          	bltu	gp,a3,8000ab74 <smode_program+0x490>
8000ab48:	00000013          	nop
8000ab4c:	05950063          	beq	a0,s9,8000ab8c <smode_program+0x4a8>
8000ab50:	4158d193          	srai	gp,a7,0x15
8000ab54:	0507c463          	blt	a5,a6,8000ab9c <smode_program+0x4b8>
8000ab58:	0507c263          	blt	a5,a6,8000ab9c <smode_program+0x4b8>
8000ab5c:	4022ddb3          	sra	s11,t0,sp
8000ab60:	00000013          	nop
8000ab64:	574a0113          	addi	sp,s4,1396
8000ab68:	00d09993          	slli	s3,ra,0xd
8000ab6c:	01808433          	add	s0,ra,s8
8000ab70:	05950263          	beq	a0,s9,8000abb4 <smode_program+0x4d0>
8000ab74:	00d09993          	slli	s3,ra,0xd
8000ab78:	0141adb3          	slt	s11,gp,s4
8000ab7c:	0ff0000f          	fence
8000ab80:	574a0113          	addi	sp,s4,1396
8000ab84:	01537533          	and	a0,t1,s5
8000ab88:	0ff0000f          	fence
8000ab8c:	0141adb3          	slt	s11,gp,s4
8000ab90:	574a0113          	addi	sp,s4,1396
8000ab94:	01c45713          	srli	a4,s0,0x1c
8000ab98:	01431733          	sll	a4,t1,s4
8000ab9c:	00d1ea63          	bltu	gp,a3,8000abb0 <smode_program+0x4cc>
8000aba0:	019fe0b3          	or	ra,t6,s9
8000aba4:	e4ccbc97          	auipc	s9,0xe4ccb
8000aba8:	01431733          	sll	a4,t1,s4
8000abac:	0141adb3          	slt	s11,gp,s4
8000abb0:	024b7063          	bgeu	s6,tp,8000abd0 <smode_program+0x4ec>
8000abb4:	02d1e263          	bltu	gp,a3,8000abd8 <smode_program+0x4f4>
8000abb8:	004b7663          	bgeu	s6,tp,8000abc4 <smode_program+0x4e0>
8000abbc:	e5e3fb93          	andi	s7,t2,-418
8000abc0:	0307ca63          	blt	a5,a6,8000abf4 <smode_program+0x510>
8000abc4:	e4ccbc97          	auipc	s9,0xe4ccb
8000abc8:	03950e63          	beq	a0,s9,8000ac04 <smode_program+0x520>
8000abcc:	019fe0b3          	or	ra,t6,s9
8000abd0:	0140b7b3          	sltu	a5,ra,s4
8000abd4:	01465bb3          	srl	s7,a2,s4
8000abd8:	41ae0833          	sub	a6,t3,s10
8000abdc:	01465bb3          	srl	s7,a2,s4
8000abe0:	e5a8cb93          	xori	s7,a7,-422
8000abe4:	01c45713          	srli	a4,s0,0x1c
8000abe8:	0307c063          	blt	a5,a6,8000ac08 <smode_program+0x524>
8000abec:	00000013          	nop
8000abf0:	05d09063          	bne	ra,t4,8000ac30 <smode_program+0x54c>
8000abf4:	4022ddb3          	sra	s11,t0,sp
8000abf8:	024b7063          	bgeu	s6,tp,8000ac18 <smode_program+0x534>
8000abfc:	01d09663          	bne	ra,t4,8000ac08 <smode_program+0x524>
8000ac00:	01950a63          	beq	a0,s9,8000ac14 <smode_program+0x530>
8000ac04:	bde33713          	sltiu	a4,t1,-1058
8000ac08:	00d09993          	slli	s3,ra,0xd
8000ac0c:	0307ca63          	blt	a5,a6,8000ac40 <smode_program+0x55c>
8000ac10:	00000013          	nop
8000ac14:	04d1e263          	bltu	gp,a3,8000ac58 <smode_program+0x574>
8000ac18:	c66de993          	ori	s3,s11,-922
8000ac1c:	0107c863          	blt	a5,a6,8000ac2c <smode_program+0x548>
8000ac20:	41ae0833          	sub	a6,t3,s10
8000ac24:	41ae0833          	sub	a6,t3,s10
8000ac28:	00d09993          	slli	s3,ra,0xd
8000ac2c:	01c45713          	srli	a4,s0,0x1c
8000ac30:	574a0113          	addi	sp,s4,1396
8000ac34:	0140b7b3          	sltu	a5,ra,s4
8000ac38:	00000013          	nop
8000ac3c:	c66de993          	ori	s3,s11,-922
8000ac40:	01808433          	add	s0,ra,s8
8000ac44:	e5e3fb93          	andi	s7,t2,-418
8000ac48:	02d1e063          	bltu	gp,a3,8000ac68 <smode_program+0x584>
8000ac4c:	00000013          	nop
8000ac50:	01537533          	and	a0,t1,s5
8000ac54:	4158d193          	srai	gp,a7,0x15
8000ac58:	00d09993          	slli	s3,ra,0xd
8000ac5c:	05d09863          	bne	ra,t4,8000acac <smode_program+0x5c8>
8000ac60:	01431733          	sll	a4,t1,s4
8000ac64:	00000013          	nop
8000ac68:	01c45713          	srli	a4,s0,0x1c
8000ac6c:	41ae0833          	sub	a6,t3,s10
8000ac70:	00d09993          	slli	s3,ra,0xd
8000ac74:	0307c063          	blt	a5,a6,8000ac94 <smode_program+0x5b0>
8000ac78:	01c45713          	srli	a4,s0,0x1c
8000ac7c:	01808433          	add	s0,ra,s8
8000ac80:	4158d193          	srai	gp,a7,0x15
8000ac84:	dd88a013          	slti	zero,a7,-552
8000ac88:	04d1e863          	bltu	gp,a3,8000acd8 <smode_program+0x5f4>
8000ac8c:	0000100f          	fence.i
8000ac90:	00d09993          	slli	s3,ra,0xd
8000ac94:	00d09993          	slli	s3,ra,0xd
8000ac98:	01431733          	sll	a4,t1,s4
8000ac9c:	01431733          	sll	a4,t1,s4
8000aca0:	41ae0833          	sub	a6,t3,s10
8000aca4:	01c45713          	srli	a4,s0,0x1c
8000aca8:	01537533          	and	a0,t1,s5
8000acac:	05950263          	beq	a0,s9,8000acf0 <smode_program+0x60c>
8000acb0:	0000100f          	fence.i
8000acb4:	019fe0b3          	or	ra,t6,s9
8000acb8:	574a0113          	addi	sp,s4,1396
8000acbc:	01537533          	and	a0,t1,s5
8000acc0:	e5e3fb93          	andi	s7,t2,-418
8000acc4:	01537533          	and	a0,t1,s5
8000acc8:	c66de993          	ori	s3,s11,-922
8000accc:	e5a8cb93          	xori	s7,a7,-422
8000acd0:	4022ddb3          	sra	s11,t0,sp
8000acd4:	00d09993          	slli	s3,ra,0xd
8000acd8:	bde33713          	sltiu	a4,t1,-1058
8000acdc:	a08c68b7          	lui	a7,0xa08c6
8000ace0:	0140b7b3          	sltu	a5,ra,s4
8000ace4:	e4ccbc97          	auipc	s9,0xe4ccb
8000ace8:	03950063          	beq	a0,s9,8000ad08 <smode_program+0x624>
8000acec:	e5a8cb93          	xori	s7,a7,-422
8000acf0:	036fd263          	bge	t6,s6,8000ad14 <smode_program+0x630>
8000acf4:	e5e3fb93          	andi	s7,t2,-418
8000acf8:	4158d193          	srai	gp,a7,0x15
8000acfc:	41ae0833          	sub	a6,t3,s10
8000ad00:	004b7663          	bgeu	s6,tp,8000ad0c <smode_program+0x628>
8000ad04:	e5e3fb93          	andi	s7,t2,-418
8000ad08:	dd88a013          	slti	zero,a7,-552
8000ad0c:	0141adb3          	slt	s11,gp,s4
8000ad10:	dd88a013          	slti	zero,a7,-552
8000ad14:	e5e3fb93          	andi	s7,t2,-418
8000ad18:	574a0113          	addi	sp,s4,1396
8000ad1c:	c66de993          	ori	s3,s11,-922
8000ad20:	0307c463          	blt	a5,a6,8000ad48 <smode_program+0x664>
8000ad24:	01c45713          	srli	a4,s0,0x1c
8000ad28:	e4ccbc97          	auipc	s9,0xe4ccb
8000ad2c:	0140b7b3          	sltu	a5,ra,s4
8000ad30:	e5a8cb93          	xori	s7,a7,-422
8000ad34:	00d1ea63          	bltu	gp,a3,8000ad48 <smode_program+0x664>
8000ad38:	e5e3fb93          	andi	s7,t2,-418
8000ad3c:	01808433          	add	s0,ra,s8
8000ad40:	01431733          	sll	a4,t1,s4
8000ad44:	01c45713          	srli	a4,s0,0x1c
8000ad48:	41ae0833          	sub	a6,t3,s10
8000ad4c:	e5e3fc13          	andi	s8,t2,-418
8000ad50:	e4ccbd17          	auipc	s10,0xe4ccb
8000ad54:	4158d213          	srai	tp,a7,0x15
8000ad58:	00432083          	lw	ra,4(t1)
8000ad5c:	e4ccbd17          	auipc	s10,0xe4ccb
8000ad60:	41ae08b3          	sub	a7,t3,s10
8000ad64:	0ff0000f          	fence
8000ad68:	0000100f          	fence.i
8000ad6c:	c66dea13          	ori	s4,s11,-922
8000ad70:	41ae08b3          	sub	a7,t3,s10
8000ad74:	01030313          	addi	t1,t1,16
8000ad78:	0ff0000f          	fence
8000ad7c:	00008c13          	mv	s8,ra
8000ad80:	000c0c67          	jalr	s8,s8

8000ad84 <smode_lsu_program>:
8000ad84:	c66dea13          	ori	s4,s11,-922
8000ad88:	0140b833          	sltu	a6,ra,s4
8000ad8c:	c66dea13          	ori	s4,s11,-922
8000ad90:	e4ccbd17          	auipc	s10,0xe4ccb
8000ad94:	a08c6937          	lui	s2,0xa08c6
8000ad98:	c66dea13          	ori	s4,s11,-922
8000ad9c:	fd830313          	addi	t1,t1,-40
8000ada0:	41ae08b3          	sub	a7,t3,s10
8000ada4:	00132223          	sw	ra,4(t1)
8000ada8:	0000100f          	fence.i
8000adac:	574a0193          	addi	gp,s4,1396
8000adb0:	574a0113          	addi	sp,s4,1396
8000adb4:	0ff0000f          	fence
8000adb8:	0072c133          	xor	sp,t0,t2
8000adbc:	024b7463          	bgeu	s6,tp,8000ade4 <smode_lsu_program+0x60>
8000adc0:	01808433          	add	s0,ra,s8
8000adc4:	00d09993          	slli	s3,ra,0xd
8000adc8:	0072c133          	xor	sp,t0,t2
8000adcc:	019fe0b3          	or	ra,t6,s9
8000add0:	c66de993          	ori	s3,s11,-922
8000add4:	056fd063          	bge	t6,s6,8000ae14 <smode_lsu_program+0x90>
8000add8:	41ae0833          	sub	a6,t3,s10
8000addc:	4022ddb3          	sra	s11,t0,sp
8000ade0:	01808433          	add	s0,ra,s8
8000ade4:	0ff0000f          	fence
8000ade8:	e5a8cb93          	xori	s7,a7,-422
8000adec:	024b7263          	bgeu	s6,tp,8000ae10 <smode_lsu_program+0x8c>
8000adf0:	01537533          	and	a0,t1,s5
8000adf4:	e5e3fb93          	andi	s7,t2,-418
8000adf8:	574a0113          	addi	sp,s4,1396
8000adfc:	0072c133          	xor	sp,t0,t2
8000ae00:	01537533          	and	a0,t1,s5
8000ae04:	4158d193          	srai	gp,a7,0x15
8000ae08:	bde33713          	sltiu	a4,t1,-1058
8000ae0c:	0072c133          	xor	sp,t0,t2
8000ae10:	0072c133          	xor	sp,t0,t2
8000ae14:	03d09863          	bne	ra,t4,8000ae44 <smode_lsu_program+0xc0>
8000ae18:	024b7e63          	bgeu	s6,tp,8000ae54 <smode_lsu_program+0xd0>
8000ae1c:	0307c663          	blt	a5,a6,8000ae48 <smode_lsu_program+0xc4>
8000ae20:	0ff0000f          	fence
8000ae24:	bde33713          	sltiu	a4,t1,-1058
8000ae28:	0000100f          	fence.i
8000ae2c:	a08c68b7          	lui	a7,0xa08c6
8000ae30:	01537533          	and	a0,t1,s5
8000ae34:	01c45713          	srli	a4,s0,0x1c
8000ae38:	01950863          	beq	a0,s9,8000ae48 <smode_lsu_program+0xc4>
8000ae3c:	01431733          	sll	a4,t1,s4
8000ae40:	02d1e663          	bltu	gp,a3,8000ae6c <smode_lsu_program+0xe8>
8000ae44:	056fd463          	bge	t6,s6,8000ae8c <smode_lsu_program+0x108>
8000ae48:	e4ccbc97          	auipc	s9,0xe4ccb
8000ae4c:	0000100f          	fence.i
8000ae50:	0000100f          	fence.i
8000ae54:	00000013          	nop
8000ae58:	e4ccbc97          	auipc	s9,0xe4ccb
8000ae5c:	03950e63          	beq	a0,s9,8000ae98 <smode_lsu_program+0x114>
8000ae60:	01d09263          	bne	ra,t4,8000ae64 <smode_lsu_program+0xe0>
8000ae64:	01808433          	add	s0,ra,s8
8000ae68:	00d09993          	slli	s3,ra,0xd
8000ae6c:	01808433          	add	s0,ra,s8
8000ae70:	01465bb3          	srl	s7,a2,s4
8000ae74:	01d09263          	bne	ra,t4,8000ae78 <smode_lsu_program+0xf4>
8000ae78:	4022ddb3          	sra	s11,t0,sp
8000ae7c:	00d09993          	slli	s3,ra,0xd
8000ae80:	01431733          	sll	a4,t1,s4
8000ae84:	4158d193          	srai	gp,a7,0x15
8000ae88:	c66de993          	ori	s3,s11,-922
8000ae8c:	bde33713          	sltiu	a4,t1,-1058
8000ae90:	bde33713          	sltiu	a4,t1,-1058
8000ae94:	00000013          	nop
8000ae98:	a08c68b7          	lui	a7,0xa08c6
8000ae9c:	01c45713          	srli	a4,s0,0x1c
8000aea0:	4022ddb3          	sra	s11,t0,sp
8000aea4:	01465bb3          	srl	s7,a2,s4
8000aea8:	024b7063          	bgeu	s6,tp,8000aec8 <smode_lsu_program+0x144>
8000aeac:	4158d193          	srai	gp,a7,0x15
8000aeb0:	bde33713          	sltiu	a4,t1,-1058
8000aeb4:	4022ddb3          	sra	s11,t0,sp
8000aeb8:	bde33713          	sltiu	a4,t1,-1058
8000aebc:	e5e3fb93          	andi	s7,t2,-418
8000aec0:	a08c68b7          	lui	a7,0xa08c6
8000aec4:	036fd863          	bge	t6,s6,8000aef4 <smode_lsu_program+0x170>
8000aec8:	e5e3fb93          	andi	s7,t2,-418
8000aecc:	01431733          	sll	a4,t1,s4
8000aed0:	03d09e63          	bne	ra,t4,8000af0c <smode_lsu_program+0x188>
8000aed4:	0ff0000f          	fence
8000aed8:	036fd263          	bge	t6,s6,8000aefc <smode_lsu_program+0x178>
8000aedc:	056fd663          	bge	t6,s6,8000af28 <smode_lsu_program+0x1a4>
8000aee0:	0ff0000f          	fence
8000aee4:	004b7a63          	bgeu	s6,tp,8000aef8 <smode_lsu_program+0x174>
8000aee8:	e5e3fb93          	andi	s7,t2,-418
8000aeec:	0000100f          	fence.i
8000aef0:	00d09993          	slli	s3,ra,0xd
8000aef4:	01c45713          	srli	a4,s0,0x1c
8000aef8:	0000100f          	fence.i
8000aefc:	0000100f          	fence.i
8000af00:	e5a8cb93          	xori	s7,a7,-422
8000af04:	01808433          	add	s0,ra,s8
8000af08:	a08c68b7          	lui	a7,0xa08c6
8000af0c:	05950063          	beq	a0,s9,8000af4c <smode_lsu_program+0x1c8>
8000af10:	0107c263          	blt	a5,a6,8000af14 <smode_lsu_program+0x190>
8000af14:	03d09c63          	bne	ra,t4,8000af4c <smode_lsu_program+0x1c8>
8000af18:	e5a8cb93          	xori	s7,a7,-422
8000af1c:	4022ddb3          	sra	s11,t0,sp
8000af20:	044b7463          	bgeu	s6,tp,8000af68 <smode_lsu_program+0x1e4>
8000af24:	03950463          	beq	a0,s9,8000af4c <smode_lsu_program+0x1c8>
8000af28:	574a0113          	addi	sp,s4,1396
8000af2c:	41ae0833          	sub	a6,t3,s10
8000af30:	dd88a013          	slti	zero,a7,-552
8000af34:	01537533          	and	a0,t1,s5
8000af38:	574a0113          	addi	sp,s4,1396
8000af3c:	e4ccbc97          	auipc	s9,0xe4ccb
8000af40:	dd88a013          	slti	zero,a7,-552
8000af44:	00000013          	nop
8000af48:	bde33713          	sltiu	a4,t1,-1058
8000af4c:	0141adb3          	slt	s11,gp,s4
8000af50:	4022ddb3          	sra	s11,t0,sp
8000af54:	574a0113          	addi	sp,s4,1396
8000af58:	01808433          	add	s0,ra,s8
8000af5c:	dd88a013          	slti	zero,a7,-552
8000af60:	019fe0b3          	or	ra,t6,s9
8000af64:	0072c133          	xor	sp,t0,t2
8000af68:	4022ddb3          	sra	s11,t0,sp
8000af6c:	e5e3fb93          	andi	s7,t2,-418
8000af70:	00000013          	nop
8000af74:	c66de993          	ori	s3,s11,-922
8000af78:	01c45713          	srli	a4,s0,0x1c
8000af7c:	0140b7b3          	sltu	a5,ra,s4
8000af80:	0ff0000f          	fence
8000af84:	00d09993          	slli	s3,ra,0xd
8000af88:	574a0113          	addi	sp,s4,1396
8000af8c:	0000100f          	fence.i
8000af90:	dd88a013          	slti	zero,a7,-552
8000af94:	e4ccbc97          	auipc	s9,0xe4ccb
8000af98:	e5e3fb93          	andi	s7,t2,-418
8000af9c:	bde33713          	sltiu	a4,t1,-1058
8000afa0:	05950263          	beq	a0,s9,8000afe4 <smode_lsu_program+0x260>
8000afa4:	0140b7b3          	sltu	a5,ra,s4
8000afa8:	0ff0000f          	fence
8000afac:	e5e3fb93          	andi	s7,t2,-418
8000afb0:	574a0113          	addi	sp,s4,1396
8000afb4:	01c45713          	srli	a4,s0,0x1c
8000afb8:	dd88a013          	slti	zero,a7,-552
8000afbc:	0ff0000f          	fence
8000afc0:	00d09993          	slli	s3,ra,0xd
8000afc4:	bde33713          	sltiu	a4,t1,-1058
8000afc8:	0072c133          	xor	sp,t0,t2
8000afcc:	a08c68b7          	lui	a7,0xa08c6
8000afd0:	019fe0b3          	or	ra,t6,s9
8000afd4:	e5e3fb93          	andi	s7,t2,-418
8000afd8:	0000100f          	fence.i
8000afdc:	dd88a013          	slti	zero,a7,-552
8000afe0:	e4ccbc97          	auipc	s9,0xe4ccb
8000afe4:	e4ccbc97          	auipc	s9,0xe4ccb
8000afe8:	05d09863          	bne	ra,t4,8000b038 <smode_lsu_program+0x2b4>
8000afec:	dd88a013          	slti	zero,a7,-552
8000aff0:	e5e3fb93          	andi	s7,t2,-418
8000aff4:	0107c263          	blt	a5,a6,8000aff8 <smode_lsu_program+0x274>
8000aff8:	e4ccbc97          	auipc	s9,0xe4ccb
8000affc:	c66de993          	ori	s3,s11,-922
8000b000:	01465bb3          	srl	s7,a2,s4
8000b004:	0140b7b3          	sltu	a5,ra,s4
8000b008:	574a0113          	addi	sp,s4,1396
8000b00c:	e4ccbc97          	auipc	s9,0xe4ccb
8000b010:	e4ccbc97          	auipc	s9,0xe4ccb
8000b014:	0140b7b3          	sltu	a5,ra,s4
8000b018:	0072c133          	xor	sp,t0,t2
8000b01c:	dd88a013          	slti	zero,a7,-552
8000b020:	01431733          	sll	a4,t1,s4
8000b024:	01431733          	sll	a4,t1,s4
8000b028:	00000013          	nop
8000b02c:	4158d193          	srai	gp,a7,0x15
8000b030:	024b7863          	bgeu	s6,tp,8000b060 <smode_lsu_program+0x2dc>
8000b034:	0072c133          	xor	sp,t0,t2
8000b038:	03950863          	beq	a0,s9,8000b068 <smode_lsu_program+0x2e4>
8000b03c:	0072c133          	xor	sp,t0,t2
8000b040:	0140b7b3          	sltu	a5,ra,s4
8000b044:	01537533          	and	a0,t1,s5
8000b048:	0140b7b3          	sltu	a5,ra,s4
8000b04c:	0140b7b3          	sltu	a5,ra,s4
8000b050:	e5a8cb93          	xori	s7,a7,-422
8000b054:	00d09993          	slli	s3,ra,0xd
8000b058:	e5a8cb93          	xori	s7,a7,-422
8000b05c:	4158d193          	srai	gp,a7,0x15
8000b060:	0140b7b3          	sltu	a5,ra,s4
8000b064:	01537533          	and	a0,t1,s5
8000b068:	0141adb3          	slt	s11,gp,s4
8000b06c:	01431733          	sll	a4,t1,s4
8000b070:	02d1ec63          	bltu	gp,a3,8000b0a8 <smode_lsu_program+0x324>
8000b074:	e5a8cb93          	xori	s7,a7,-422
8000b078:	019fe0b3          	or	ra,t6,s9
8000b07c:	01808433          	add	s0,ra,s8
8000b080:	00000013          	nop
8000b084:	e4ccbc97          	auipc	s9,0xe4ccb
8000b088:	05950463          	beq	a0,s9,8000b0d0 <smode_lsu_program+0x34c>
8000b08c:	4022ddb3          	sra	s11,t0,sp
8000b090:	4022ddb3          	sra	s11,t0,sp
8000b094:	036fd863          	bge	t6,s6,8000b0c4 <smode_lsu_program+0x340>
8000b098:	0ff0000f          	fence
8000b09c:	0ff0000f          	fence
8000b0a0:	04d1e063          	bltu	gp,a3,8000b0e0 <smode_lsu_program+0x35c>
8000b0a4:	0107c263          	blt	a5,a6,8000b0a8 <smode_lsu_program+0x324>
8000b0a8:	036fd063          	bge	t6,s6,8000b0c8 <smode_lsu_program+0x344>
8000b0ac:	e5e3fb93          	andi	s7,t2,-418
8000b0b0:	0107c263          	blt	a5,a6,8000b0b4 <smode_lsu_program+0x330>
8000b0b4:	c66de993          	ori	s3,s11,-922
8000b0b8:	a08c68b7          	lui	a7,0xa08c6
8000b0bc:	bde33713          	sltiu	a4,t1,-1058
8000b0c0:	0072c133          	xor	sp,t0,t2
8000b0c4:	01431733          	sll	a4,t1,s4
8000b0c8:	02d1e863          	bltu	gp,a3,8000b0f8 <smode_lsu_program+0x374>
8000b0cc:	bde33713          	sltiu	a4,t1,-1058
8000b0d0:	00000013          	nop
8000b0d4:	036fd463          	bge	t6,s6,8000b0fc <smode_lsu_program+0x378>
8000b0d8:	044b7663          	bgeu	s6,tp,8000b124 <smode_lsu_program+0x3a0>
8000b0dc:	4158d193          	srai	gp,a7,0x15
8000b0e0:	02d1e263          	bltu	gp,a3,8000b104 <smode_lsu_program+0x380>
8000b0e4:	0507c863          	blt	a5,a6,8000b134 <smode_lsu_program+0x3b0>
8000b0e8:	bde33713          	sltiu	a4,t1,-1058
8000b0ec:	00000013          	nop
8000b0f0:	0140b7b3          	sltu	a5,ra,s4
8000b0f4:	01431733          	sll	a4,t1,s4
8000b0f8:	00000013          	nop
8000b0fc:	019fe0b3          	or	ra,t6,s9
8000b100:	0072c133          	xor	sp,t0,t2
8000b104:	0072c133          	xor	sp,t0,t2
8000b108:	4022ddb3          	sra	s11,t0,sp
8000b10c:	e4ccbc97          	auipc	s9,0xe4ccb
8000b110:	04d1e463          	bltu	gp,a3,8000b158 <smode_lsu_program+0x3d4>
8000b114:	036fde63          	bge	t6,s6,8000b150 <smode_lsu_program+0x3cc>
8000b118:	0507c063          	blt	a5,a6,8000b158 <smode_lsu_program+0x3d4>
8000b11c:	01808433          	add	s0,ra,s8
8000b120:	01808433          	add	s0,ra,s8
8000b124:	00d09993          	slli	s3,ra,0xd
8000b128:	e5a8cb93          	xori	s7,a7,-422
8000b12c:	0141adb3          	slt	s11,gp,s4
8000b130:	41ae0833          	sub	a6,t3,s10
8000b134:	01808433          	add	s0,ra,s8
8000b138:	c66de993          	ori	s3,s11,-922
8000b13c:	00d09993          	slli	s3,ra,0xd
8000b140:	01d09263          	bne	ra,t4,8000b144 <smode_lsu_program+0x3c0>
8000b144:	dd88a013          	slti	zero,a7,-552
8000b148:	41ae0833          	sub	a6,t3,s10
8000b14c:	01c45713          	srli	a4,s0,0x1c
8000b150:	e5a8cb93          	xori	s7,a7,-422
8000b154:	e5e3fb93          	andi	s7,t2,-418
8000b158:	019fe0b3          	or	ra,t6,s9
8000b15c:	4022ddb3          	sra	s11,t0,sp
8000b160:	dd88a013          	slti	zero,a7,-552
8000b164:	036fdc63          	bge	t6,s6,8000b19c <smode_lsu_program+0x418>
8000b168:	01431733          	sll	a4,t1,s4
8000b16c:	01c45713          	srli	a4,s0,0x1c
8000b170:	01950a63          	beq	a0,s9,8000b184 <smode_lsu_program+0x400>
8000b174:	c66de993          	ori	s3,s11,-922
8000b178:	00d09993          	slli	s3,ra,0xd
8000b17c:	e5a8cb93          	xori	s7,a7,-422
8000b180:	01465bb3          	srl	s7,a2,s4
8000b184:	01537533          	and	a0,t1,s5
8000b188:	c66de993          	ori	s3,s11,-922
8000b18c:	00d09993          	slli	s3,ra,0xd
8000b190:	4158d193          	srai	gp,a7,0x15
8000b194:	0141adb3          	slt	s11,gp,s4
8000b198:	e5a8cb93          	xori	s7,a7,-422
8000b19c:	019fe0b3          	or	ra,t6,s9
8000b1a0:	019fe0b3          	or	ra,t6,s9
8000b1a4:	0000100f          	fence.i
8000b1a8:	036fde63          	bge	t6,s6,8000b1e4 <smode_lsu_program+0x460>
8000b1ac:	e4ccbc97          	auipc	s9,0xe4ccb
8000b1b0:	024b7863          	bgeu	s6,tp,8000b1e0 <smode_lsu_program+0x45c>
8000b1b4:	016fd263          	bge	t6,s6,8000b1b8 <smode_lsu_program+0x434>
8000b1b8:	03d09463          	bne	ra,t4,8000b1e0 <smode_lsu_program+0x45c>
8000b1bc:	0000100f          	fence.i
8000b1c0:	e4ccbc97          	auipc	s9,0xe4ccb
8000b1c4:	03950863          	beq	a0,s9,8000b1f4 <smode_lsu_program+0x470>
8000b1c8:	0072c133          	xor	sp,t0,t2
8000b1cc:	03d09c63          	bne	ra,t4,8000b204 <smode_lsu_program+0x480>
8000b1d0:	a08c68b7          	lui	a7,0xa08c6
8000b1d4:	00d09993          	slli	s3,ra,0xd
8000b1d8:	0141adb3          	slt	s11,gp,s4
8000b1dc:	05d09263          	bne	ra,t4,8000b220 <smode_lsu_program+0x49c>
8000b1e0:	41ae0833          	sub	a6,t3,s10
8000b1e4:	41ae0833          	sub	a6,t3,s10
8000b1e8:	019fe0b3          	or	ra,t6,s9
8000b1ec:	0000100f          	fence.i
8000b1f0:	00000013          	nop
8000b1f4:	0140b7b3          	sltu	a5,ra,s4
8000b1f8:	dd88a013          	slti	zero,a7,-552
8000b1fc:	0ff0000f          	fence
8000b200:	0107c863          	blt	a5,a6,8000b210 <smode_lsu_program+0x48c>
8000b204:	02d1e663          	bltu	gp,a3,8000b230 <smode_lsu_program+0x4ac>
8000b208:	01537533          	and	a0,t1,s5
8000b20c:	0141adb3          	slt	s11,gp,s4
8000b210:	41ae0833          	sub	a6,t3,s10
8000b214:	03d09e63          	bne	ra,t4,8000b250 <smode_lsu_program+0x4cc>
8000b218:	0507c463          	blt	a5,a6,8000b260 <smode_lsu_program+0x4dc>
8000b21c:	01465bb3          	srl	s7,a2,s4
8000b220:	00d09993          	slli	s3,ra,0xd
8000b224:	01c45713          	srli	a4,s0,0x1c
8000b228:	0140b7b3          	sltu	a5,ra,s4
8000b22c:	056fd463          	bge	t6,s6,8000b274 <smode_lsu_program+0x4f0>
8000b230:	e5e3fb93          	andi	s7,t2,-418
8000b234:	024b7263          	bgeu	s6,tp,8000b258 <smode_lsu_program+0x4d4>
8000b238:	01431733          	sll	a4,t1,s4
8000b23c:	c66de993          	ori	s3,s11,-922
8000b240:	574a0113          	addi	sp,s4,1396
8000b244:	00000013          	nop
8000b248:	01808433          	add	s0,ra,s8
8000b24c:	e4ccbc97          	auipc	s9,0xe4ccb
8000b250:	41ae0833          	sub	a6,t3,s10
8000b254:	4158d193          	srai	gp,a7,0x15
8000b258:	02d1e663          	bltu	gp,a3,8000b284 <smode_lsu_program+0x500>
8000b25c:	024b7863          	bgeu	s6,tp,8000b28c <smode_lsu_program+0x508>
8000b260:	0ff0000f          	fence
8000b264:	e4ccbc97          	auipc	s9,0xe4ccb
8000b268:	a08c68b7          	lui	a7,0xa08c6
8000b26c:	4022ddb3          	sra	s11,t0,sp
8000b270:	e5a8cb93          	xori	s7,a7,-422
8000b274:	00d09993          	slli	s3,ra,0xd
8000b278:	00d09993          	slli	s3,ra,0xd
8000b27c:	0140b7b3          	sltu	a5,ra,s4
8000b280:	024b7c63          	bgeu	s6,tp,8000b2b8 <smode_lsu_program+0x534>
8000b284:	0000100f          	fence.i
8000b288:	0141adb3          	slt	s11,gp,s4
8000b28c:	05950463          	beq	a0,s9,8000b2d4 <smode_lsu_program+0x550>
8000b290:	a08c68b7          	lui	a7,0xa08c6
8000b294:	01537533          	and	a0,t1,s5
8000b298:	024b7e63          	bgeu	s6,tp,8000b2d4 <smode_lsu_program+0x550>
8000b29c:	01431733          	sll	a4,t1,s4
8000b2a0:	00000013          	nop
8000b2a4:	01c45713          	srli	a4,s0,0x1c
8000b2a8:	00d09993          	slli	s3,ra,0xd
8000b2ac:	41ae0833          	sub	a6,t3,s10
8000b2b0:	0ff0000f          	fence
8000b2b4:	016fd263          	bge	t6,s6,8000b2b8 <smode_lsu_program+0x534>
8000b2b8:	024b7c63          	bgeu	s6,tp,8000b2f0 <smode_lsu_program+0x56c>
8000b2bc:	0141adb3          	slt	s11,gp,s4
8000b2c0:	00000013          	nop
8000b2c4:	0ff0000f          	fence
8000b2c8:	bde33713          	sltiu	a4,t1,-1058
8000b2cc:	0140b7b3          	sltu	a5,ra,s4
8000b2d0:	01537533          	and	a0,t1,s5
8000b2d4:	03d09063          	bne	ra,t4,8000b2f4 <smode_lsu_program+0x570>
8000b2d8:	036fd863          	bge	t6,s6,8000b308 <smode_lsu_program+0x584>
8000b2dc:	00000013          	nop
8000b2e0:	00d09993          	slli	s3,ra,0xd
8000b2e4:	01808433          	add	s0,ra,s8
8000b2e8:	0072c133          	xor	sp,t0,t2
8000b2ec:	019fe0b3          	or	ra,t6,s9
8000b2f0:	e5a8cb93          	xori	s7,a7,-422
8000b2f4:	05d09863          	bne	ra,t4,8000b344 <smode_lsu_program+0x5c0>
8000b2f8:	4022ddb3          	sra	s11,t0,sp
8000b2fc:	dd88a013          	slti	zero,a7,-552
8000b300:	574a0113          	addi	sp,s4,1396
8000b304:	02d1e663          	bltu	gp,a3,8000b330 <smode_lsu_program+0x5ac>
8000b308:	01465bb3          	srl	s7,a2,s4
8000b30c:	0141adb3          	slt	s11,gp,s4
8000b310:	574a0113          	addi	sp,s4,1396
8000b314:	e4ccbc97          	auipc	s9,0xe4ccb
8000b318:	0140b7b3          	sltu	a5,ra,s4
8000b31c:	0141adb3          	slt	s11,gp,s4
8000b320:	00d09993          	slli	s3,ra,0xd
8000b324:	00000013          	nop
8000b328:	a08c68b7          	lui	a7,0xa08c6
8000b32c:	01465bb3          	srl	s7,a2,s4
8000b330:	0072c133          	xor	sp,t0,t2
8000b334:	0072c133          	xor	sp,t0,t2
8000b338:	01950263          	beq	a0,s9,8000b33c <smode_lsu_program+0x5b8>
8000b33c:	01431733          	sll	a4,t1,s4
8000b340:	01808433          	add	s0,ra,s8
8000b344:	056fd063          	bge	t6,s6,8000b384 <smode_lsu_program+0x600>
8000b348:	a08c68b7          	lui	a7,0xa08c6
8000b34c:	01d09263          	bne	ra,t4,8000b350 <smode_lsu_program+0x5cc>
8000b350:	01537533          	and	a0,t1,s5
8000b354:	03950263          	beq	a0,s9,8000b378 <smode_lsu_program+0x5f4>
8000b358:	c66de993          	ori	s3,s11,-922
8000b35c:	41ae0833          	sub	a6,t3,s10
8000b360:	41ae0833          	sub	a6,t3,s10
8000b364:	e5a8cb93          	xori	s7,a7,-422
8000b368:	019fe0b3          	or	ra,t6,s9
8000b36c:	dd88a013          	slti	zero,a7,-552
8000b370:	03950463          	beq	a0,s9,8000b398 <smode_lsu_program+0x614>
8000b374:	bde33713          	sltiu	a4,t1,-1058
8000b378:	01c45713          	srli	a4,s0,0x1c
8000b37c:	00d09993          	slli	s3,ra,0xd
8000b380:	c66de993          	ori	s3,s11,-922
8000b384:	00d09993          	slli	s3,ra,0xd
8000b388:	03d09663          	bne	ra,t4,8000b3b4 <smode_lsu_program+0x630>
8000b38c:	04d1e263          	bltu	gp,a3,8000b3d0 <smode_lsu_program+0x64c>
8000b390:	016fd863          	bge	t6,s6,8000b3a0 <smode_lsu_program+0x61c>
8000b394:	0000100f          	fence.i
8000b398:	0072c133          	xor	sp,t0,t2
8000b39c:	0307c863          	blt	a5,a6,8000b3cc <smode_lsu_program+0x648>
8000b3a0:	0141adb3          	slt	s11,gp,s4
8000b3a4:	4158d193          	srai	gp,a7,0x15
8000b3a8:	01c45713          	srli	a4,s0,0x1c
8000b3ac:	4158d193          	srai	gp,a7,0x15
8000b3b0:	dd88a013          	slti	zero,a7,-552
8000b3b4:	01465bb3          	srl	s7,a2,s4
8000b3b8:	01465bb3          	srl	s7,a2,s4
8000b3bc:	004b7a63          	bgeu	s6,tp,8000b3d0 <smode_lsu_program+0x64c>
8000b3c0:	e5e3fb93          	andi	s7,t2,-418
8000b3c4:	024b7463          	bgeu	s6,tp,8000b3ec <smode_lsu_program+0x668>
8000b3c8:	e5e3fb93          	andi	s7,t2,-418
8000b3cc:	574a0113          	addi	sp,s4,1396
8000b3d0:	01808433          	add	s0,ra,s8
8000b3d4:	019fe0b3          	or	ra,t6,s9
8000b3d8:	4022ddb3          	sra	s11,t0,sp
8000b3dc:	e4ccbc97          	auipc	s9,0xe4ccb
8000b3e0:	01537533          	and	a0,t1,s5
8000b3e4:	c66de993          	ori	s3,s11,-922
8000b3e8:	004b7263          	bgeu	s6,tp,8000b3ec <smode_lsu_program+0x668>
8000b3ec:	e5a8cb93          	xori	s7,a7,-422
8000b3f0:	015375b3          	and	a1,t1,s5
8000b3f4:	dd88a013          	slti	zero,a7,-552
8000b3f8:	e5e3fc13          	andi	s8,t2,-418
8000b3fc:	00d09a13          	slli	s4,ra,0xd
8000b400:	0ff0000f          	fence
8000b404:	4022de33          	sra	t3,t0,sp
8000b408:	00432083          	lw	ra,4(t1)
8000b40c:	574a0193          	addi	gp,s4,1396
8000b410:	4158d213          	srai	tp,a7,0x15
8000b414:	02830313          	addi	t1,t1,40
8000b418:	014317b3          	sll	a5,t1,s4
8000b41c:	574a0193          	addi	gp,s4,1396
8000b420:	00108193          	addi	gp,ra,1 # 80000001 <_end+0xfffd1181>
8000b424:	000181e7          	jalr	gp,gp
8000b428:	00000013          	nop
8000b42c:	00000013          	nop
8000b430:	00000013          	nop
8000b434:	00000013          	nop
8000b438:	00000013          	nop
8000b43c:	00000013          	nop
8000b440:	00000013          	nop
8000b444:	00000013          	nop
8000b448:	00000013          	nop
8000b44c:	00000013          	nop
8000b450:	00000013          	nop
8000b454:	00000013          	nop
8000b458:	00000013          	nop
8000b45c:	00000013          	nop
8000b460:	00000013          	nop
8000b464:	00000013          	nop
8000b468:	00000013          	nop
8000b46c:	00000013          	nop
8000b470:	00000013          	nop
8000b474:	00000013          	nop
8000b478:	00000013          	nop
8000b47c:	00000013          	nop
8000b480:	00000013          	nop
8000b484:	00000013          	nop
8000b488:	00000013          	nop
8000b48c:	00000013          	nop
8000b490:	00000013          	nop
8000b494:	00000013          	nop
8000b498:	00000013          	nop
8000b49c:	00000013          	nop
8000b4a0:	00000013          	nop
8000b4a4:	00000013          	nop
8000b4a8:	00000013          	nop
8000b4ac:	00000013          	nop
8000b4b0:	00000013          	nop
8000b4b4:	00000013          	nop
8000b4b8:	00000013          	nop
8000b4bc:	00000013          	nop
8000b4c0:	00000013          	nop
8000b4c4:	00000013          	nop
8000b4c8:	00000013          	nop
8000b4cc:	00000013          	nop
8000b4d0:	00000013          	nop
8000b4d4:	00000013          	nop
8000b4d8:	00000013          	nop
8000b4dc:	00000013          	nop
8000b4e0:	00000013          	nop
8000b4e4:	00000013          	nop
8000b4e8:	00000013          	nop
8000b4ec:	00000013          	nop
8000b4f0:	00000013          	nop
8000b4f4:	00000013          	nop
8000b4f8:	00000013          	nop
8000b4fc:	00000013          	nop
8000b500:	00000013          	nop
8000b504:	00000013          	nop
8000b508:	00000013          	nop
8000b50c:	00000013          	nop
8000b510:	00000013          	nop
8000b514:	00000013          	nop
8000b518:	00000013          	nop
8000b51c:	00000013          	nop
8000b520:	00000013          	nop
8000b524:	00000013          	nop
8000b528:	00000013          	nop
8000b52c:	00000013          	nop
8000b530:	00000013          	nop
8000b534:	00000013          	nop
8000b538:	00000013          	nop
8000b53c:	00000013          	nop
8000b540:	00000013          	nop
8000b544:	00000013          	nop
8000b548:	00000013          	nop
8000b54c:	00000013          	nop
8000b550:	00000013          	nop
8000b554:	00000013          	nop
8000b558:	00000013          	nop
8000b55c:	00000013          	nop
8000b560:	00000013          	nop
8000b564:	00000013          	nop
8000b568:	00000013          	nop
8000b56c:	00000013          	nop
8000b570:	00000013          	nop
8000b574:	00000013          	nop
8000b578:	00000013          	nop
8000b57c:	00000013          	nop
8000b580:	00000013          	nop
8000b584:	00000013          	nop
8000b588:	00000013          	nop
8000b58c:	00000013          	nop
8000b590:	00000013          	nop
8000b594:	00000013          	nop
8000b598:	00000013          	nop
8000b59c:	00000013          	nop
8000b5a0:	00000013          	nop
8000b5a4:	00000013          	nop
8000b5a8:	00000013          	nop
8000b5ac:	00000013          	nop
8000b5b0:	00000013          	nop
8000b5b4:	00000013          	nop
8000b5b8:	00000013          	nop
8000b5bc:	00000013          	nop
8000b5c0:	00000013          	nop
8000b5c4:	00000013          	nop
8000b5c8:	00000013          	nop
8000b5cc:	00000013          	nop
8000b5d0:	00000013          	nop
8000b5d4:	00000013          	nop
8000b5d8:	00000013          	nop
8000b5dc:	00000013          	nop
8000b5e0:	00000013          	nop
8000b5e4:	00000013          	nop
8000b5e8:	00000013          	nop
8000b5ec:	00000013          	nop
8000b5f0:	00000013          	nop
8000b5f4:	00000013          	nop
8000b5f8:	00000013          	nop
8000b5fc:	00000013          	nop
8000b600:	00000013          	nop
8000b604:	00000013          	nop
8000b608:	00000013          	nop
8000b60c:	00000013          	nop
8000b610:	00000013          	nop
8000b614:	00000013          	nop
8000b618:	00000013          	nop
8000b61c:	00000013          	nop
8000b620:	00000013          	nop
8000b624:	00000013          	nop
8000b628:	00000013          	nop
8000b62c:	00000013          	nop
8000b630:	00000013          	nop
8000b634:	00000013          	nop
8000b638:	00000013          	nop
8000b63c:	00000013          	nop
8000b640:	00000013          	nop
8000b644:	00000013          	nop
8000b648:	00000013          	nop
8000b64c:	00000013          	nop
8000b650:	00000013          	nop
8000b654:	00000013          	nop
8000b658:	00000013          	nop
8000b65c:	00000013          	nop
8000b660:	00000013          	nop
8000b664:	00000013          	nop
8000b668:	00000013          	nop
8000b66c:	00000013          	nop
8000b670:	00000013          	nop
8000b674:	00000013          	nop
8000b678:	00000013          	nop
8000b67c:	00000013          	nop
8000b680:	00000013          	nop
8000b684:	00000013          	nop
8000b688:	00000013          	nop
8000b68c:	00000013          	nop
8000b690:	00000013          	nop
8000b694:	00000013          	nop
8000b698:	00000013          	nop
8000b69c:	00000013          	nop
8000b6a0:	00000013          	nop
8000b6a4:	00000013          	nop
8000b6a8:	00000013          	nop
8000b6ac:	00000013          	nop
8000b6b0:	00000013          	nop
8000b6b4:	00000013          	nop
8000b6b8:	00000013          	nop
8000b6bc:	00000013          	nop
8000b6c0:	00000013          	nop
8000b6c4:	00000013          	nop
8000b6c8:	00000013          	nop
8000b6cc:	00000013          	nop
8000b6d0:	00000013          	nop
8000b6d4:	00000013          	nop
8000b6d8:	00000013          	nop
8000b6dc:	00000013          	nop
8000b6e0:	00000013          	nop
8000b6e4:	00000013          	nop
8000b6e8:	00000013          	nop
8000b6ec:	00000013          	nop
8000b6f0:	00000013          	nop
8000b6f4:	00000013          	nop
8000b6f8:	00000013          	nop
8000b6fc:	00000013          	nop
8000b700:	00000013          	nop
8000b704:	00000013          	nop
8000b708:	00000013          	nop
8000b70c:	00000013          	nop
8000b710:	00000013          	nop
8000b714:	00000013          	nop
8000b718:	00000013          	nop
8000b71c:	00000013          	nop
8000b720:	00000013          	nop
8000b724:	00000013          	nop
8000b728:	00000013          	nop
8000b72c:	00000013          	nop
8000b730:	00000013          	nop
8000b734:	00000013          	nop
8000b738:	00000013          	nop
8000b73c:	00000013          	nop
8000b740:	00000013          	nop
8000b744:	00000013          	nop
8000b748:	00000013          	nop
8000b74c:	00000013          	nop
8000b750:	00000013          	nop
8000b754:	00000013          	nop
8000b758:	00000013          	nop
8000b75c:	00000013          	nop
8000b760:	00000013          	nop
8000b764:	00000013          	nop
8000b768:	00000013          	nop
8000b76c:	00000013          	nop
8000b770:	00000013          	nop
8000b774:	00000013          	nop
8000b778:	00000013          	nop
8000b77c:	00000013          	nop
8000b780:	00000013          	nop
8000b784:	00000013          	nop
8000b788:	00000013          	nop
8000b78c:	00000013          	nop
8000b790:	00000013          	nop
8000b794:	00000013          	nop
8000b798:	00000013          	nop
8000b79c:	00000013          	nop
8000b7a0:	00000013          	nop
8000b7a4:	00000013          	nop
8000b7a8:	00000013          	nop
8000b7ac:	00000013          	nop
8000b7b0:	00000013          	nop
8000b7b4:	00000013          	nop
8000b7b8:	00000013          	nop
8000b7bc:	00000013          	nop
8000b7c0:	00000013          	nop
8000b7c4:	00000013          	nop
8000b7c8:	00000013          	nop
8000b7cc:	00000013          	nop
8000b7d0:	00000013          	nop
8000b7d4:	00000013          	nop
8000b7d8:	00000013          	nop
8000b7dc:	00000013          	nop
8000b7e0:	00000013          	nop
8000b7e4:	00000013          	nop
8000b7e8:	00000013          	nop
8000b7ec:	00000013          	nop
8000b7f0:	00000013          	nop
8000b7f4:	00000013          	nop
8000b7f8:	00000013          	nop
8000b7fc:	00000013          	nop
8000b800:	00000013          	nop
8000b804:	00000013          	nop
8000b808:	00000013          	nop
8000b80c:	00000013          	nop
8000b810:	00000013          	nop
8000b814:	00000013          	nop
8000b818:	00000013          	nop
8000b81c:	00000013          	nop
8000b820:	00000013          	nop
8000b824:	00000013          	nop
8000b828:	00000013          	nop
8000b82c:	00000013          	nop
8000b830:	00000013          	nop
8000b834:	00000013          	nop
8000b838:	00000013          	nop
8000b83c:	00000013          	nop
8000b840:	00000013          	nop
8000b844:	00000013          	nop
8000b848:	00000013          	nop
8000b84c:	00000013          	nop
8000b850:	00000013          	nop
8000b854:	00000013          	nop
8000b858:	00000013          	nop
8000b85c:	00000013          	nop
8000b860:	00000013          	nop
8000b864:	00000013          	nop
8000b868:	00000013          	nop
8000b86c:	00000013          	nop
8000b870:	00000013          	nop
8000b874:	00000013          	nop
8000b878:	00000013          	nop
8000b87c:	00000013          	nop
8000b880:	00000013          	nop
8000b884:	00000013          	nop
8000b888:	00000013          	nop
8000b88c:	00000013          	nop
8000b890:	00000013          	nop
8000b894:	00000013          	nop
8000b898:	00000013          	nop
8000b89c:	00000013          	nop
8000b8a0:	00000013          	nop
8000b8a4:	00000013          	nop
8000b8a8:	00000013          	nop
8000b8ac:	00000013          	nop
8000b8b0:	00000013          	nop
8000b8b4:	00000013          	nop
8000b8b8:	00000013          	nop
8000b8bc:	00000013          	nop
8000b8c0:	00000013          	nop
8000b8c4:	00000013          	nop
8000b8c8:	00000013          	nop
8000b8cc:	00000013          	nop
8000b8d0:	00000013          	nop
8000b8d4:	00000013          	nop
8000b8d8:	00000013          	nop
8000b8dc:	00000013          	nop
8000b8e0:	00000013          	nop
8000b8e4:	00000013          	nop
8000b8e8:	00000013          	nop
8000b8ec:	00000013          	nop
8000b8f0:	00000013          	nop
8000b8f4:	00000013          	nop
8000b8f8:	00000013          	nop
8000b8fc:	00000013          	nop
8000b900:	00000013          	nop
8000b904:	00000013          	nop
8000b908:	00000013          	nop
8000b90c:	00000013          	nop
8000b910:	00000013          	nop
8000b914:	00000013          	nop
8000b918:	00000013          	nop
8000b91c:	00000013          	nop
8000b920:	00000013          	nop
8000b924:	00000013          	nop
8000b928:	00000013          	nop
8000b92c:	00000013          	nop
8000b930:	00000013          	nop
8000b934:	00000013          	nop
8000b938:	00000013          	nop
8000b93c:	00000013          	nop
8000b940:	00000013          	nop
8000b944:	00000013          	nop
8000b948:	00000013          	nop
8000b94c:	00000013          	nop
8000b950:	00000013          	nop
8000b954:	00000013          	nop
8000b958:	00000013          	nop
8000b95c:	00000013          	nop
8000b960:	00000013          	nop
8000b964:	00000013          	nop
8000b968:	00000013          	nop
8000b96c:	00000013          	nop
8000b970:	00000013          	nop
8000b974:	00000013          	nop
8000b978:	00000013          	nop
8000b97c:	00000013          	nop
8000b980:	00000013          	nop
8000b984:	00000013          	nop
8000b988:	00000013          	nop
8000b98c:	00000013          	nop
8000b990:	00000013          	nop
8000b994:	00000013          	nop
8000b998:	00000013          	nop
8000b99c:	00000013          	nop
8000b9a0:	00000013          	nop
8000b9a4:	00000013          	nop
8000b9a8:	00000013          	nop
8000b9ac:	00000013          	nop
8000b9b0:	00000013          	nop
8000b9b4:	00000013          	nop
8000b9b8:	00000013          	nop
8000b9bc:	00000013          	nop
8000b9c0:	00000013          	nop
8000b9c4:	00000013          	nop
8000b9c8:	00000013          	nop
8000b9cc:	00000013          	nop
8000b9d0:	00000013          	nop
8000b9d4:	00000013          	nop
8000b9d8:	00000013          	nop
8000b9dc:	00000013          	nop
8000b9e0:	00000013          	nop
8000b9e4:	00000013          	nop
8000b9e8:	00000013          	nop
8000b9ec:	00000013          	nop
8000b9f0:	00000013          	nop
8000b9f4:	00000013          	nop
8000b9f8:	00000013          	nop
8000b9fc:	00000013          	nop
8000ba00:	00000013          	nop
8000ba04:	00000013          	nop
8000ba08:	00000013          	nop
8000ba0c:	00000013          	nop
8000ba10:	00000013          	nop
8000ba14:	00000013          	nop
8000ba18:	00000013          	nop
8000ba1c:	00000013          	nop
8000ba20:	00000013          	nop
8000ba24:	00000013          	nop
8000ba28:	00000013          	nop
8000ba2c:	00000013          	nop
8000ba30:	00000013          	nop
8000ba34:	00000013          	nop
8000ba38:	00000013          	nop
8000ba3c:	00000013          	nop
8000ba40:	00000013          	nop
8000ba44:	00000013          	nop
8000ba48:	00000013          	nop
8000ba4c:	00000013          	nop
8000ba50:	00000013          	nop
8000ba54:	00000013          	nop
8000ba58:	00000013          	nop
8000ba5c:	00000013          	nop
8000ba60:	00000013          	nop
8000ba64:	00000013          	nop
8000ba68:	00000013          	nop
8000ba6c:	00000013          	nop
8000ba70:	00000013          	nop
8000ba74:	00000013          	nop
8000ba78:	00000013          	nop
8000ba7c:	00000013          	nop
8000ba80:	00000013          	nop
8000ba84:	00000013          	nop
8000ba88:	00000013          	nop
8000ba8c:	00000013          	nop
8000ba90:	00000013          	nop
8000ba94:	00000013          	nop
8000ba98:	00000013          	nop
8000ba9c:	00000013          	nop
8000baa0:	00000013          	nop
8000baa4:	00000013          	nop
8000baa8:	00000013          	nop
8000baac:	00000013          	nop
8000bab0:	00000013          	nop
8000bab4:	00000013          	nop
8000bab8:	00000013          	nop
8000babc:	00000013          	nop
8000bac0:	00000013          	nop
8000bac4:	00000013          	nop
8000bac8:	00000013          	nop
8000bacc:	00000013          	nop
8000bad0:	00000013          	nop
8000bad4:	00000013          	nop
8000bad8:	00000013          	nop
8000badc:	00000013          	nop
8000bae0:	00000013          	nop
8000bae4:	00000013          	nop
8000bae8:	00000013          	nop
8000baec:	00000013          	nop
8000baf0:	00000013          	nop
8000baf4:	00000013          	nop
8000baf8:	00000013          	nop
8000bafc:	00000013          	nop
8000bb00:	00000013          	nop
8000bb04:	00000013          	nop
8000bb08:	00000013          	nop
8000bb0c:	00000013          	nop
8000bb10:	00000013          	nop
8000bb14:	00000013          	nop
8000bb18:	00000013          	nop
8000bb1c:	00000013          	nop
8000bb20:	00000013          	nop
8000bb24:	00000013          	nop
8000bb28:	00000013          	nop
8000bb2c:	00000013          	nop
8000bb30:	00000013          	nop
8000bb34:	00000013          	nop
8000bb38:	00000013          	nop
8000bb3c:	00000013          	nop
8000bb40:	00000013          	nop
8000bb44:	00000013          	nop
8000bb48:	00000013          	nop
8000bb4c:	00000013          	nop
8000bb50:	00000013          	nop
8000bb54:	00000013          	nop
8000bb58:	00000013          	nop
8000bb5c:	00000013          	nop
8000bb60:	00000013          	nop
8000bb64:	00000013          	nop
8000bb68:	00000013          	nop
8000bb6c:	00000013          	nop
8000bb70:	00000013          	nop
8000bb74:	00000013          	nop
8000bb78:	00000013          	nop
8000bb7c:	00000013          	nop
8000bb80:	00000013          	nop
8000bb84:	00000013          	nop
8000bb88:	00000013          	nop
8000bb8c:	00000013          	nop
8000bb90:	00000013          	nop
8000bb94:	00000013          	nop
8000bb98:	00000013          	nop
8000bb9c:	00000013          	nop
8000bba0:	00000013          	nop
8000bba4:	00000013          	nop
8000bba8:	00000013          	nop
8000bbac:	00000013          	nop
8000bbb0:	00000013          	nop
8000bbb4:	00000013          	nop
8000bbb8:	00000013          	nop
8000bbbc:	00000013          	nop
8000bbc0:	00000013          	nop
8000bbc4:	00000013          	nop
8000bbc8:	00000013          	nop
8000bbcc:	00000013          	nop
8000bbd0:	00000013          	nop
8000bbd4:	00000013          	nop
8000bbd8:	00000013          	nop
8000bbdc:	00000013          	nop
8000bbe0:	00000013          	nop
8000bbe4:	00000013          	nop
8000bbe8:	00000013          	nop
8000bbec:	00000013          	nop
8000bbf0:	00000013          	nop
8000bbf4:	00000013          	nop
8000bbf8:	00000013          	nop
8000bbfc:	00000013          	nop
8000bc00:	00000013          	nop
8000bc04:	00000013          	nop
8000bc08:	00000013          	nop
8000bc0c:	00000013          	nop
8000bc10:	00000013          	nop
8000bc14:	00000013          	nop
8000bc18:	00000013          	nop
8000bc1c:	00000013          	nop
8000bc20:	00000013          	nop
8000bc24:	00000013          	nop
8000bc28:	00000013          	nop
8000bc2c:	00000013          	nop
8000bc30:	00000013          	nop
8000bc34:	00000013          	nop
8000bc38:	00000013          	nop
8000bc3c:	00000013          	nop
8000bc40:	00000013          	nop
8000bc44:	00000013          	nop
8000bc48:	00000013          	nop
8000bc4c:	00000013          	nop
8000bc50:	00000013          	nop
8000bc54:	00000013          	nop
8000bc58:	00000013          	nop
8000bc5c:	00000013          	nop
8000bc60:	00000013          	nop
8000bc64:	00000013          	nop
8000bc68:	00000013          	nop
8000bc6c:	00000013          	nop
8000bc70:	00000013          	nop
8000bc74:	00000013          	nop
8000bc78:	00000013          	nop
8000bc7c:	00000013          	nop
8000bc80:	00000013          	nop
8000bc84:	00000013          	nop
8000bc88:	00000013          	nop
8000bc8c:	00000013          	nop
8000bc90:	00000013          	nop
8000bc94:	00000013          	nop
8000bc98:	00000013          	nop
8000bc9c:	00000013          	nop
8000bca0:	00000013          	nop
8000bca4:	00000013          	nop
8000bca8:	00000013          	nop
8000bcac:	00000013          	nop
8000bcb0:	00000013          	nop
8000bcb4:	00000013          	nop
8000bcb8:	00000013          	nop
8000bcbc:	00000013          	nop
8000bcc0:	00000013          	nop
8000bcc4:	00000013          	nop
8000bcc8:	00000013          	nop
8000bccc:	00000013          	nop
8000bcd0:	00000013          	nop
8000bcd4:	00000013          	nop
8000bcd8:	00000013          	nop
8000bcdc:	00000013          	nop
8000bce0:	00000013          	nop
8000bce4:	00000013          	nop
8000bce8:	00000013          	nop
8000bcec:	00000013          	nop
8000bcf0:	00000013          	nop
8000bcf4:	00000013          	nop
8000bcf8:	00000013          	nop
8000bcfc:	00000013          	nop
8000bd00:	00000013          	nop
8000bd04:	00000013          	nop
8000bd08:	00000013          	nop
8000bd0c:	00000013          	nop
8000bd10:	00000013          	nop
8000bd14:	00000013          	nop
8000bd18:	00000013          	nop
8000bd1c:	00000013          	nop
8000bd20:	00000013          	nop
8000bd24:	00000013          	nop
8000bd28:	00000013          	nop
8000bd2c:	00000013          	nop
8000bd30:	00000013          	nop
8000bd34:	00000013          	nop
8000bd38:	00000013          	nop
8000bd3c:	00000013          	nop
8000bd40:	00000013          	nop
8000bd44:	00000013          	nop
8000bd48:	00000013          	nop
8000bd4c:	00000013          	nop
8000bd50:	00000013          	nop
8000bd54:	00000013          	nop
8000bd58:	00000013          	nop
8000bd5c:	00000013          	nop
8000bd60:	00000013          	nop
8000bd64:	00000013          	nop
8000bd68:	00000013          	nop
8000bd6c:	00000013          	nop
8000bd70:	00000013          	nop
8000bd74:	00000013          	nop
8000bd78:	00000013          	nop
8000bd7c:	00000013          	nop
8000bd80:	00000013          	nop
8000bd84:	00000013          	nop
8000bd88:	00000013          	nop
8000bd8c:	00000013          	nop
8000bd90:	00000013          	nop
8000bd94:	00000013          	nop
8000bd98:	00000013          	nop
8000bd9c:	00000013          	nop
8000bda0:	00000013          	nop
8000bda4:	00000013          	nop
8000bda8:	00000013          	nop
8000bdac:	00000013          	nop
8000bdb0:	00000013          	nop
8000bdb4:	00000013          	nop
8000bdb8:	00000013          	nop
8000bdbc:	00000013          	nop
8000bdc0:	00000013          	nop
8000bdc4:	00000013          	nop
8000bdc8:	00000013          	nop
8000bdcc:	00000013          	nop
8000bdd0:	00000013          	nop
8000bdd4:	00000013          	nop
8000bdd8:	00000013          	nop
8000bddc:	00000013          	nop
8000bde0:	00000013          	nop
8000bde4:	00000013          	nop
8000bde8:	00000013          	nop
8000bdec:	00000013          	nop
8000bdf0:	00000013          	nop
8000bdf4:	00000013          	nop
8000bdf8:	00000013          	nop
8000bdfc:	00000013          	nop
8000be00:	00000013          	nop
8000be04:	00000013          	nop
8000be08:	00000013          	nop
8000be0c:	00000013          	nop
8000be10:	00000013          	nop
8000be14:	00000013          	nop
8000be18:	00000013          	nop
8000be1c:	00000013          	nop
8000be20:	00000013          	nop
8000be24:	00000013          	nop
8000be28:	00000013          	nop
8000be2c:	00000013          	nop
8000be30:	00000013          	nop
8000be34:	00000013          	nop
8000be38:	00000013          	nop
8000be3c:	00000013          	nop
8000be40:	00000013          	nop
8000be44:	00000013          	nop
8000be48:	00000013          	nop
8000be4c:	00000013          	nop
8000be50:	00000013          	nop
8000be54:	00000013          	nop
8000be58:	00000013          	nop
8000be5c:	00000013          	nop
8000be60:	00000013          	nop
8000be64:	00000013          	nop
8000be68:	00000013          	nop
8000be6c:	00000013          	nop
8000be70:	00000013          	nop
8000be74:	00000013          	nop
8000be78:	00000013          	nop
8000be7c:	00000013          	nop
8000be80:	00000013          	nop
8000be84:	00000013          	nop
8000be88:	00000013          	nop
8000be8c:	00000013          	nop
8000be90:	00000013          	nop
8000be94:	00000013          	nop
8000be98:	00000013          	nop
8000be9c:	00000013          	nop
8000bea0:	00000013          	nop
8000bea4:	00000013          	nop
8000bea8:	00000013          	nop
8000beac:	00000013          	nop
8000beb0:	00000013          	nop
8000beb4:	00000013          	nop
8000beb8:	00000013          	nop
8000bebc:	00000013          	nop
8000bec0:	00000013          	nop
8000bec4:	00000013          	nop
8000bec8:	00000013          	nop
8000becc:	00000013          	nop
8000bed0:	00000013          	nop
8000bed4:	00000013          	nop
8000bed8:	00000013          	nop
8000bedc:	00000013          	nop
8000bee0:	00000013          	nop
8000bee4:	00000013          	nop
8000bee8:	00000013          	nop
8000beec:	00000013          	nop
8000bef0:	00000013          	nop
8000bef4:	00000013          	nop
8000bef8:	00000013          	nop
8000befc:	00000013          	nop
8000bf00:	00000013          	nop
8000bf04:	00000013          	nop
8000bf08:	00000013          	nop
8000bf0c:	00000013          	nop
8000bf10:	00000013          	nop
8000bf14:	00000013          	nop
8000bf18:	00000013          	nop
8000bf1c:	00000013          	nop
8000bf20:	00000013          	nop
8000bf24:	00000013          	nop
8000bf28:	00000013          	nop
8000bf2c:	00000013          	nop
8000bf30:	00000013          	nop
8000bf34:	00000013          	nop
8000bf38:	00000013          	nop
8000bf3c:	00000013          	nop
8000bf40:	00000013          	nop
8000bf44:	00000013          	nop
8000bf48:	00000013          	nop
8000bf4c:	00000013          	nop
8000bf50:	00000013          	nop
8000bf54:	00000013          	nop
8000bf58:	00000013          	nop
8000bf5c:	00000013          	nop
8000bf60:	00000013          	nop
8000bf64:	00000013          	nop
8000bf68:	00000013          	nop
8000bf6c:	00000013          	nop
8000bf70:	00000013          	nop
8000bf74:	00000013          	nop
8000bf78:	00000013          	nop
8000bf7c:	00000013          	nop
8000bf80:	00000013          	nop
8000bf84:	00000013          	nop
8000bf88:	00000013          	nop
8000bf8c:	00000013          	nop
8000bf90:	00000013          	nop
8000bf94:	00000013          	nop
8000bf98:	00000013          	nop
8000bf9c:	00000013          	nop
8000bfa0:	00000013          	nop
8000bfa4:	00000013          	nop
8000bfa8:	00000013          	nop
8000bfac:	00000013          	nop
8000bfb0:	00000013          	nop
8000bfb4:	00000013          	nop
8000bfb8:	00000013          	nop
8000bfbc:	00000013          	nop
8000bfc0:	00000013          	nop
8000bfc4:	00000013          	nop
8000bfc8:	00000013          	nop
8000bfcc:	00000013          	nop
8000bfd0:	00000013          	nop
8000bfd4:	00000013          	nop
8000bfd8:	00000013          	nop
8000bfdc:	00000013          	nop
8000bfe0:	00000013          	nop
8000bfe4:	00000013          	nop
8000bfe8:	00000013          	nop
8000bfec:	00000013          	nop
8000bff0:	00000013          	nop
8000bff4:	00000013          	nop
8000bff8:	00000013          	nop
8000bffc:	00000013          	nop

8000c000 <mtvec_handler>:
8000c000:	34031373          	csrrw	t1,mscratch,t1
8000c004:	000b0333          	add	t1,s6,zero
8000c008:	f8430313          	addi	t1,t1,-124
8000c00c:	00132223          	sw	ra,4(t1)
8000c010:	00232423          	sw	sp,8(t1)
8000c014:	00332623          	sw	gp,12(t1)
8000c018:	00432823          	sw	tp,16(t1)
8000c01c:	00532a23          	sw	t0,20(t1)
8000c020:	00632c23          	sw	t1,24(t1)
8000c024:	00732e23          	sw	t2,28(t1)
8000c028:	02832023          	sw	s0,32(t1)
8000c02c:	02932223          	sw	s1,36(t1)
8000c030:	02a32423          	sw	a0,40(t1)
8000c034:	02b32623          	sw	a1,44(t1)
8000c038:	02c32823          	sw	a2,48(t1)
8000c03c:	02d32a23          	sw	a3,52(t1)
8000c040:	02e32c23          	sw	a4,56(t1)
8000c044:	02f32e23          	sw	a5,60(t1)
8000c048:	05032023          	sw	a6,64(t1)
8000c04c:	05132223          	sw	a7,68(t1)
8000c050:	05232423          	sw	s2,72(t1)
8000c054:	05332623          	sw	s3,76(t1)
8000c058:	05432823          	sw	s4,80(t1)
8000c05c:	05532a23          	sw	s5,84(t1)
8000c060:	05632c23          	sw	s6,88(t1)
8000c064:	05732e23          	sw	s7,92(t1)
8000c068:	07832023          	sw	s8,96(t1)
8000c06c:	07932223          	sw	s9,100(t1)
8000c070:	07a32423          	sw	s10,104(t1)
8000c074:	07b32623          	sw	s11,108(t1)
8000c078:	07c32823          	sw	t3,112(t1)
8000c07c:	07d32a23          	sw	t4,116(t1)
8000c080:	07e32c23          	sw	t5,120(t1)
8000c084:	07f32e23          	sw	t6,124(t1)
8000c088:	30002e73          	csrr	t3,mstatus
8000c08c:	34202e73          	csrr	t3,mcause
8000c090:	01fe5e13          	srli	t3,t3,0x1f
8000c094:	000e0463          	beqz	t3,8000c09c <mmode_exception_handler>
8000c098:	7690006f          	j	8000d000 <mmode_intr_handler>

8000c09c <mmode_exception_handler>:
8000c09c:	34102e73          	csrr	t3,mepc
8000c0a0:	34202e73          	csrr	t3,mcause
8000c0a4:	00300293          	li	t0,3
8000c0a8:	7a5e0c63          	beq	t3,t0,8000c860 <ebreak_handler>
8000c0ac:	00800293          	li	t0,8
8000c0b0:	045e0e63          	beq	t3,t0,8000c10c <ecall_handler>
8000c0b4:	00900293          	li	t0,9
8000c0b8:	045e0a63          	beq	t3,t0,8000c10c <ecall_handler>
8000c0bc:	00b00293          	li	t0,11
8000c0c0:	045e0663          	beq	t3,t0,8000c10c <ecall_handler>
8000c0c4:	00100293          	li	t0,1
8000c0c8:	0c5e0c63          	beq	t3,t0,8000c1a0 <instr_fault_handler>
8000c0cc:	00500293          	li	t0,5
8000c0d0:	305e0863          	beq	t3,t0,8000c3e0 <load_fault_handler>
8000c0d4:	00700293          	li	t0,7
8000c0d8:	545e0463          	beq	t3,t0,8000c620 <store_fault_handler>
8000c0dc:	00c00293          	li	t0,12
8000c0e0:	0a5e08e3          	beq	t3,t0,8000c990 <pt_fault_handler>
8000c0e4:	00d00293          	li	t0,13
8000c0e8:	0a5e04e3          	beq	t3,t0,8000c990 <pt_fault_handler>
8000c0ec:	00f00293          	li	t0,15
8000c0f0:	0a5e00e3          	beq	t3,t0,8000c990 <pt_fault_handler>
8000c0f4:	00200293          	li	t0,2
8000c0f8:	005e00e3          	beq	t3,t0,8000c8f8 <illegal_instr_handler>
8000c0fc:	343022f3          	csrr	t0,mtval
8000c100:	ffff6697          	auipc	a3,0xffff6
8000c104:	c3c68693          	addi	a3,a3,-964 # 80001d3c <test_done>
8000c108:	000680e7          	jalr	a3

8000c10c <ecall_handler>:
8000c10c:	ffff4e17          	auipc	t3,0xffff4
8000c110:	ef4e0e13          	addi	t3,t3,-268 # 80000000 <_start>
8000c114:	000e2023          	sw	zero,0(t3)
8000c118:	001e2223          	sw	ra,4(t3)
8000c11c:	002e2423          	sw	sp,8(t3)
8000c120:	003e2623          	sw	gp,12(t3)
8000c124:	004e2823          	sw	tp,16(t3)
8000c128:	005e2a23          	sw	t0,20(t3)
8000c12c:	006e2c23          	sw	t1,24(t3)
8000c130:	007e2e23          	sw	t2,28(t3)
8000c134:	028e2023          	sw	s0,32(t3)
8000c138:	029e2223          	sw	s1,36(t3)
8000c13c:	02ae2423          	sw	a0,40(t3)
8000c140:	02be2623          	sw	a1,44(t3)
8000c144:	02ce2823          	sw	a2,48(t3)
8000c148:	02de2a23          	sw	a3,52(t3)
8000c14c:	02ee2c23          	sw	a4,56(t3)
8000c150:	02fe2e23          	sw	a5,60(t3)
8000c154:	050e2023          	sw	a6,64(t3)
8000c158:	051e2223          	sw	a7,68(t3)
8000c15c:	052e2423          	sw	s2,72(t3)
8000c160:	053e2623          	sw	s3,76(t3)
8000c164:	054e2823          	sw	s4,80(t3)
8000c168:	055e2a23          	sw	s5,84(t3)
8000c16c:	056e2c23          	sw	s6,88(t3)
8000c170:	057e2e23          	sw	s7,92(t3)
8000c174:	078e2023          	sw	s8,96(t3)
8000c178:	079e2223          	sw	s9,100(t3)
8000c17c:	07ae2423          	sw	s10,104(t3)
8000c180:	07be2623          	sw	s11,108(t3)
8000c184:	07ce2823          	sw	t3,112(t3)
8000c188:	07de2a23          	sw	t4,116(t3)
8000c18c:	07ee2c23          	sw	t5,120(t3)
8000c190:	07fe2e23          	sw	t6,124(t3)
8000c194:	ffffe697          	auipc	a3,0xffffe
8000c198:	eb868693          	addi	a3,a3,-328 # 8000a04c <write_tohost>
8000c19c:	00068067          	jr	a3

8000c1a0 <instr_fault_handler>:
8000c1a0:	00000e13          	li	t3,0
8000c1a4:	340e1073          	csrw	mscratch,t3
8000c1a8:	00000813          	li	a6,0
8000c1ac:	34002e73          	csrr	t3,mscratch
8000c1b0:	000e0693          	mv	a3,t3
8000c1b4:	00000693          	li	a3,0
8000c1b8:	00de0263          	beq	t3,a3,8000c1bc <instr_fault_handler+0x1c>
8000c1bc:	3b0022f3          	csrr	t0,pmpaddr0
8000c1c0:	3a002c73          	csrr	s8,pmpcfg0
8000c1c4:	0040006f          	j	8000c1c8 <instr_fault_handler+0x28>
8000c1c8:	00400493          	li	s1,4
8000c1cc:	34002e73          	csrr	t3,mscratch
8000c1d0:	01ee1e13          	slli	t3,t3,0x1e
8000c1d4:	01ee5e13          	srli	t3,t3,0x1e
8000c1d8:	41c486b3          	sub	a3,s1,t3
8000c1dc:	fff68693          	addi	a3,a3,-1
8000c1e0:	00369693          	slli	a3,a3,0x3
8000c1e4:	00dc14b3          	sll	s1,s8,a3
8000c1e8:	003e1e13          	slli	t3,t3,0x3
8000c1ec:	01c686b3          	add	a3,a3,t3
8000c1f0:	00d4d4b3          	srl	s1,s1,a3
8000c1f4:	01b49693          	slli	a3,s1,0x1b
8000c1f8:	01e6d693          	srli	a3,a3,0x1e
8000c1fc:	04068863          	beqz	a3,8000c24c <instr_fault_handler+0xac>
8000c200:	00100e13          	li	t3,1
8000c204:	05c68663          	beq	a3,t3,8000c250 <instr_fault_handler+0xb0>
8000c208:	00200e13          	li	t3,2
8000c20c:	07c68e63          	beq	a3,t3,8000c288 <instr_fault_handler+0xe8>
8000c210:	00300e13          	li	t3,3
8000c214:	0bc68063          	beq	a3,t3,8000c2b4 <instr_fault_handler+0x114>
8000c218:	ffff6e17          	auipc	t3,0xffff6
8000c21c:	b24e0e13          	addi	t3,t3,-1244 # 80001d3c <test_done>
8000c220:	000e0067          	jr	t3
8000c224:	34002e73          	csrr	t3,mscratch
8000c228:	00028813          	mv	a6,t0
8000c22c:	001e0e13          	addi	t3,t3,1
8000c230:	340e1073          	csrw	mscratch,t3
8000c234:	00100293          	li	t0,1
8000c238:	005e5463          	bge	t3,t0,8000c240 <instr_fault_handler+0xa0>
8000c23c:	f71ff06f          	j	8000c1ac <instr_fault_handler+0xc>
8000c240:	ffff6e17          	auipc	t3,0xffff6
8000c244:	afce0e13          	addi	t3,t3,-1284 # 80001d3c <test_done>
8000c248:	000e0067          	jr	t3
8000c24c:	fd9ff06f          	j	8000c224 <instr_fault_handler+0x84>
8000c250:	34002e73          	csrr	t3,mscratch
8000c254:	343026f3          	csrr	a3,mtval
8000c258:	0026d693          	srli	a3,a3,0x2
8000c25c:	000e1663          	bnez	t3,8000c268 <instr_fault_handler+0xc8>
8000c260:	fc06c2e3          	bltz	a3,8000c224 <instr_fault_handler+0x84>
8000c264:	0080006f          	j	8000c26c <instr_fault_handler+0xcc>
8000c268:	fb06eee3          	bltu	a3,a6,8000c224 <instr_fault_handler+0x84>
8000c26c:	fa56fce3          	bgeu	a3,t0,8000c224 <instr_fault_handler+0x84>
8000c270:	0804f693          	andi	a3,s1,128
8000c274:	00068863          	beqz	a3,8000c284 <instr_fault_handler+0xe4>
8000c278:	ffff6e17          	auipc	t3,0xffff6
8000c27c:	ac4e0e13          	addi	t3,t3,-1340 # 80001d3c <test_done>
8000c280:	000e0067          	jr	t3
8000c284:	06c0006f          	j	8000c2f0 <instr_fault_handler+0x150>
8000c288:	34302e73          	csrr	t3,mtval
8000c28c:	002e5e13          	srli	t3,t3,0x2
8000c290:	00229693          	slli	a3,t0,0x2
8000c294:	0026d693          	srli	a3,a3,0x2
8000c298:	f8de16e3          	bne	t3,a3,8000c224 <instr_fault_handler+0x84>
8000c29c:	0804f693          	andi	a3,s1,128
8000c2a0:	00068863          	beqz	a3,8000c2b0 <instr_fault_handler+0x110>
8000c2a4:	ffff6e17          	auipc	t3,0xffff6
8000c2a8:	a98e0e13          	addi	t3,t3,-1384 # 80001d3c <test_done>
8000c2ac:	000e0067          	jr	t3
8000c2b0:	0400006f          	j	8000c2f0 <instr_fault_handler+0x150>
8000c2b4:	34302e73          	csrr	t3,mtval
8000c2b8:	002e5e13          	srli	t3,t3,0x2
8000c2bc:	000e5e13          	srli	t3,t3,0x0
8000c2c0:	000e1e13          	slli	t3,t3,0x0
8000c2c4:	00229693          	slli	a3,t0,0x2
8000c2c8:	0026d693          	srli	a3,a3,0x2
8000c2cc:	0006d693          	srli	a3,a3,0x0
8000c2d0:	00069693          	slli	a3,a3,0x0
8000c2d4:	f4de18e3          	bne	t3,a3,8000c224 <instr_fault_handler+0x84>
8000c2d8:	0804f693          	andi	a3,s1,128
8000c2dc:	00068a63          	beqz	a3,8000c2f0 <instr_fault_handler+0x150>
8000c2e0:	ffff6e17          	auipc	t3,0xffff6
8000c2e4:	a5ce0e13          	addi	t3,t3,-1444 # 80001d3c <test_done>
8000c2e8:	000e0067          	jr	t3
8000c2ec:	0040006f          	j	8000c2f0 <instr_fault_handler+0x150>
8000c2f0:	0044e493          	ori	s1,s1,4
8000c2f4:	34002e73          	csrr	t3,mscratch
8000c2f8:	01e00693          	li	a3,30
8000c2fc:	00de1e33          	sll	t3,t3,a3
8000c300:	00de5e33          	srl	t3,t3,a3
8000c304:	003e1693          	slli	a3,t3,0x3
8000c308:	00d494b3          	sll	s1,s1,a3
8000c30c:	009c6c33          	or	s8,s8,s1
8000c310:	34002e73          	csrr	t3,mscratch
8000c314:	002e5e13          	srli	t3,t3,0x2
8000c318:	000e0e63          	beqz	t3,8000c334 <instr_fault_handler+0x194>
8000c31c:	00100693          	li	a3,1
8000c320:	00de0e63          	beq	t3,a3,8000c33c <instr_fault_handler+0x19c>
8000c324:	00200693          	li	a3,2
8000c328:	00de0e63          	beq	t3,a3,8000c344 <instr_fault_handler+0x1a4>
8000c32c:	00300693          	li	a3,3
8000c330:	00de0e63          	beq	t3,a3,8000c34c <instr_fault_handler+0x1ac>
8000c334:	3a0c1073          	csrw	pmpcfg0,s8
8000c338:	0180006f          	j	8000c350 <instr_fault_handler+0x1b0>
8000c33c:	3a1c1073          	csrw	pmpcfg1,s8
8000c340:	0100006f          	j	8000c350 <instr_fault_handler+0x1b0>
8000c344:	3a2c1073          	csrw	pmpcfg2,s8
8000c348:	0080006f          	j	8000c350 <instr_fault_handler+0x1b0>
8000c34c:	3a3c1073          	csrw	pmpcfg3,s8
8000c350:	00000013          	nop
8000c354:	00432083          	lw	ra,4(t1)
8000c358:	00832103          	lw	sp,8(t1)
8000c35c:	00c32183          	lw	gp,12(t1)
8000c360:	01032203          	lw	tp,16(t1)
8000c364:	01432283          	lw	t0,20(t1)
8000c368:	01832303          	lw	t1,24(t1)
8000c36c:	01c32383          	lw	t2,28(t1)
8000c370:	02032403          	lw	s0,32(t1)
8000c374:	02432483          	lw	s1,36(t1)
8000c378:	02832503          	lw	a0,40(t1)
8000c37c:	02c32583          	lw	a1,44(t1)
8000c380:	03032603          	lw	a2,48(t1)
8000c384:	03432683          	lw	a3,52(t1)
8000c388:	03832703          	lw	a4,56(t1)
8000c38c:	03c32783          	lw	a5,60(t1)
8000c390:	04032803          	lw	a6,64(t1)
8000c394:	04432883          	lw	a7,68(t1)
8000c398:	04832903          	lw	s2,72(t1)
8000c39c:	04c32983          	lw	s3,76(t1)
8000c3a0:	05032a03          	lw	s4,80(t1)
8000c3a4:	05432a83          	lw	s5,84(t1)
8000c3a8:	05832b03          	lw	s6,88(t1)
8000c3ac:	05c32b83          	lw	s7,92(t1)
8000c3b0:	06032c03          	lw	s8,96(t1)
8000c3b4:	06432c83          	lw	s9,100(t1)
8000c3b8:	06832d03          	lw	s10,104(t1)
8000c3bc:	06c32d83          	lw	s11,108(t1)
8000c3c0:	07032e03          	lw	t3,112(t1)
8000c3c4:	07432e83          	lw	t4,116(t1)
8000c3c8:	07832f03          	lw	t5,120(t1)
8000c3cc:	07c32f83          	lw	t6,124(t1)
8000c3d0:	07c30313          	addi	t1,t1,124
8000c3d4:	00030b33          	add	s6,t1,zero
8000c3d8:	34031373          	csrrw	t1,mscratch,t1
8000c3dc:	30200073          	mret

8000c3e0 <load_fault_handler>:
8000c3e0:	00000e13          	li	t3,0
8000c3e4:	340e1073          	csrw	mscratch,t3
8000c3e8:	00000813          	li	a6,0
8000c3ec:	34002e73          	csrr	t3,mscratch
8000c3f0:	000e0693          	mv	a3,t3
8000c3f4:	00000693          	li	a3,0
8000c3f8:	00de0263          	beq	t3,a3,8000c3fc <load_fault_handler+0x1c>
8000c3fc:	3b0022f3          	csrr	t0,pmpaddr0
8000c400:	3a002c73          	csrr	s8,pmpcfg0
8000c404:	0040006f          	j	8000c408 <load_fault_handler+0x28>
8000c408:	00400493          	li	s1,4
8000c40c:	34002e73          	csrr	t3,mscratch
8000c410:	01ee1e13          	slli	t3,t3,0x1e
8000c414:	01ee5e13          	srli	t3,t3,0x1e
8000c418:	41c486b3          	sub	a3,s1,t3
8000c41c:	fff68693          	addi	a3,a3,-1
8000c420:	00369693          	slli	a3,a3,0x3
8000c424:	00dc14b3          	sll	s1,s8,a3
8000c428:	003e1e13          	slli	t3,t3,0x3
8000c42c:	01c686b3          	add	a3,a3,t3
8000c430:	00d4d4b3          	srl	s1,s1,a3
8000c434:	01b49693          	slli	a3,s1,0x1b
8000c438:	01e6d693          	srli	a3,a3,0x1e
8000c43c:	04068863          	beqz	a3,8000c48c <load_fault_handler+0xac>
8000c440:	00100e13          	li	t3,1
8000c444:	05c68663          	beq	a3,t3,8000c490 <load_fault_handler+0xb0>
8000c448:	00200e13          	li	t3,2
8000c44c:	07c68e63          	beq	a3,t3,8000c4c8 <load_fault_handler+0xe8>
8000c450:	00300e13          	li	t3,3
8000c454:	0bc68063          	beq	a3,t3,8000c4f4 <load_fault_handler+0x114>
8000c458:	ffff6e17          	auipc	t3,0xffff6
8000c45c:	8e4e0e13          	addi	t3,t3,-1820 # 80001d3c <test_done>
8000c460:	000e0067          	jr	t3
8000c464:	34002e73          	csrr	t3,mscratch
8000c468:	00028813          	mv	a6,t0
8000c46c:	001e0e13          	addi	t3,t3,1
8000c470:	340e1073          	csrw	mscratch,t3
8000c474:	00100293          	li	t0,1
8000c478:	005e5463          	bge	t3,t0,8000c480 <load_fault_handler+0xa0>
8000c47c:	f71ff06f          	j	8000c3ec <load_fault_handler+0xc>
8000c480:	ffff6e17          	auipc	t3,0xffff6
8000c484:	8bce0e13          	addi	t3,t3,-1860 # 80001d3c <test_done>
8000c488:	000e0067          	jr	t3
8000c48c:	fd9ff06f          	j	8000c464 <load_fault_handler+0x84>
8000c490:	34002e73          	csrr	t3,mscratch
8000c494:	343026f3          	csrr	a3,mtval
8000c498:	0026d693          	srli	a3,a3,0x2
8000c49c:	000e1663          	bnez	t3,8000c4a8 <load_fault_handler+0xc8>
8000c4a0:	fc06c2e3          	bltz	a3,8000c464 <load_fault_handler+0x84>
8000c4a4:	0080006f          	j	8000c4ac <load_fault_handler+0xcc>
8000c4a8:	fb06eee3          	bltu	a3,a6,8000c464 <load_fault_handler+0x84>
8000c4ac:	fa56fce3          	bgeu	a3,t0,8000c464 <load_fault_handler+0x84>
8000c4b0:	0804f693          	andi	a3,s1,128
8000c4b4:	00068863          	beqz	a3,8000c4c4 <load_fault_handler+0xe4>
8000c4b8:	ffff6e17          	auipc	t3,0xffff6
8000c4bc:	884e0e13          	addi	t3,t3,-1916 # 80001d3c <test_done>
8000c4c0:	000e0067          	jr	t3
8000c4c4:	06c0006f          	j	8000c530 <load_fault_handler+0x150>
8000c4c8:	34302e73          	csrr	t3,mtval
8000c4cc:	002e5e13          	srli	t3,t3,0x2
8000c4d0:	00229693          	slli	a3,t0,0x2
8000c4d4:	0026d693          	srli	a3,a3,0x2
8000c4d8:	f8de16e3          	bne	t3,a3,8000c464 <load_fault_handler+0x84>
8000c4dc:	0804f693          	andi	a3,s1,128
8000c4e0:	00068863          	beqz	a3,8000c4f0 <load_fault_handler+0x110>
8000c4e4:	ffff6e17          	auipc	t3,0xffff6
8000c4e8:	858e0e13          	addi	t3,t3,-1960 # 80001d3c <test_done>
8000c4ec:	000e0067          	jr	t3
8000c4f0:	0400006f          	j	8000c530 <load_fault_handler+0x150>
8000c4f4:	34302e73          	csrr	t3,mtval
8000c4f8:	002e5e13          	srli	t3,t3,0x2
8000c4fc:	000e5e13          	srli	t3,t3,0x0
8000c500:	000e1e13          	slli	t3,t3,0x0
8000c504:	00229693          	slli	a3,t0,0x2
8000c508:	0026d693          	srli	a3,a3,0x2
8000c50c:	0006d693          	srli	a3,a3,0x0
8000c510:	00069693          	slli	a3,a3,0x0
8000c514:	f4de18e3          	bne	t3,a3,8000c464 <load_fault_handler+0x84>
8000c518:	0804f693          	andi	a3,s1,128
8000c51c:	00068a63          	beqz	a3,8000c530 <load_fault_handler+0x150>
8000c520:	ffff6e17          	auipc	t3,0xffff6
8000c524:	81ce0e13          	addi	t3,t3,-2020 # 80001d3c <test_done>
8000c528:	000e0067          	jr	t3
8000c52c:	0040006f          	j	8000c530 <load_fault_handler+0x150>
8000c530:	0014e493          	ori	s1,s1,1
8000c534:	34002e73          	csrr	t3,mscratch
8000c538:	01e00693          	li	a3,30
8000c53c:	00de1e33          	sll	t3,t3,a3
8000c540:	00de5e33          	srl	t3,t3,a3
8000c544:	003e1693          	slli	a3,t3,0x3
8000c548:	00d494b3          	sll	s1,s1,a3
8000c54c:	009c6c33          	or	s8,s8,s1
8000c550:	34002e73          	csrr	t3,mscratch
8000c554:	002e5e13          	srli	t3,t3,0x2
8000c558:	000e0e63          	beqz	t3,8000c574 <load_fault_handler+0x194>
8000c55c:	00100693          	li	a3,1
8000c560:	00de0e63          	beq	t3,a3,8000c57c <load_fault_handler+0x19c>
8000c564:	00200693          	li	a3,2
8000c568:	00de0e63          	beq	t3,a3,8000c584 <load_fault_handler+0x1a4>
8000c56c:	00300693          	li	a3,3
8000c570:	00de0e63          	beq	t3,a3,8000c58c <load_fault_handler+0x1ac>
8000c574:	3a0c1073          	csrw	pmpcfg0,s8
8000c578:	0180006f          	j	8000c590 <load_fault_handler+0x1b0>
8000c57c:	3a1c1073          	csrw	pmpcfg1,s8
8000c580:	0100006f          	j	8000c590 <load_fault_handler+0x1b0>
8000c584:	3a2c1073          	csrw	pmpcfg2,s8
8000c588:	0080006f          	j	8000c590 <load_fault_handler+0x1b0>
8000c58c:	3a3c1073          	csrw	pmpcfg3,s8
8000c590:	00000013          	nop
8000c594:	00432083          	lw	ra,4(t1)
8000c598:	00832103          	lw	sp,8(t1)
8000c59c:	00c32183          	lw	gp,12(t1)
8000c5a0:	01032203          	lw	tp,16(t1)
8000c5a4:	01432283          	lw	t0,20(t1)
8000c5a8:	01832303          	lw	t1,24(t1)
8000c5ac:	01c32383          	lw	t2,28(t1)
8000c5b0:	02032403          	lw	s0,32(t1)
8000c5b4:	02432483          	lw	s1,36(t1)
8000c5b8:	02832503          	lw	a0,40(t1)
8000c5bc:	02c32583          	lw	a1,44(t1)
8000c5c0:	03032603          	lw	a2,48(t1)
8000c5c4:	03432683          	lw	a3,52(t1)
8000c5c8:	03832703          	lw	a4,56(t1)
8000c5cc:	03c32783          	lw	a5,60(t1)
8000c5d0:	04032803          	lw	a6,64(t1)
8000c5d4:	04432883          	lw	a7,68(t1)
8000c5d8:	04832903          	lw	s2,72(t1)
8000c5dc:	04c32983          	lw	s3,76(t1)
8000c5e0:	05032a03          	lw	s4,80(t1)
8000c5e4:	05432a83          	lw	s5,84(t1)
8000c5e8:	05832b03          	lw	s6,88(t1)
8000c5ec:	05c32b83          	lw	s7,92(t1)
8000c5f0:	06032c03          	lw	s8,96(t1)
8000c5f4:	06432c83          	lw	s9,100(t1)
8000c5f8:	06832d03          	lw	s10,104(t1)
8000c5fc:	06c32d83          	lw	s11,108(t1)
8000c600:	07032e03          	lw	t3,112(t1)
8000c604:	07432e83          	lw	t4,116(t1)
8000c608:	07832f03          	lw	t5,120(t1)
8000c60c:	07c32f83          	lw	t6,124(t1)
8000c610:	07c30313          	addi	t1,t1,124
8000c614:	00030b33          	add	s6,t1,zero
8000c618:	34031373          	csrrw	t1,mscratch,t1
8000c61c:	30200073          	mret

8000c620 <store_fault_handler>:
8000c620:	00000e13          	li	t3,0
8000c624:	340e1073          	csrw	mscratch,t3
8000c628:	00000813          	li	a6,0
8000c62c:	34002e73          	csrr	t3,mscratch
8000c630:	000e0693          	mv	a3,t3
8000c634:	00000693          	li	a3,0
8000c638:	00de0263          	beq	t3,a3,8000c63c <store_fault_handler+0x1c>
8000c63c:	3b0022f3          	csrr	t0,pmpaddr0
8000c640:	3a002c73          	csrr	s8,pmpcfg0
8000c644:	0040006f          	j	8000c648 <store_fault_handler+0x28>
8000c648:	00400493          	li	s1,4
8000c64c:	34002e73          	csrr	t3,mscratch
8000c650:	01ee1e13          	slli	t3,t3,0x1e
8000c654:	01ee5e13          	srli	t3,t3,0x1e
8000c658:	41c486b3          	sub	a3,s1,t3
8000c65c:	fff68693          	addi	a3,a3,-1
8000c660:	00369693          	slli	a3,a3,0x3
8000c664:	00dc14b3          	sll	s1,s8,a3
8000c668:	003e1e13          	slli	t3,t3,0x3
8000c66c:	01c686b3          	add	a3,a3,t3
8000c670:	00d4d4b3          	srl	s1,s1,a3
8000c674:	01b49693          	slli	a3,s1,0x1b
8000c678:	01e6d693          	srli	a3,a3,0x1e
8000c67c:	04068863          	beqz	a3,8000c6cc <store_fault_handler+0xac>
8000c680:	00100e13          	li	t3,1
8000c684:	05c68663          	beq	a3,t3,8000c6d0 <store_fault_handler+0xb0>
8000c688:	00200e13          	li	t3,2
8000c68c:	07c68e63          	beq	a3,t3,8000c708 <store_fault_handler+0xe8>
8000c690:	00300e13          	li	t3,3
8000c694:	0bc68063          	beq	a3,t3,8000c734 <store_fault_handler+0x114>
8000c698:	ffff5e17          	auipc	t3,0xffff5
8000c69c:	6a4e0e13          	addi	t3,t3,1700 # 80001d3c <test_done>
8000c6a0:	000e0067          	jr	t3
8000c6a4:	34002e73          	csrr	t3,mscratch
8000c6a8:	00028813          	mv	a6,t0
8000c6ac:	001e0e13          	addi	t3,t3,1
8000c6b0:	340e1073          	csrw	mscratch,t3
8000c6b4:	00100293          	li	t0,1
8000c6b8:	005e5463          	bge	t3,t0,8000c6c0 <store_fault_handler+0xa0>
8000c6bc:	f71ff06f          	j	8000c62c <store_fault_handler+0xc>
8000c6c0:	ffff5e17          	auipc	t3,0xffff5
8000c6c4:	67ce0e13          	addi	t3,t3,1660 # 80001d3c <test_done>
8000c6c8:	000e0067          	jr	t3
8000c6cc:	fd9ff06f          	j	8000c6a4 <store_fault_handler+0x84>
8000c6d0:	34002e73          	csrr	t3,mscratch
8000c6d4:	343026f3          	csrr	a3,mtval
8000c6d8:	0026d693          	srli	a3,a3,0x2
8000c6dc:	000e1663          	bnez	t3,8000c6e8 <store_fault_handler+0xc8>
8000c6e0:	fc06c2e3          	bltz	a3,8000c6a4 <store_fault_handler+0x84>
8000c6e4:	0080006f          	j	8000c6ec <store_fault_handler+0xcc>
8000c6e8:	fb06eee3          	bltu	a3,a6,8000c6a4 <store_fault_handler+0x84>
8000c6ec:	fa56fce3          	bgeu	a3,t0,8000c6a4 <store_fault_handler+0x84>
8000c6f0:	0804f693          	andi	a3,s1,128
8000c6f4:	00068863          	beqz	a3,8000c704 <store_fault_handler+0xe4>
8000c6f8:	ffff5e17          	auipc	t3,0xffff5
8000c6fc:	644e0e13          	addi	t3,t3,1604 # 80001d3c <test_done>
8000c700:	000e0067          	jr	t3
8000c704:	06c0006f          	j	8000c770 <store_fault_handler+0x150>
8000c708:	34302e73          	csrr	t3,mtval
8000c70c:	002e5e13          	srli	t3,t3,0x2
8000c710:	00229693          	slli	a3,t0,0x2
8000c714:	0026d693          	srli	a3,a3,0x2
8000c718:	f8de16e3          	bne	t3,a3,8000c6a4 <store_fault_handler+0x84>
8000c71c:	0804f693          	andi	a3,s1,128
8000c720:	00068863          	beqz	a3,8000c730 <store_fault_handler+0x110>
8000c724:	ffff5e17          	auipc	t3,0xffff5
8000c728:	618e0e13          	addi	t3,t3,1560 # 80001d3c <test_done>
8000c72c:	000e0067          	jr	t3
8000c730:	0400006f          	j	8000c770 <store_fault_handler+0x150>
8000c734:	34302e73          	csrr	t3,mtval
8000c738:	002e5e13          	srli	t3,t3,0x2
8000c73c:	000e5e13          	srli	t3,t3,0x0
8000c740:	000e1e13          	slli	t3,t3,0x0
8000c744:	00229693          	slli	a3,t0,0x2
8000c748:	0026d693          	srli	a3,a3,0x2
8000c74c:	0006d693          	srli	a3,a3,0x0
8000c750:	00069693          	slli	a3,a3,0x0
8000c754:	f4de18e3          	bne	t3,a3,8000c6a4 <store_fault_handler+0x84>
8000c758:	0804f693          	andi	a3,s1,128
8000c75c:	00068a63          	beqz	a3,8000c770 <store_fault_handler+0x150>
8000c760:	ffff5e17          	auipc	t3,0xffff5
8000c764:	5dce0e13          	addi	t3,t3,1500 # 80001d3c <test_done>
8000c768:	000e0067          	jr	t3
8000c76c:	0040006f          	j	8000c770 <store_fault_handler+0x150>
8000c770:	0034e493          	ori	s1,s1,3
8000c774:	34002e73          	csrr	t3,mscratch
8000c778:	01e00693          	li	a3,30
8000c77c:	00de1e33          	sll	t3,t3,a3
8000c780:	00de5e33          	srl	t3,t3,a3
8000c784:	003e1693          	slli	a3,t3,0x3
8000c788:	00d494b3          	sll	s1,s1,a3
8000c78c:	009c6c33          	or	s8,s8,s1
8000c790:	34002e73          	csrr	t3,mscratch
8000c794:	002e5e13          	srli	t3,t3,0x2
8000c798:	000e0e63          	beqz	t3,8000c7b4 <store_fault_handler+0x194>
8000c79c:	00100693          	li	a3,1
8000c7a0:	00de0e63          	beq	t3,a3,8000c7bc <store_fault_handler+0x19c>
8000c7a4:	00200693          	li	a3,2
8000c7a8:	00de0e63          	beq	t3,a3,8000c7c4 <store_fault_handler+0x1a4>
8000c7ac:	00300693          	li	a3,3
8000c7b0:	00de0e63          	beq	t3,a3,8000c7cc <store_fault_handler+0x1ac>
8000c7b4:	3a0c1073          	csrw	pmpcfg0,s8
8000c7b8:	0180006f          	j	8000c7d0 <store_fault_handler+0x1b0>
8000c7bc:	3a1c1073          	csrw	pmpcfg1,s8
8000c7c0:	0100006f          	j	8000c7d0 <store_fault_handler+0x1b0>
8000c7c4:	3a2c1073          	csrw	pmpcfg2,s8
8000c7c8:	0080006f          	j	8000c7d0 <store_fault_handler+0x1b0>
8000c7cc:	3a3c1073          	csrw	pmpcfg3,s8
8000c7d0:	00000013          	nop
8000c7d4:	00432083          	lw	ra,4(t1)
8000c7d8:	00832103          	lw	sp,8(t1)
8000c7dc:	00c32183          	lw	gp,12(t1)
8000c7e0:	01032203          	lw	tp,16(t1)
8000c7e4:	01432283          	lw	t0,20(t1)
8000c7e8:	01832303          	lw	t1,24(t1)
8000c7ec:	01c32383          	lw	t2,28(t1)
8000c7f0:	02032403          	lw	s0,32(t1)
8000c7f4:	02432483          	lw	s1,36(t1)
8000c7f8:	02832503          	lw	a0,40(t1)
8000c7fc:	02c32583          	lw	a1,44(t1)
8000c800:	03032603          	lw	a2,48(t1)
8000c804:	03432683          	lw	a3,52(t1)
8000c808:	03832703          	lw	a4,56(t1)
8000c80c:	03c32783          	lw	a5,60(t1)
8000c810:	04032803          	lw	a6,64(t1)
8000c814:	04432883          	lw	a7,68(t1)
8000c818:	04832903          	lw	s2,72(t1)
8000c81c:	04c32983          	lw	s3,76(t1)
8000c820:	05032a03          	lw	s4,80(t1)
8000c824:	05432a83          	lw	s5,84(t1)
8000c828:	05832b03          	lw	s6,88(t1)
8000c82c:	05c32b83          	lw	s7,92(t1)
8000c830:	06032c03          	lw	s8,96(t1)
8000c834:	06432c83          	lw	s9,100(t1)
8000c838:	06832d03          	lw	s10,104(t1)
8000c83c:	06c32d83          	lw	s11,108(t1)
8000c840:	07032e03          	lw	t3,112(t1)
8000c844:	07432e83          	lw	t4,116(t1)
8000c848:	07832f03          	lw	t5,120(t1)
8000c84c:	07c32f83          	lw	t6,124(t1)
8000c850:	07c30313          	addi	t1,t1,124
8000c854:	00030b33          	add	s6,t1,zero
8000c858:	34031373          	csrrw	t1,mscratch,t1
8000c85c:	30200073          	mret

8000c860 <ebreak_handler>:
8000c860:	34102e73          	csrr	t3,mepc
8000c864:	004e0e13          	addi	t3,t3,4
8000c868:	341e1073          	csrw	mepc,t3
8000c86c:	00432083          	lw	ra,4(t1)
8000c870:	00832103          	lw	sp,8(t1)
8000c874:	00c32183          	lw	gp,12(t1)
8000c878:	01032203          	lw	tp,16(t1)
8000c87c:	01432283          	lw	t0,20(t1)
8000c880:	01832303          	lw	t1,24(t1)
8000c884:	01c32383          	lw	t2,28(t1)
8000c888:	02032403          	lw	s0,32(t1)
8000c88c:	02432483          	lw	s1,36(t1)
8000c890:	02832503          	lw	a0,40(t1)
8000c894:	02c32583          	lw	a1,44(t1)
8000c898:	03032603          	lw	a2,48(t1)
8000c89c:	03432683          	lw	a3,52(t1)
8000c8a0:	03832703          	lw	a4,56(t1)
8000c8a4:	03c32783          	lw	a5,60(t1)
8000c8a8:	04032803          	lw	a6,64(t1)
8000c8ac:	04432883          	lw	a7,68(t1)
8000c8b0:	04832903          	lw	s2,72(t1)
8000c8b4:	04c32983          	lw	s3,76(t1)
8000c8b8:	05032a03          	lw	s4,80(t1)
8000c8bc:	05432a83          	lw	s5,84(t1)
8000c8c0:	05832b03          	lw	s6,88(t1)
8000c8c4:	05c32b83          	lw	s7,92(t1)
8000c8c8:	06032c03          	lw	s8,96(t1)
8000c8cc:	06432c83          	lw	s9,100(t1)
8000c8d0:	06832d03          	lw	s10,104(t1)
8000c8d4:	06c32d83          	lw	s11,108(t1)
8000c8d8:	07032e03          	lw	t3,112(t1)
8000c8dc:	07432e83          	lw	t4,116(t1)
8000c8e0:	07832f03          	lw	t5,120(t1)
8000c8e4:	07c32f83          	lw	t6,124(t1)
8000c8e8:	07c30313          	addi	t1,t1,124
8000c8ec:	00030b33          	add	s6,t1,zero
8000c8f0:	34031373          	csrrw	t1,mscratch,t1
8000c8f4:	30200073          	mret

8000c8f8 <illegal_instr_handler>:
8000c8f8:	34102e73          	csrr	t3,mepc
8000c8fc:	004e0e13          	addi	t3,t3,4
8000c900:	341e1073          	csrw	mepc,t3
8000c904:	00432083          	lw	ra,4(t1)
8000c908:	00832103          	lw	sp,8(t1)
8000c90c:	00c32183          	lw	gp,12(t1)
8000c910:	01032203          	lw	tp,16(t1)
8000c914:	01432283          	lw	t0,20(t1)
8000c918:	01832303          	lw	t1,24(t1)
8000c91c:	01c32383          	lw	t2,28(t1)
8000c920:	02032403          	lw	s0,32(t1)
8000c924:	02432483          	lw	s1,36(t1)
8000c928:	02832503          	lw	a0,40(t1)
8000c92c:	02c32583          	lw	a1,44(t1)
8000c930:	03032603          	lw	a2,48(t1)
8000c934:	03432683          	lw	a3,52(t1)
8000c938:	03832703          	lw	a4,56(t1)
8000c93c:	03c32783          	lw	a5,60(t1)
8000c940:	04032803          	lw	a6,64(t1)
8000c944:	04432883          	lw	a7,68(t1)
8000c948:	04832903          	lw	s2,72(t1)
8000c94c:	04c32983          	lw	s3,76(t1)
8000c950:	05032a03          	lw	s4,80(t1)
8000c954:	05432a83          	lw	s5,84(t1)
8000c958:	05832b03          	lw	s6,88(t1)
8000c95c:	05c32b83          	lw	s7,92(t1)
8000c960:	06032c03          	lw	s8,96(t1)
8000c964:	06432c83          	lw	s9,100(t1)
8000c968:	06832d03          	lw	s10,104(t1)
8000c96c:	06c32d83          	lw	s11,108(t1)
8000c970:	07032e03          	lw	t3,112(t1)
8000c974:	07432e83          	lw	t4,116(t1)
8000c978:	07832f03          	lw	t5,120(t1)
8000c97c:	07c32f83          	lw	t6,124(t1)
8000c980:	07c30313          	addi	t1,t1,124
8000c984:	00030b33          	add	s6,t1,zero
8000c988:	34031373          	csrrw	t1,mscratch,t1
8000c98c:	30200073          	mret

8000c990 <pt_fault_handler>:
8000c990:	12000073          	sfence.vma
8000c994:	00100093          	li	ra,1
8000c998:	00100e37          	lui	t3,0x100
8000c99c:	fffe0e13          	addi	t3,t3,-1 # fffff <_start-0x7ff00001>
8000c9a0:	343023f3          	csrr	t2,mtval
8000c9a4:	00c3d393          	srli	t2,t2,0xc
8000c9a8:	00c39393          	slli	t2,t2,0xc
8000c9ac:	00002a17          	auipc	s4,0x2
8000c9b0:	654a0a13          	addi	s4,s4,1620 # 8000f000 <page_table_0>

8000c9b4 <fix_pte>:
8000c9b4:	0163da93          	srli	s5,t2,0x16
8000c9b8:	002a9a93          	slli	s5,s5,0x2
8000c9bc:	015a0a33          	add	s4,s4,s5
8000c9c0:	000a2183          	lw	gp,0(s4)
8000c9c4:	01c19a93          	slli	s5,gp,0x1c
8000c9c8:	01dada93          	srli	s5,s5,0x1d
8000c9cc:	03501a63          	bne	zero,s5,8000ca00 <fix_leaf_pte>
8000c9d0:	02100863          	beq	zero,ra,8000ca00 <fix_leaf_pte>
8000c9d4:	00a1d193          	srli	gp,gp,0xa
8000c9d8:	00a19193          	slli	gp,gp,0xa
8000c9dc:	0f100a93          	li	s5,241
8000c9e0:	0151e1b3          	or	gp,gp,s5
8000c9e4:	003a2023          	sw	gp,0(s4)
8000c9e8:	00a1da13          	srli	s4,gp,0xa
8000c9ec:	00ca1a13          	slli	s4,s4,0xc
8000c9f0:	00a39393          	slli	t2,t2,0xa
8000c9f4:	fff08093          	addi	ra,ra,-1
8000c9f8:	00ae5e13          	srli	t3,t3,0xa
8000c9fc:	fb9ff06f          	j	8000c9b4 <fix_pte>

8000ca00 <fix_leaf_pte>:
8000ca00:	fffe4e13          	not	t3,t3
8000ca04:	01c1f1b3          	and	gp,gp,t3
8000ca08:	0ff00a93          	li	s5,255
8000ca0c:	0151e1b3          	or	gp,gp,s5
8000ca10:	003a2023          	sw	gp,0(s4)
8000ca14:	0040006f          	j	8000ca18 <fix_kernel_leaf_pte>

8000ca18 <fix_kernel_leaf_pte>:
8000ca18:	0001ea97          	auipc	s5,0x1e
8000ca1c:	5e8a8a93          	addi	s5,s5,1512 # 8002b000 <kernel_instr_start>
8000ca20:	002a9a93          	slli	s5,s5,0x2
8000ca24:	002ada93          	srli	s5,s5,0x2
8000ca28:	343023f3          	csrr	t2,mtval
8000ca2c:	007afa63          	bgeu	s5,t2,8000ca40 <fix_pte_done>
8000ca30:	01000a93          	li	s5,16
8000ca34:	fffaca93          	not	s5,s5
8000ca38:	003af1b3          	and	gp,s5,gp
8000ca3c:	003a2023          	sw	gp,0(s4)

8000ca40 <fix_pte_done>:
8000ca40:	12000073          	sfence.vma
8000ca44:	01ef1f13          	slli	t5,t5,0x1e
8000ca48:	020f0e63          	beqz	t5,8000ca84 <fix_pte_ret>
8000ca4c:	01ef9f93          	slli	t6,t6,0x1e
8000ca50:	000f0c63          	beqz	t5,8000ca68 <check_mprv>
8000ca54:	30002af3          	csrr	s5,mstatus
8000ca58:	00020e37          	lui	t3,0x20
8000ca5c:	fffe4e13          	not	t3,t3
8000ca60:	01caea93          	ori	s5,s5,28
8000ca64:	300a9af3          	csrrw	s5,mstatus,s5

8000ca68 <check_mprv>:
8000ca68:	00020e37          	lui	t3,0x20
8000ca6c:	30002af3          	csrr	s5,mstatus
8000ca70:	01cafab3          	and	s5,s5,t3
8000ca74:	000a8663          	beqz	s5,8000ca80 <j_smode>
8000ca78:	b0cfe0ef          	jal	ra,8000ad84 <smode_lsu_program>
8000ca7c:	0080006f          	j	8000ca84 <fix_pte_ret>

8000ca80 <j_smode>:
8000ca80:	c65fd0ef          	jal	ra,8000a6e4 <smode_program>

8000ca84 <fix_pte_ret>:
8000ca84:	00432083          	lw	ra,4(t1)
8000ca88:	00832103          	lw	sp,8(t1)
8000ca8c:	00c32183          	lw	gp,12(t1)
8000ca90:	01032203          	lw	tp,16(t1)
8000ca94:	01432283          	lw	t0,20(t1)
8000ca98:	01832303          	lw	t1,24(t1)
8000ca9c:	01c32383          	lw	t2,28(t1)
8000caa0:	02032403          	lw	s0,32(t1)
8000caa4:	02432483          	lw	s1,36(t1)
8000caa8:	02832503          	lw	a0,40(t1)
8000caac:	02c32583          	lw	a1,44(t1)
8000cab0:	03032603          	lw	a2,48(t1)
8000cab4:	03432683          	lw	a3,52(t1)
8000cab8:	03832703          	lw	a4,56(t1)
8000cabc:	03c32783          	lw	a5,60(t1)
8000cac0:	04032803          	lw	a6,64(t1)
8000cac4:	04432883          	lw	a7,68(t1)
8000cac8:	04832903          	lw	s2,72(t1)
8000cacc:	04c32983          	lw	s3,76(t1)
8000cad0:	05032a03          	lw	s4,80(t1)
8000cad4:	05432a83          	lw	s5,84(t1)
8000cad8:	05832b03          	lw	s6,88(t1)
8000cadc:	05c32b83          	lw	s7,92(t1)
8000cae0:	06032c03          	lw	s8,96(t1)
8000cae4:	06432c83          	lw	s9,100(t1)
8000cae8:	06832d03          	lw	s10,104(t1)
8000caec:	06c32d83          	lw	s11,108(t1)
8000caf0:	07032e03          	lw	t3,112(t1)
8000caf4:	07432e83          	lw	t4,116(t1)
8000caf8:	07832f03          	lw	t5,120(t1)
8000cafc:	07c32f83          	lw	t6,124(t1)
8000cb00:	07c30313          	addi	t1,t1,124
8000cb04:	00030b33          	add	s6,t1,zero
8000cb08:	34031373          	csrrw	t1,mscratch,t1
8000cb0c:	30200073          	mret
8000cb10:	00000013          	nop
8000cb14:	00000013          	nop
8000cb18:	00000013          	nop
8000cb1c:	00000013          	nop
8000cb20:	00000013          	nop
8000cb24:	00000013          	nop
8000cb28:	00000013          	nop
8000cb2c:	00000013          	nop
8000cb30:	00000013          	nop
8000cb34:	00000013          	nop
8000cb38:	00000013          	nop
8000cb3c:	00000013          	nop
8000cb40:	00000013          	nop
8000cb44:	00000013          	nop
8000cb48:	00000013          	nop
8000cb4c:	00000013          	nop
8000cb50:	00000013          	nop
8000cb54:	00000013          	nop
8000cb58:	00000013          	nop
8000cb5c:	00000013          	nop
8000cb60:	00000013          	nop
8000cb64:	00000013          	nop
8000cb68:	00000013          	nop
8000cb6c:	00000013          	nop
8000cb70:	00000013          	nop
8000cb74:	00000013          	nop
8000cb78:	00000013          	nop
8000cb7c:	00000013          	nop
8000cb80:	00000013          	nop
8000cb84:	00000013          	nop
8000cb88:	00000013          	nop
8000cb8c:	00000013          	nop
8000cb90:	00000013          	nop
8000cb94:	00000013          	nop
8000cb98:	00000013          	nop
8000cb9c:	00000013          	nop
8000cba0:	00000013          	nop
8000cba4:	00000013          	nop
8000cba8:	00000013          	nop
8000cbac:	00000013          	nop
8000cbb0:	00000013          	nop
8000cbb4:	00000013          	nop
8000cbb8:	00000013          	nop
8000cbbc:	00000013          	nop
8000cbc0:	00000013          	nop
8000cbc4:	00000013          	nop
8000cbc8:	00000013          	nop
8000cbcc:	00000013          	nop
8000cbd0:	00000013          	nop
8000cbd4:	00000013          	nop
8000cbd8:	00000013          	nop
8000cbdc:	00000013          	nop
8000cbe0:	00000013          	nop
8000cbe4:	00000013          	nop
8000cbe8:	00000013          	nop
8000cbec:	00000013          	nop
8000cbf0:	00000013          	nop
8000cbf4:	00000013          	nop
8000cbf8:	00000013          	nop
8000cbfc:	00000013          	nop
8000cc00:	00000013          	nop
8000cc04:	00000013          	nop
8000cc08:	00000013          	nop
8000cc0c:	00000013          	nop
8000cc10:	00000013          	nop
8000cc14:	00000013          	nop
8000cc18:	00000013          	nop
8000cc1c:	00000013          	nop
8000cc20:	00000013          	nop
8000cc24:	00000013          	nop
8000cc28:	00000013          	nop
8000cc2c:	00000013          	nop
8000cc30:	00000013          	nop
8000cc34:	00000013          	nop
8000cc38:	00000013          	nop
8000cc3c:	00000013          	nop
8000cc40:	00000013          	nop
8000cc44:	00000013          	nop
8000cc48:	00000013          	nop
8000cc4c:	00000013          	nop
8000cc50:	00000013          	nop
8000cc54:	00000013          	nop
8000cc58:	00000013          	nop
8000cc5c:	00000013          	nop
8000cc60:	00000013          	nop
8000cc64:	00000013          	nop
8000cc68:	00000013          	nop
8000cc6c:	00000013          	nop
8000cc70:	00000013          	nop
8000cc74:	00000013          	nop
8000cc78:	00000013          	nop
8000cc7c:	00000013          	nop
8000cc80:	00000013          	nop
8000cc84:	00000013          	nop
8000cc88:	00000013          	nop
8000cc8c:	00000013          	nop
8000cc90:	00000013          	nop
8000cc94:	00000013          	nop
8000cc98:	00000013          	nop
8000cc9c:	00000013          	nop
8000cca0:	00000013          	nop
8000cca4:	00000013          	nop
8000cca8:	00000013          	nop
8000ccac:	00000013          	nop
8000ccb0:	00000013          	nop
8000ccb4:	00000013          	nop
8000ccb8:	00000013          	nop
8000ccbc:	00000013          	nop
8000ccc0:	00000013          	nop
8000ccc4:	00000013          	nop
8000ccc8:	00000013          	nop
8000cccc:	00000013          	nop
8000ccd0:	00000013          	nop
8000ccd4:	00000013          	nop
8000ccd8:	00000013          	nop
8000ccdc:	00000013          	nop
8000cce0:	00000013          	nop
8000cce4:	00000013          	nop
8000cce8:	00000013          	nop
8000ccec:	00000013          	nop
8000ccf0:	00000013          	nop
8000ccf4:	00000013          	nop
8000ccf8:	00000013          	nop
8000ccfc:	00000013          	nop
8000cd00:	00000013          	nop
8000cd04:	00000013          	nop
8000cd08:	00000013          	nop
8000cd0c:	00000013          	nop
8000cd10:	00000013          	nop
8000cd14:	00000013          	nop
8000cd18:	00000013          	nop
8000cd1c:	00000013          	nop
8000cd20:	00000013          	nop
8000cd24:	00000013          	nop
8000cd28:	00000013          	nop
8000cd2c:	00000013          	nop
8000cd30:	00000013          	nop
8000cd34:	00000013          	nop
8000cd38:	00000013          	nop
8000cd3c:	00000013          	nop
8000cd40:	00000013          	nop
8000cd44:	00000013          	nop
8000cd48:	00000013          	nop
8000cd4c:	00000013          	nop
8000cd50:	00000013          	nop
8000cd54:	00000013          	nop
8000cd58:	00000013          	nop
8000cd5c:	00000013          	nop
8000cd60:	00000013          	nop
8000cd64:	00000013          	nop
8000cd68:	00000013          	nop
8000cd6c:	00000013          	nop
8000cd70:	00000013          	nop
8000cd74:	00000013          	nop
8000cd78:	00000013          	nop
8000cd7c:	00000013          	nop
8000cd80:	00000013          	nop
8000cd84:	00000013          	nop
8000cd88:	00000013          	nop
8000cd8c:	00000013          	nop
8000cd90:	00000013          	nop
8000cd94:	00000013          	nop
8000cd98:	00000013          	nop
8000cd9c:	00000013          	nop
8000cda0:	00000013          	nop
8000cda4:	00000013          	nop
8000cda8:	00000013          	nop
8000cdac:	00000013          	nop
8000cdb0:	00000013          	nop
8000cdb4:	00000013          	nop
8000cdb8:	00000013          	nop
8000cdbc:	00000013          	nop
8000cdc0:	00000013          	nop
8000cdc4:	00000013          	nop
8000cdc8:	00000013          	nop
8000cdcc:	00000013          	nop
8000cdd0:	00000013          	nop
8000cdd4:	00000013          	nop
8000cdd8:	00000013          	nop
8000cddc:	00000013          	nop
8000cde0:	00000013          	nop
8000cde4:	00000013          	nop
8000cde8:	00000013          	nop
8000cdec:	00000013          	nop
8000cdf0:	00000013          	nop
8000cdf4:	00000013          	nop
8000cdf8:	00000013          	nop
8000cdfc:	00000013          	nop
8000ce00:	00000013          	nop
8000ce04:	00000013          	nop
8000ce08:	00000013          	nop
8000ce0c:	00000013          	nop
8000ce10:	00000013          	nop
8000ce14:	00000013          	nop
8000ce18:	00000013          	nop
8000ce1c:	00000013          	nop
8000ce20:	00000013          	nop
8000ce24:	00000013          	nop
8000ce28:	00000013          	nop
8000ce2c:	00000013          	nop
8000ce30:	00000013          	nop
8000ce34:	00000013          	nop
8000ce38:	00000013          	nop
8000ce3c:	00000013          	nop
8000ce40:	00000013          	nop
8000ce44:	00000013          	nop
8000ce48:	00000013          	nop
8000ce4c:	00000013          	nop
8000ce50:	00000013          	nop
8000ce54:	00000013          	nop
8000ce58:	00000013          	nop
8000ce5c:	00000013          	nop
8000ce60:	00000013          	nop
8000ce64:	00000013          	nop
8000ce68:	00000013          	nop
8000ce6c:	00000013          	nop
8000ce70:	00000013          	nop
8000ce74:	00000013          	nop
8000ce78:	00000013          	nop
8000ce7c:	00000013          	nop
8000ce80:	00000013          	nop
8000ce84:	00000013          	nop
8000ce88:	00000013          	nop
8000ce8c:	00000013          	nop
8000ce90:	00000013          	nop
8000ce94:	00000013          	nop
8000ce98:	00000013          	nop
8000ce9c:	00000013          	nop
8000cea0:	00000013          	nop
8000cea4:	00000013          	nop
8000cea8:	00000013          	nop
8000ceac:	00000013          	nop
8000ceb0:	00000013          	nop
8000ceb4:	00000013          	nop
8000ceb8:	00000013          	nop
8000cebc:	00000013          	nop
8000cec0:	00000013          	nop
8000cec4:	00000013          	nop
8000cec8:	00000013          	nop
8000cecc:	00000013          	nop
8000ced0:	00000013          	nop
8000ced4:	00000013          	nop
8000ced8:	00000013          	nop
8000cedc:	00000013          	nop
8000cee0:	00000013          	nop
8000cee4:	00000013          	nop
8000cee8:	00000013          	nop
8000ceec:	00000013          	nop
8000cef0:	00000013          	nop
8000cef4:	00000013          	nop
8000cef8:	00000013          	nop
8000cefc:	00000013          	nop
8000cf00:	00000013          	nop
8000cf04:	00000013          	nop
8000cf08:	00000013          	nop
8000cf0c:	00000013          	nop
8000cf10:	00000013          	nop
8000cf14:	00000013          	nop
8000cf18:	00000013          	nop
8000cf1c:	00000013          	nop
8000cf20:	00000013          	nop
8000cf24:	00000013          	nop
8000cf28:	00000013          	nop
8000cf2c:	00000013          	nop
8000cf30:	00000013          	nop
8000cf34:	00000013          	nop
8000cf38:	00000013          	nop
8000cf3c:	00000013          	nop
8000cf40:	00000013          	nop
8000cf44:	00000013          	nop
8000cf48:	00000013          	nop
8000cf4c:	00000013          	nop
8000cf50:	00000013          	nop
8000cf54:	00000013          	nop
8000cf58:	00000013          	nop
8000cf5c:	00000013          	nop
8000cf60:	00000013          	nop
8000cf64:	00000013          	nop
8000cf68:	00000013          	nop
8000cf6c:	00000013          	nop
8000cf70:	00000013          	nop
8000cf74:	00000013          	nop
8000cf78:	00000013          	nop
8000cf7c:	00000013          	nop
8000cf80:	00000013          	nop
8000cf84:	00000013          	nop
8000cf88:	00000013          	nop
8000cf8c:	00000013          	nop
8000cf90:	00000013          	nop
8000cf94:	00000013          	nop
8000cf98:	00000013          	nop
8000cf9c:	00000013          	nop
8000cfa0:	00000013          	nop
8000cfa4:	00000013          	nop
8000cfa8:	00000013          	nop
8000cfac:	00000013          	nop
8000cfb0:	00000013          	nop
8000cfb4:	00000013          	nop
8000cfb8:	00000013          	nop
8000cfbc:	00000013          	nop
8000cfc0:	00000013          	nop
8000cfc4:	00000013          	nop
8000cfc8:	00000013          	nop
8000cfcc:	00000013          	nop
8000cfd0:	00000013          	nop
8000cfd4:	00000013          	nop
8000cfd8:	00000013          	nop
8000cfdc:	00000013          	nop
8000cfe0:	00000013          	nop
8000cfe4:	00000013          	nop
8000cfe8:	00000013          	nop
8000cfec:	00000013          	nop
8000cff0:	00000013          	nop
8000cff4:	00000013          	nop
8000cff8:	00000013          	nop
8000cffc:	00000013          	nop

8000d000 <mmode_intr_handler>:
8000d000:	30002e73          	csrr	t3,mstatus
8000d004:	30402e73          	csrr	t3,mie
8000d008:	34402e73          	csrr	t3,mip
8000d00c:	344e3e73          	csrrc	t3,mip,t3
8000d010:	00432083          	lw	ra,4(t1)
8000d014:	00832103          	lw	sp,8(t1)
8000d018:	00c32183          	lw	gp,12(t1)
8000d01c:	01032203          	lw	tp,16(t1)
8000d020:	01432283          	lw	t0,20(t1)
8000d024:	01832303          	lw	t1,24(t1)
8000d028:	01c32383          	lw	t2,28(t1)
8000d02c:	02032403          	lw	s0,32(t1)
8000d030:	02432483          	lw	s1,36(t1)
8000d034:	02832503          	lw	a0,40(t1)
8000d038:	02c32583          	lw	a1,44(t1)
8000d03c:	03032603          	lw	a2,48(t1)
8000d040:	03432683          	lw	a3,52(t1)
8000d044:	03832703          	lw	a4,56(t1)
8000d048:	03c32783          	lw	a5,60(t1)
8000d04c:	04032803          	lw	a6,64(t1)
8000d050:	04432883          	lw	a7,68(t1)
8000d054:	04832903          	lw	s2,72(t1)
8000d058:	04c32983          	lw	s3,76(t1)
8000d05c:	05032a03          	lw	s4,80(t1)
8000d060:	05432a83          	lw	s5,84(t1)
8000d064:	05832b03          	lw	s6,88(t1)
8000d068:	05c32b83          	lw	s7,92(t1)
8000d06c:	06032c03          	lw	s8,96(t1)
8000d070:	06432c83          	lw	s9,100(t1)
8000d074:	06832d03          	lw	s10,104(t1)
8000d078:	06c32d83          	lw	s11,108(t1)
8000d07c:	07032e03          	lw	t3,112(t1)
8000d080:	07432e83          	lw	t4,116(t1)
8000d084:	07832f03          	lw	t5,120(t1)
8000d088:	07c32f83          	lw	t6,124(t1)
8000d08c:	07c30313          	addi	t1,t1,124
8000d090:	00030b33          	add	s6,t1,zero
8000d094:	34031373          	csrrw	t1,mscratch,t1
8000d098:	30200073          	mret

8000d09c <kernel_instr_end>:
8000d09c:	00000013          	nop
8000d0a0:	00000013          	nop
8000d0a4:	00000013          	nop
8000d0a8:	00000013          	nop
8000d0ac:	00000013          	nop
8000d0b0:	00000013          	nop
8000d0b4:	00000013          	nop
8000d0b8:	00000013          	nop
8000d0bc:	00000013          	nop
8000d0c0:	00000013          	nop
8000d0c4:	00000013          	nop
8000d0c8:	00000013          	nop
8000d0cc:	00000013          	nop
8000d0d0:	00000013          	nop
8000d0d4:	00000013          	nop
8000d0d8:	00000013          	nop
8000d0dc:	00000013          	nop
8000d0e0:	00000013          	nop
8000d0e4:	00000013          	nop
8000d0e8:	00000013          	nop
8000d0ec:	00000013          	nop
8000d0f0:	00000013          	nop
8000d0f4:	00000013          	nop
8000d0f8:	00000013          	nop
8000d0fc:	00000013          	nop
8000d100:	00000013          	nop
8000d104:	00000013          	nop
8000d108:	00000013          	nop
8000d10c:	00000013          	nop
8000d110:	00000013          	nop
8000d114:	00000013          	nop
8000d118:	00000013          	nop
8000d11c:	00000013          	nop
8000d120:	00000013          	nop
8000d124:	00000013          	nop
8000d128:	00000013          	nop
8000d12c:	00000013          	nop
8000d130:	00000013          	nop
8000d134:	00000013          	nop
8000d138:	00000013          	nop
8000d13c:	00000013          	nop
8000d140:	00000013          	nop
8000d144:	00000013          	nop
8000d148:	00000013          	nop
8000d14c:	00000013          	nop
8000d150:	00000013          	nop
8000d154:	00000013          	nop
8000d158:	00000013          	nop
8000d15c:	00000013          	nop
8000d160:	00000013          	nop
8000d164:	00000013          	nop
8000d168:	00000013          	nop
8000d16c:	00000013          	nop
8000d170:	00000013          	nop
8000d174:	00000013          	nop
8000d178:	00000013          	nop
8000d17c:	00000013          	nop
8000d180:	00000013          	nop
8000d184:	00000013          	nop
8000d188:	00000013          	nop
8000d18c:	00000013          	nop
8000d190:	00000013          	nop
8000d194:	00000013          	nop
8000d198:	00000013          	nop
8000d19c:	00000013          	nop
8000d1a0:	00000013          	nop
8000d1a4:	00000013          	nop
8000d1a8:	00000013          	nop
8000d1ac:	00000013          	nop
8000d1b0:	00000013          	nop
8000d1b4:	00000013          	nop
8000d1b8:	00000013          	nop
8000d1bc:	00000013          	nop
8000d1c0:	00000013          	nop
8000d1c4:	00000013          	nop
8000d1c8:	00000013          	nop
8000d1cc:	00000013          	nop
8000d1d0:	00000013          	nop
8000d1d4:	00000013          	nop
8000d1d8:	00000013          	nop
8000d1dc:	00000013          	nop
8000d1e0:	00000013          	nop
8000d1e4:	00000013          	nop
8000d1e8:	00000013          	nop
8000d1ec:	00000013          	nop
8000d1f0:	00000013          	nop
8000d1f4:	00000013          	nop
8000d1f8:	00000013          	nop
8000d1fc:	00000013          	nop
8000d200:	00000013          	nop
8000d204:	00000013          	nop
8000d208:	00000013          	nop
8000d20c:	00000013          	nop
8000d210:	00000013          	nop
8000d214:	00000013          	nop
8000d218:	00000013          	nop
8000d21c:	00000013          	nop
8000d220:	00000013          	nop
8000d224:	00000013          	nop
8000d228:	00000013          	nop
8000d22c:	00000013          	nop
8000d230:	00000013          	nop
8000d234:	00000013          	nop
8000d238:	00000013          	nop
8000d23c:	00000013          	nop
8000d240:	00000013          	nop
8000d244:	00000013          	nop
8000d248:	00000013          	nop
8000d24c:	00000013          	nop
8000d250:	00000013          	nop
8000d254:	00000013          	nop
8000d258:	00000013          	nop
8000d25c:	00000013          	nop
8000d260:	00000013          	nop
8000d264:	00000013          	nop
8000d268:	00000013          	nop
8000d26c:	00000013          	nop
8000d270:	00000013          	nop
8000d274:	00000013          	nop
8000d278:	00000013          	nop
8000d27c:	00000013          	nop
8000d280:	00000013          	nop
8000d284:	00000013          	nop
8000d288:	00000013          	nop
8000d28c:	00000013          	nop
8000d290:	00000013          	nop
8000d294:	00000013          	nop
8000d298:	00000013          	nop
8000d29c:	00000013          	nop
8000d2a0:	00000013          	nop
8000d2a4:	00000013          	nop
8000d2a8:	00000013          	nop
8000d2ac:	00000013          	nop
8000d2b0:	00000013          	nop
8000d2b4:	00000013          	nop
8000d2b8:	00000013          	nop
8000d2bc:	00000013          	nop
8000d2c0:	00000013          	nop
8000d2c4:	00000013          	nop
8000d2c8:	00000013          	nop
8000d2cc:	00000013          	nop
8000d2d0:	00000013          	nop
8000d2d4:	00000013          	nop
8000d2d8:	00000013          	nop
8000d2dc:	00000013          	nop
8000d2e0:	00000013          	nop
8000d2e4:	00000013          	nop
8000d2e8:	00000013          	nop
8000d2ec:	00000013          	nop
8000d2f0:	00000013          	nop
8000d2f4:	00000013          	nop
8000d2f8:	00000013          	nop
8000d2fc:	00000013          	nop
8000d300:	00000013          	nop
8000d304:	00000013          	nop
8000d308:	00000013          	nop
8000d30c:	00000013          	nop
8000d310:	00000013          	nop
8000d314:	00000013          	nop
8000d318:	00000013          	nop
8000d31c:	00000013          	nop
8000d320:	00000013          	nop
8000d324:	00000013          	nop
8000d328:	00000013          	nop
8000d32c:	00000013          	nop
8000d330:	00000013          	nop
8000d334:	00000013          	nop
8000d338:	00000013          	nop
8000d33c:	00000013          	nop
8000d340:	00000013          	nop
8000d344:	00000013          	nop
8000d348:	00000013          	nop
8000d34c:	00000013          	nop
8000d350:	00000013          	nop
8000d354:	00000013          	nop
8000d358:	00000013          	nop
8000d35c:	00000013          	nop
8000d360:	00000013          	nop
8000d364:	00000013          	nop
8000d368:	00000013          	nop
8000d36c:	00000013          	nop
8000d370:	00000013          	nop
8000d374:	00000013          	nop
8000d378:	00000013          	nop
8000d37c:	00000013          	nop
8000d380:	00000013          	nop
8000d384:	00000013          	nop
8000d388:	00000013          	nop
8000d38c:	00000013          	nop
8000d390:	00000013          	nop
8000d394:	00000013          	nop
8000d398:	00000013          	nop
8000d39c:	00000013          	nop
8000d3a0:	00000013          	nop
8000d3a4:	00000013          	nop
8000d3a8:	00000013          	nop
8000d3ac:	00000013          	nop
8000d3b0:	00000013          	nop
8000d3b4:	00000013          	nop
8000d3b8:	00000013          	nop
8000d3bc:	00000013          	nop
8000d3c0:	00000013          	nop
8000d3c4:	00000013          	nop
8000d3c8:	00000013          	nop
8000d3cc:	00000013          	nop
8000d3d0:	00000013          	nop
8000d3d4:	00000013          	nop
8000d3d8:	00000013          	nop
8000d3dc:	00000013          	nop
8000d3e0:	00000013          	nop
8000d3e4:	00000013          	nop
8000d3e8:	00000013          	nop
8000d3ec:	00000013          	nop
8000d3f0:	00000013          	nop
8000d3f4:	00000013          	nop
8000d3f8:	00000013          	nop
8000d3fc:	00000013          	nop
8000d400:	00000013          	nop
8000d404:	00000013          	nop
8000d408:	00000013          	nop
8000d40c:	00000013          	nop
8000d410:	00000013          	nop
8000d414:	00000013          	nop
8000d418:	00000013          	nop
8000d41c:	00000013          	nop
8000d420:	00000013          	nop
8000d424:	00000013          	nop
8000d428:	00000013          	nop
8000d42c:	00000013          	nop
8000d430:	00000013          	nop
8000d434:	00000013          	nop
8000d438:	00000013          	nop
8000d43c:	00000013          	nop
8000d440:	00000013          	nop
8000d444:	00000013          	nop
8000d448:	00000013          	nop
8000d44c:	00000013          	nop
8000d450:	00000013          	nop
8000d454:	00000013          	nop
8000d458:	00000013          	nop
8000d45c:	00000013          	nop
8000d460:	00000013          	nop
8000d464:	00000013          	nop
8000d468:	00000013          	nop
8000d46c:	00000013          	nop
8000d470:	00000013          	nop
8000d474:	00000013          	nop
8000d478:	00000013          	nop
8000d47c:	00000013          	nop
8000d480:	00000013          	nop
8000d484:	00000013          	nop
8000d488:	00000013          	nop
8000d48c:	00000013          	nop
8000d490:	00000013          	nop
8000d494:	00000013          	nop
8000d498:	00000013          	nop
8000d49c:	00000013          	nop
8000d4a0:	00000013          	nop
8000d4a4:	00000013          	nop
8000d4a8:	00000013          	nop
8000d4ac:	00000013          	nop
8000d4b0:	00000013          	nop
8000d4b4:	00000013          	nop
8000d4b8:	00000013          	nop
8000d4bc:	00000013          	nop
8000d4c0:	00000013          	nop
8000d4c4:	00000013          	nop
8000d4c8:	00000013          	nop
8000d4cc:	00000013          	nop
8000d4d0:	00000013          	nop
8000d4d4:	00000013          	nop
8000d4d8:	00000013          	nop
8000d4dc:	00000013          	nop
8000d4e0:	00000013          	nop
8000d4e4:	00000013          	nop
8000d4e8:	00000013          	nop
8000d4ec:	00000013          	nop
8000d4f0:	00000013          	nop
8000d4f4:	00000013          	nop
8000d4f8:	00000013          	nop
8000d4fc:	00000013          	nop
8000d500:	00000013          	nop
8000d504:	00000013          	nop
8000d508:	00000013          	nop
8000d50c:	00000013          	nop
8000d510:	00000013          	nop
8000d514:	00000013          	nop
8000d518:	00000013          	nop
8000d51c:	00000013          	nop
8000d520:	00000013          	nop
8000d524:	00000013          	nop
8000d528:	00000013          	nop
8000d52c:	00000013          	nop
8000d530:	00000013          	nop
8000d534:	00000013          	nop
8000d538:	00000013          	nop
8000d53c:	00000013          	nop
8000d540:	00000013          	nop
8000d544:	00000013          	nop
8000d548:	00000013          	nop
8000d54c:	00000013          	nop
8000d550:	00000013          	nop
8000d554:	00000013          	nop
8000d558:	00000013          	nop
8000d55c:	00000013          	nop
8000d560:	00000013          	nop
8000d564:	00000013          	nop
8000d568:	00000013          	nop
8000d56c:	00000013          	nop
8000d570:	00000013          	nop
8000d574:	00000013          	nop
8000d578:	00000013          	nop
8000d57c:	00000013          	nop
8000d580:	00000013          	nop
8000d584:	00000013          	nop
8000d588:	00000013          	nop
8000d58c:	00000013          	nop
8000d590:	00000013          	nop
8000d594:	00000013          	nop
8000d598:	00000013          	nop
8000d59c:	00000013          	nop
8000d5a0:	00000013          	nop
8000d5a4:	00000013          	nop
8000d5a8:	00000013          	nop
8000d5ac:	00000013          	nop
8000d5b0:	00000013          	nop
8000d5b4:	00000013          	nop
8000d5b8:	00000013          	nop
8000d5bc:	00000013          	nop
8000d5c0:	00000013          	nop
8000d5c4:	00000013          	nop
8000d5c8:	00000013          	nop
8000d5cc:	00000013          	nop
8000d5d0:	00000013          	nop
8000d5d4:	00000013          	nop
8000d5d8:	00000013          	nop
8000d5dc:	00000013          	nop
8000d5e0:	00000013          	nop
8000d5e4:	00000013          	nop
8000d5e8:	00000013          	nop
8000d5ec:	00000013          	nop
8000d5f0:	00000013          	nop
8000d5f4:	00000013          	nop
8000d5f8:	00000013          	nop
8000d5fc:	00000013          	nop
8000d600:	00000013          	nop
8000d604:	00000013          	nop
8000d608:	00000013          	nop
8000d60c:	00000013          	nop
8000d610:	00000013          	nop
8000d614:	00000013          	nop
8000d618:	00000013          	nop
8000d61c:	00000013          	nop
8000d620:	00000013          	nop
8000d624:	00000013          	nop
8000d628:	00000013          	nop
8000d62c:	00000013          	nop
8000d630:	00000013          	nop
8000d634:	00000013          	nop
8000d638:	00000013          	nop
8000d63c:	00000013          	nop
8000d640:	00000013          	nop
8000d644:	00000013          	nop
8000d648:	00000013          	nop
8000d64c:	00000013          	nop
8000d650:	00000013          	nop
8000d654:	00000013          	nop
8000d658:	00000013          	nop
8000d65c:	00000013          	nop
8000d660:	00000013          	nop
8000d664:	00000013          	nop
8000d668:	00000013          	nop
8000d66c:	00000013          	nop
8000d670:	00000013          	nop
8000d674:	00000013          	nop
8000d678:	00000013          	nop
8000d67c:	00000013          	nop
8000d680:	00000013          	nop
8000d684:	00000013          	nop
8000d688:	00000013          	nop
8000d68c:	00000013          	nop
8000d690:	00000013          	nop
8000d694:	00000013          	nop
8000d698:	00000013          	nop
8000d69c:	00000013          	nop
8000d6a0:	00000013          	nop
8000d6a4:	00000013          	nop
8000d6a8:	00000013          	nop
8000d6ac:	00000013          	nop
8000d6b0:	00000013          	nop
8000d6b4:	00000013          	nop
8000d6b8:	00000013          	nop
8000d6bc:	00000013          	nop
8000d6c0:	00000013          	nop
8000d6c4:	00000013          	nop
8000d6c8:	00000013          	nop
8000d6cc:	00000013          	nop
8000d6d0:	00000013          	nop
8000d6d4:	00000013          	nop
8000d6d8:	00000013          	nop
8000d6dc:	00000013          	nop
8000d6e0:	00000013          	nop
8000d6e4:	00000013          	nop
8000d6e8:	00000013          	nop
8000d6ec:	00000013          	nop
8000d6f0:	00000013          	nop
8000d6f4:	00000013          	nop
8000d6f8:	00000013          	nop
8000d6fc:	00000013          	nop
8000d700:	00000013          	nop
8000d704:	00000013          	nop
8000d708:	00000013          	nop
8000d70c:	00000013          	nop
8000d710:	00000013          	nop
8000d714:	00000013          	nop
8000d718:	00000013          	nop
8000d71c:	00000013          	nop
8000d720:	00000013          	nop
8000d724:	00000013          	nop
8000d728:	00000013          	nop
8000d72c:	00000013          	nop
8000d730:	00000013          	nop
8000d734:	00000013          	nop
8000d738:	00000013          	nop
8000d73c:	00000013          	nop
8000d740:	00000013          	nop
8000d744:	00000013          	nop
8000d748:	00000013          	nop
8000d74c:	00000013          	nop
8000d750:	00000013          	nop
8000d754:	00000013          	nop
8000d758:	00000013          	nop
8000d75c:	00000013          	nop
8000d760:	00000013          	nop
8000d764:	00000013          	nop
8000d768:	00000013          	nop
8000d76c:	00000013          	nop
8000d770:	00000013          	nop
8000d774:	00000013          	nop
8000d778:	00000013          	nop
8000d77c:	00000013          	nop
8000d780:	00000013          	nop
8000d784:	00000013          	nop
8000d788:	00000013          	nop
8000d78c:	00000013          	nop
8000d790:	00000013          	nop
8000d794:	00000013          	nop
8000d798:	00000013          	nop
8000d79c:	00000013          	nop
8000d7a0:	00000013          	nop
8000d7a4:	00000013          	nop
8000d7a8:	00000013          	nop
8000d7ac:	00000013          	nop
8000d7b0:	00000013          	nop
8000d7b4:	00000013          	nop
8000d7b8:	00000013          	nop
8000d7bc:	00000013          	nop
8000d7c0:	00000013          	nop
8000d7c4:	00000013          	nop
8000d7c8:	00000013          	nop
8000d7cc:	00000013          	nop
8000d7d0:	00000013          	nop
8000d7d4:	00000013          	nop
8000d7d8:	00000013          	nop
8000d7dc:	00000013          	nop
8000d7e0:	00000013          	nop
8000d7e4:	00000013          	nop
8000d7e8:	00000013          	nop
8000d7ec:	00000013          	nop
8000d7f0:	00000013          	nop
8000d7f4:	00000013          	nop
8000d7f8:	00000013          	nop
8000d7fc:	00000013          	nop
8000d800:	00000013          	nop
8000d804:	00000013          	nop
8000d808:	00000013          	nop
8000d80c:	00000013          	nop
8000d810:	00000013          	nop
8000d814:	00000013          	nop
8000d818:	00000013          	nop
8000d81c:	00000013          	nop
8000d820:	00000013          	nop
8000d824:	00000013          	nop
8000d828:	00000013          	nop
8000d82c:	00000013          	nop
8000d830:	00000013          	nop
8000d834:	00000013          	nop
8000d838:	00000013          	nop
8000d83c:	00000013          	nop
8000d840:	00000013          	nop
8000d844:	00000013          	nop
8000d848:	00000013          	nop
8000d84c:	00000013          	nop
8000d850:	00000013          	nop
8000d854:	00000013          	nop
8000d858:	00000013          	nop
8000d85c:	00000013          	nop
8000d860:	00000013          	nop
8000d864:	00000013          	nop
8000d868:	00000013          	nop
8000d86c:	00000013          	nop
8000d870:	00000013          	nop
8000d874:	00000013          	nop
8000d878:	00000013          	nop
8000d87c:	00000013          	nop
8000d880:	00000013          	nop
8000d884:	00000013          	nop
8000d888:	00000013          	nop
8000d88c:	00000013          	nop
8000d890:	00000013          	nop
8000d894:	00000013          	nop
8000d898:	00000013          	nop
8000d89c:	00000013          	nop
8000d8a0:	00000013          	nop
8000d8a4:	00000013          	nop
8000d8a8:	00000013          	nop
8000d8ac:	00000013          	nop
8000d8b0:	00000013          	nop
8000d8b4:	00000013          	nop
8000d8b8:	00000013          	nop
8000d8bc:	00000013          	nop
8000d8c0:	00000013          	nop
8000d8c4:	00000013          	nop
8000d8c8:	00000013          	nop
8000d8cc:	00000013          	nop
8000d8d0:	00000013          	nop
8000d8d4:	00000013          	nop
8000d8d8:	00000013          	nop
8000d8dc:	00000013          	nop
8000d8e0:	00000013          	nop
8000d8e4:	00000013          	nop
8000d8e8:	00000013          	nop
8000d8ec:	00000013          	nop
8000d8f0:	00000013          	nop
8000d8f4:	00000013          	nop
8000d8f8:	00000013          	nop
8000d8fc:	00000013          	nop
8000d900:	00000013          	nop
8000d904:	00000013          	nop
8000d908:	00000013          	nop
8000d90c:	00000013          	nop
8000d910:	00000013          	nop
8000d914:	00000013          	nop
8000d918:	00000013          	nop
8000d91c:	00000013          	nop
8000d920:	00000013          	nop
8000d924:	00000013          	nop
8000d928:	00000013          	nop
8000d92c:	00000013          	nop
8000d930:	00000013          	nop
8000d934:	00000013          	nop
8000d938:	00000013          	nop
8000d93c:	00000013          	nop
8000d940:	00000013          	nop
8000d944:	00000013          	nop
8000d948:	00000013          	nop
8000d94c:	00000013          	nop
8000d950:	00000013          	nop
8000d954:	00000013          	nop
8000d958:	00000013          	nop
8000d95c:	00000013          	nop
8000d960:	00000013          	nop
8000d964:	00000013          	nop
8000d968:	00000013          	nop
8000d96c:	00000013          	nop
8000d970:	00000013          	nop
8000d974:	00000013          	nop
8000d978:	00000013          	nop
8000d97c:	00000013          	nop
8000d980:	00000013          	nop
8000d984:	00000013          	nop
8000d988:	00000013          	nop
8000d98c:	00000013          	nop
8000d990:	00000013          	nop
8000d994:	00000013          	nop
8000d998:	00000013          	nop
8000d99c:	00000013          	nop
8000d9a0:	00000013          	nop
8000d9a4:	00000013          	nop
8000d9a8:	00000013          	nop
8000d9ac:	00000013          	nop
8000d9b0:	00000013          	nop
8000d9b4:	00000013          	nop
8000d9b8:	00000013          	nop
8000d9bc:	00000013          	nop
8000d9c0:	00000013          	nop
8000d9c4:	00000013          	nop
8000d9c8:	00000013          	nop
8000d9cc:	00000013          	nop
8000d9d0:	00000013          	nop
8000d9d4:	00000013          	nop
8000d9d8:	00000013          	nop
8000d9dc:	00000013          	nop
8000d9e0:	00000013          	nop
8000d9e4:	00000013          	nop
8000d9e8:	00000013          	nop
8000d9ec:	00000013          	nop
8000d9f0:	00000013          	nop
8000d9f4:	00000013          	nop
8000d9f8:	00000013          	nop
8000d9fc:	00000013          	nop
8000da00:	00000013          	nop
8000da04:	00000013          	nop
8000da08:	00000013          	nop
8000da0c:	00000013          	nop
8000da10:	00000013          	nop
8000da14:	00000013          	nop
8000da18:	00000013          	nop
8000da1c:	00000013          	nop
8000da20:	00000013          	nop
8000da24:	00000013          	nop
8000da28:	00000013          	nop
8000da2c:	00000013          	nop
8000da30:	00000013          	nop
8000da34:	00000013          	nop
8000da38:	00000013          	nop
8000da3c:	00000013          	nop
8000da40:	00000013          	nop
8000da44:	00000013          	nop
8000da48:	00000013          	nop
8000da4c:	00000013          	nop
8000da50:	00000013          	nop
8000da54:	00000013          	nop
8000da58:	00000013          	nop
8000da5c:	00000013          	nop
8000da60:	00000013          	nop
8000da64:	00000013          	nop
8000da68:	00000013          	nop
8000da6c:	00000013          	nop
8000da70:	00000013          	nop
8000da74:	00000013          	nop
8000da78:	00000013          	nop
8000da7c:	00000013          	nop
8000da80:	00000013          	nop
8000da84:	00000013          	nop
8000da88:	00000013          	nop
8000da8c:	00000013          	nop
8000da90:	00000013          	nop
8000da94:	00000013          	nop
8000da98:	00000013          	nop
8000da9c:	00000013          	nop
8000daa0:	00000013          	nop
8000daa4:	00000013          	nop
8000daa8:	00000013          	nop
8000daac:	00000013          	nop
8000dab0:	00000013          	nop
8000dab4:	00000013          	nop
8000dab8:	00000013          	nop
8000dabc:	00000013          	nop
8000dac0:	00000013          	nop
8000dac4:	00000013          	nop
8000dac8:	00000013          	nop
8000dacc:	00000013          	nop
8000dad0:	00000013          	nop
8000dad4:	00000013          	nop
8000dad8:	00000013          	nop
8000dadc:	00000013          	nop
8000dae0:	00000013          	nop
8000dae4:	00000013          	nop
8000dae8:	00000013          	nop
8000daec:	00000013          	nop
8000daf0:	00000013          	nop
8000daf4:	00000013          	nop
8000daf8:	00000013          	nop
8000dafc:	00000013          	nop
8000db00:	00000013          	nop
8000db04:	00000013          	nop
8000db08:	00000013          	nop
8000db0c:	00000013          	nop
8000db10:	00000013          	nop
8000db14:	00000013          	nop
8000db18:	00000013          	nop
8000db1c:	00000013          	nop
8000db20:	00000013          	nop
8000db24:	00000013          	nop
8000db28:	00000013          	nop
8000db2c:	00000013          	nop
8000db30:	00000013          	nop
8000db34:	00000013          	nop
8000db38:	00000013          	nop
8000db3c:	00000013          	nop
8000db40:	00000013          	nop
8000db44:	00000013          	nop
8000db48:	00000013          	nop
8000db4c:	00000013          	nop
8000db50:	00000013          	nop
8000db54:	00000013          	nop
8000db58:	00000013          	nop
8000db5c:	00000013          	nop
8000db60:	00000013          	nop
8000db64:	00000013          	nop
8000db68:	00000013          	nop
8000db6c:	00000013          	nop
8000db70:	00000013          	nop
8000db74:	00000013          	nop
8000db78:	00000013          	nop
8000db7c:	00000013          	nop
8000db80:	00000013          	nop
8000db84:	00000013          	nop
8000db88:	00000013          	nop
8000db8c:	00000013          	nop
8000db90:	00000013          	nop
8000db94:	00000013          	nop
8000db98:	00000013          	nop
8000db9c:	00000013          	nop
8000dba0:	00000013          	nop
8000dba4:	00000013          	nop
8000dba8:	00000013          	nop
8000dbac:	00000013          	nop
8000dbb0:	00000013          	nop
8000dbb4:	00000013          	nop
8000dbb8:	00000013          	nop
8000dbbc:	00000013          	nop
8000dbc0:	00000013          	nop
8000dbc4:	00000013          	nop
8000dbc8:	00000013          	nop
8000dbcc:	00000013          	nop
8000dbd0:	00000013          	nop
8000dbd4:	00000013          	nop
8000dbd8:	00000013          	nop
8000dbdc:	00000013          	nop
8000dbe0:	00000013          	nop
8000dbe4:	00000013          	nop
8000dbe8:	00000013          	nop
8000dbec:	00000013          	nop
8000dbf0:	00000013          	nop
8000dbf4:	00000013          	nop
8000dbf8:	00000013          	nop
8000dbfc:	00000013          	nop
8000dc00:	00000013          	nop
8000dc04:	00000013          	nop
8000dc08:	00000013          	nop
8000dc0c:	00000013          	nop
8000dc10:	00000013          	nop
8000dc14:	00000013          	nop
8000dc18:	00000013          	nop
8000dc1c:	00000013          	nop
8000dc20:	00000013          	nop
8000dc24:	00000013          	nop
8000dc28:	00000013          	nop
8000dc2c:	00000013          	nop
8000dc30:	00000013          	nop
8000dc34:	00000013          	nop
8000dc38:	00000013          	nop
8000dc3c:	00000013          	nop
8000dc40:	00000013          	nop
8000dc44:	00000013          	nop
8000dc48:	00000013          	nop
8000dc4c:	00000013          	nop
8000dc50:	00000013          	nop
8000dc54:	00000013          	nop
8000dc58:	00000013          	nop
8000dc5c:	00000013          	nop
8000dc60:	00000013          	nop
8000dc64:	00000013          	nop
8000dc68:	00000013          	nop
8000dc6c:	00000013          	nop
8000dc70:	00000013          	nop
8000dc74:	00000013          	nop
8000dc78:	00000013          	nop
8000dc7c:	00000013          	nop
8000dc80:	00000013          	nop
8000dc84:	00000013          	nop
8000dc88:	00000013          	nop
8000dc8c:	00000013          	nop
8000dc90:	00000013          	nop
8000dc94:	00000013          	nop
8000dc98:	00000013          	nop
8000dc9c:	00000013          	nop
8000dca0:	00000013          	nop
8000dca4:	00000013          	nop
8000dca8:	00000013          	nop
8000dcac:	00000013          	nop
8000dcb0:	00000013          	nop
8000dcb4:	00000013          	nop
8000dcb8:	00000013          	nop
8000dcbc:	00000013          	nop
8000dcc0:	00000013          	nop
8000dcc4:	00000013          	nop
8000dcc8:	00000013          	nop
8000dccc:	00000013          	nop
8000dcd0:	00000013          	nop
8000dcd4:	00000013          	nop
8000dcd8:	00000013          	nop
8000dcdc:	00000013          	nop
8000dce0:	00000013          	nop
8000dce4:	00000013          	nop
8000dce8:	00000013          	nop
8000dcec:	00000013          	nop
8000dcf0:	00000013          	nop
8000dcf4:	00000013          	nop
8000dcf8:	00000013          	nop
8000dcfc:	00000013          	nop
8000dd00:	00000013          	nop
8000dd04:	00000013          	nop
8000dd08:	00000013          	nop
8000dd0c:	00000013          	nop
8000dd10:	00000013          	nop
8000dd14:	00000013          	nop
8000dd18:	00000013          	nop
8000dd1c:	00000013          	nop
8000dd20:	00000013          	nop
8000dd24:	00000013          	nop
8000dd28:	00000013          	nop
8000dd2c:	00000013          	nop
8000dd30:	00000013          	nop
8000dd34:	00000013          	nop
8000dd38:	00000013          	nop
8000dd3c:	00000013          	nop
8000dd40:	00000013          	nop
8000dd44:	00000013          	nop
8000dd48:	00000013          	nop
8000dd4c:	00000013          	nop
8000dd50:	00000013          	nop
8000dd54:	00000013          	nop
8000dd58:	00000013          	nop
8000dd5c:	00000013          	nop
8000dd60:	00000013          	nop
8000dd64:	00000013          	nop
8000dd68:	00000013          	nop
8000dd6c:	00000013          	nop
8000dd70:	00000013          	nop
8000dd74:	00000013          	nop
8000dd78:	00000013          	nop
8000dd7c:	00000013          	nop
8000dd80:	00000013          	nop
8000dd84:	00000013          	nop
8000dd88:	00000013          	nop
8000dd8c:	00000013          	nop
8000dd90:	00000013          	nop
8000dd94:	00000013          	nop
8000dd98:	00000013          	nop
8000dd9c:	00000013          	nop
8000dda0:	00000013          	nop
8000dda4:	00000013          	nop
8000dda8:	00000013          	nop
8000ddac:	00000013          	nop
8000ddb0:	00000013          	nop
8000ddb4:	00000013          	nop
8000ddb8:	00000013          	nop
8000ddbc:	00000013          	nop
8000ddc0:	00000013          	nop
8000ddc4:	00000013          	nop
8000ddc8:	00000013          	nop
8000ddcc:	00000013          	nop
8000ddd0:	00000013          	nop
8000ddd4:	00000013          	nop
8000ddd8:	00000013          	nop
8000dddc:	00000013          	nop
8000dde0:	00000013          	nop
8000dde4:	00000013          	nop
8000dde8:	00000013          	nop
8000ddec:	00000013          	nop
8000ddf0:	00000013          	nop
8000ddf4:	00000013          	nop
8000ddf8:	00000013          	nop
8000ddfc:	00000013          	nop
8000de00:	00000013          	nop
8000de04:	00000013          	nop
8000de08:	00000013          	nop
8000de0c:	00000013          	nop
8000de10:	00000013          	nop
8000de14:	00000013          	nop
8000de18:	00000013          	nop
8000de1c:	00000013          	nop
8000de20:	00000013          	nop
8000de24:	00000013          	nop
8000de28:	00000013          	nop
8000de2c:	00000013          	nop
8000de30:	00000013          	nop
8000de34:	00000013          	nop
8000de38:	00000013          	nop
8000de3c:	00000013          	nop
8000de40:	00000013          	nop
8000de44:	00000013          	nop
8000de48:	00000013          	nop
8000de4c:	00000013          	nop
8000de50:	00000013          	nop
8000de54:	00000013          	nop
8000de58:	00000013          	nop
8000de5c:	00000013          	nop
8000de60:	00000013          	nop
8000de64:	00000013          	nop
8000de68:	00000013          	nop
8000de6c:	00000013          	nop
8000de70:	00000013          	nop
8000de74:	00000013          	nop
8000de78:	00000013          	nop
8000de7c:	00000013          	nop
8000de80:	00000013          	nop
8000de84:	00000013          	nop
8000de88:	00000013          	nop
8000de8c:	00000013          	nop
8000de90:	00000013          	nop
8000de94:	00000013          	nop
8000de98:	00000013          	nop
8000de9c:	00000013          	nop
8000dea0:	00000013          	nop
8000dea4:	00000013          	nop
8000dea8:	00000013          	nop
8000deac:	00000013          	nop
8000deb0:	00000013          	nop
8000deb4:	00000013          	nop
8000deb8:	00000013          	nop
8000debc:	00000013          	nop
8000dec0:	00000013          	nop
8000dec4:	00000013          	nop
8000dec8:	00000013          	nop
8000decc:	00000013          	nop
8000ded0:	00000013          	nop
8000ded4:	00000013          	nop
8000ded8:	00000013          	nop
8000dedc:	00000013          	nop
8000dee0:	00000013          	nop
8000dee4:	00000013          	nop
8000dee8:	00000013          	nop
8000deec:	00000013          	nop
8000def0:	00000013          	nop
8000def4:	00000013          	nop
8000def8:	00000013          	nop
8000defc:	00000013          	nop
8000df00:	00000013          	nop
8000df04:	00000013          	nop
8000df08:	00000013          	nop
8000df0c:	00000013          	nop
8000df10:	00000013          	nop
8000df14:	00000013          	nop
8000df18:	00000013          	nop
8000df1c:	00000013          	nop
8000df20:	00000013          	nop
8000df24:	00000013          	nop
8000df28:	00000013          	nop
8000df2c:	00000013          	nop
8000df30:	00000013          	nop
8000df34:	00000013          	nop
8000df38:	00000013          	nop
8000df3c:	00000013          	nop
8000df40:	00000013          	nop
8000df44:	00000013          	nop
8000df48:	00000013          	nop
8000df4c:	00000013          	nop
8000df50:	00000013          	nop
8000df54:	00000013          	nop
8000df58:	00000013          	nop
8000df5c:	00000013          	nop
8000df60:	00000013          	nop
8000df64:	00000013          	nop
8000df68:	00000013          	nop
8000df6c:	00000013          	nop
8000df70:	00000013          	nop
8000df74:	00000013          	nop
8000df78:	00000013          	nop
8000df7c:	00000013          	nop
8000df80:	00000013          	nop
8000df84:	00000013          	nop
8000df88:	00000013          	nop
8000df8c:	00000013          	nop
8000df90:	00000013          	nop
8000df94:	00000013          	nop
8000df98:	00000013          	nop
8000df9c:	00000013          	nop
8000dfa0:	00000013          	nop
8000dfa4:	00000013          	nop
8000dfa8:	00000013          	nop
8000dfac:	00000013          	nop
8000dfb0:	00000013          	nop
8000dfb4:	00000013          	nop
8000dfb8:	00000013          	nop
8000dfbc:	00000013          	nop
8000dfc0:	00000013          	nop
8000dfc4:	00000013          	nop
8000dfc8:	00000013          	nop
8000dfcc:	00000013          	nop
8000dfd0:	00000013          	nop
8000dfd4:	00000013          	nop
8000dfd8:	00000013          	nop
8000dfdc:	00000013          	nop
8000dfe0:	00000013          	nop
8000dfe4:	00000013          	nop
8000dfe8:	00000013          	nop
8000dfec:	00000013          	nop
8000dff0:	00000013          	nop
8000dff4:	00000013          	nop
8000dff8:	00000013          	nop
8000dffc:	00000013          	nop

8000e000 <kernel_data_start>:
	...
